
afl-fuzz:     file format elf64-x86-64


Disassembly of section .text:

0000000000003840 <main>:
    3840:	f3 0f 1e fa          	endbr64 
    3844:	4c 8d 54 24 08       	lea    r10,[rsp+0x8]
    3849:	48 83 e4 e0          	and    rsp,0xffffffffffffffe0
    384d:	41 ff 72 f8          	push   QWORD PTR [r10-0x8]
    3851:	55                   	push   rbp
    3852:	48 89 e5             	mov    rbp,rsp
    3855:	41 57                	push   r15
    3857:	41 56                	push   r14
    3859:	41 55                	push   r13
    385b:	41 54                	push   r12
    385d:	41 52                	push   r10
    385f:	53                   	push   rbx
    3860:	48 81 ec a0 01 00 00 	sub    rsp,0x1a0
    3867:	ff 15 73 47 02 00    	call   QWORD PTR [rip+0x24773]        # 27fe0 <mcount@GLIBC_2.2.5>
    386d:	4c 8d 2d a7 3e 01 00 	lea    r13,[rip+0x13ea7]        # 1771b <_IO_stdin_used+0x71b>
    3874:	64 48 8b 04 25 28 00 	mov    rax,QWORD PTR fs:0x28
    387b:	00 00 
    387d:	48 89 45 c8          	mov    QWORD PTR [rbp-0x38],rax
    3881:	31 c0                	xor    eax,eax
    3883:	41 89 fc             	mov    r12d,edi
    3886:	48 8d 3d c0 3e 01 00 	lea    rdi,[rip+0x13ec0]        # 1774d <_IO_stdin_used+0x74d>
    388d:	48 89 f3             	mov    rbx,rsi
    3890:	e8 ab f7 ff ff       	call   3040 <getenv@plt>
    3895:	48 89 85 60 fe ff ff 	mov    QWORD PTR [rbp-0x1a0],rax
    389c:	31 c0                	xor    eax,eax
    389e:	e8 e6 20 01 00       	call   15989 <setup_device_memory>
    38a3:	48 8d 3d 2e 8d 01 00 	lea    rdi,[rip+0x18d2e]        # 1c5d8 <_IO_stdin_used+0x55d8>
    38aa:	e8 a1 f8 ff ff       	call   3150 <puts@plt>
    38af:	31 f6                	xor    esi,esi
    38b1:	4c 89 ef             	mov    rdi,r13
    38b4:	e8 37 fd ff ff       	call   35f0 <access@plt>
    38b9:	48 8d b5 70 fe ff ff 	lea    rsi,[rbp-0x190]
    38c0:	48 8d bd 80 fe ff ff 	lea    rdi,[rbp-0x180]
    38c7:	85 c0                	test   eax,eax
    38c9:	48 8d 05 46 3e 01 00 	lea    rax,[rip+0x13e46]        # 17716 <_IO_stdin_used+0x716>
    38d0:	49 0f 44 c5          	cmove  rax,r13
    38d4:	45 31 ff             	xor    r15d,r15d
    38d7:	4c 8d 2d 62 ab 01 00 	lea    r13,[rip+0x1ab62]        # 1e440 <_IO_stdin_used+0x7440>
    38de:	48 89 05 03 91 10 00 	mov    QWORD PTR [rip+0x109103],rax        # 10c9e8 <doc_path>
    38e5:	e8 e6 f9 ff ff       	call   32d0 <gettimeofday@plt>
    38ea:	4c 8b b5 88 fe ff ff 	mov    r14,QWORD PTR [rbp-0x178]
    38f1:	44 33 b5 80 fe ff ff 	xor    r14d,DWORD PTR [rbp-0x180]
    38f8:	e8 c3 f8 ff ff       	call   31c0 <getpid@plt>
    38fd:	44 89 f7             	mov    edi,r14d
    3900:	4c 8d 35 81 3e 01 00 	lea    r14,[rip+0x13e81]        # 17788 <_IO_stdin_used+0x788>
    3907:	31 c7                	xor    edi,eax
    3909:	e8 c2 f7 ff ff       	call   30d0 <srandom@plt>
    390e:	48 c7 85 68 fe ff ff 	mov    QWORD PTR [rbp-0x198],0x0
    3915:	00 00 00 00 
    3919:	4c 89 f2             	mov    rdx,r14
    391c:	48 89 de             	mov    rsi,rbx
    391f:	44 89 e7             	mov    edi,r12d
    3922:	e8 39 fd ff ff       	call   3660 <getopt@plt>
    3927:	85 c0                	test   eax,eax
    3929:	7e 13                	jle    393e <main+0xfe>
    392b:	83 e8 42             	sub    eax,0x42
    392e:	83 f8 36             	cmp    eax,0x36
    3931:	77 2e                	ja     3961 <main+0x121>
    3933:	49 63 54 85 00       	movsxd rdx,DWORD PTR [r13+rax*4+0x0]
    3938:	4c 01 ea             	add    rdx,r13
    393b:	3e ff e2             	notrack jmp rdx
    393e:	44 39 25 43 47 02 00 	cmp    DWORD PTR [rip+0x24743],r12d        # 28088 <optind@GLIBC_2.2.5>
    3945:	74 1a                	je     3961 <main+0x121>
    3947:	48 83 3d d1 90 10 00 	cmp    QWORD PTR [rip+0x1090d1],0x0        # 10ca20 <in_dir>
    394e:	00 
    394f:	74 10                	je     3961 <main+0x121>
    3951:	4c 8b 35 b8 90 10 00 	mov    r14,QWORD PTR [rip+0x1090b8]        # 10ca10 <out_dir>
    3958:	4d 85 f6             	test   r14,r14
    395b:	0f 85 61 05 00 00    	jne    3ec2 <main+0x682>
    3961:	48 8b 3b             	mov    rdi,QWORD PTR [rbx]
    3964:	e8 77 3a 00 00       	call   73e0 <usage>
    3969:	48 83 bd 68 fe ff ff 	cmp    QWORD PTR [rbp-0x198],0x0
    3970:	00 
    3971:	0f 85 de 0a 00 00    	jne    4455 <main+0xc15>
    3977:	48 8b 35 22 47 02 00 	mov    rsi,QWORD PTR [rip+0x24722]        # 280a0 <optarg@GLIBC_2.2.5>
    397e:	48 89 b5 68 fe ff ff 	mov    QWORD PTR [rbp-0x198],rsi
    3985:	eb 92                	jmp    3919 <main+0xd9>
    3987:	80 3d 3b 90 10 00 00 	cmp    BYTE PTR [rip+0x10903b],0x0        # 10c9c9 <timeout_given>
    398e:	c6 85 90 fe ff ff 00 	mov    BYTE PTR [rbp-0x170],0x0
    3995:	0f 85 d8 0a 00 00    	jne    4473 <main+0xc33>
    399b:	48 8b 3d fe 46 02 00 	mov    rdi,QWORD PTR [rip+0x246fe]        # 280a0 <optarg@GLIBC_2.2.5>
    39a2:	31 c0                	xor    eax,eax
    39a4:	48 8d 8d 90 fe ff ff 	lea    rcx,[rbp-0x170]
    39ab:	48 8d 15 92 46 02 00 	lea    rdx,[rip+0x24692]        # 28044 <exec_tmout>
    39b2:	48 8d 35 ad 3d 01 00 	lea    rsi,[rip+0x13dad]        # 17766 <_IO_stdin_used+0x766>
    39b9:	e8 42 fb ff ff       	call   3500 <__isoc99_sscanf@plt>
    39be:	85 c0                	test   eax,eax
    39c0:	0f 8e a1 09 00 00    	jle    4367 <main+0xb27>
    39c6:	4c 8b 05 d3 46 02 00 	mov    r8,QWORD PTR [rip+0x246d3]        # 280a0 <optarg@GLIBC_2.2.5>
    39cd:	41 80 38 2d          	cmp    BYTE PTR [r8],0x2d
    39d1:	0f 84 90 09 00 00    	je     4367 <main+0xb27>
    39d7:	83 3d 66 46 02 00 04 	cmp    DWORD PTR [rip+0x24666],0x4        # 28044 <exec_tmout>
    39de:	0f 86 db 09 00 00    	jbe    43bf <main+0xb7f>
    39e4:	80 bd 90 fe ff ff 2b 	cmp    BYTE PTR [rbp-0x170],0x2b
    39eb:	41 0f 94 c1          	sete   r9b
    39ef:	41 83 c1 01          	add    r9d,0x1
    39f3:	44 88 0d cf 8f 10 00 	mov    BYTE PTR [rip+0x108fcf],r9b        # 10c9c9 <timeout_given>
    39fa:	e9 1a ff ff ff       	jmp    3919 <main+0xd9>
    39ff:	48 83 3d 09 90 10 00 	cmp    QWORD PTR [rip+0x109009],0x0        # 10ca10 <out_dir>
    3a06:	00 
    3a07:	0f 85 fc 0a 00 00    	jne    4509 <main+0xcc9>
    3a0d:	4c 8b 1d 8c 46 02 00 	mov    r11,QWORD PTR [rip+0x2468c]        # 280a0 <optarg@GLIBC_2.2.5>
    3a14:	4c 89 1d f5 8f 10 00 	mov    QWORD PTR [rip+0x108ff5],r11        # 10ca10 <out_dir>
    3a1b:	e9 f9 fe ff ff       	jmp    3919 <main+0xd9>
    3a20:	80 3d a6 8f 10 00 00 	cmp    BYTE PTR [rip+0x108fa6],0x0        # 10c9cd <dumb_mode>
    3a27:	0f 85 fa 0a 00 00    	jne    4527 <main+0xce7>
    3a2d:	48 8d 3d 43 3d 01 00 	lea    rdi,[rip+0x13d43]        # 17777 <_IO_stdin_used+0x777>
    3a34:	e8 07 f6 ff ff       	call   3040 <getenv@plt>
    3a39:	41 ba 01 00 00 00    	mov    r10d,0x1
    3a3f:	48 83 f8 01          	cmp    rax,0x1
    3a43:	41 80 da ff          	sbb    r10b,0xff
    3a47:	44 88 15 7f 8f 10 00 	mov    BYTE PTR [rip+0x108f7f],r10b        # 10c9cd <dumb_mode>
    3a4e:	e9 c6 fe ff ff       	jmp    3919 <main+0xd9>
    3a53:	c6 85 90 fe ff ff 4d 	mov    BYTE PTR [rbp-0x170],0x4d
    3a5a:	45 84 ff             	test   r15b,r15b
    3a5d:	0f 85 4c 0a 00 00    	jne    44af <main+0xc6f>
    3a63:	4c 8b 3d 36 46 02 00 	mov    r15,QWORD PTR [rip+0x24636]        # 280a0 <optarg@GLIBC_2.2.5>
    3a6a:	48 8d 35 fa 3c 01 00 	lea    rsi,[rip+0x13cfa]        # 1776b <_IO_stdin_used+0x76b>
    3a71:	4c 89 ff             	mov    rdi,r15
    3a74:	e8 37 f9 ff ff       	call   33b0 <strcmp@plt>
    3a79:	85 c0                	test   eax,eax
    3a7b:	0f 85 29 03 00 00    	jne    3daa <main+0x56a>
    3a81:	48 c7 05 ac 45 02 00 	mov    QWORD PTR [rip+0x245ac],0x0        # 28038 <mem_limit>
    3a88:	00 00 00 00 
    3a8c:	41 bf 01 00 00 00    	mov    r15d,0x1
    3a92:	e9 82 fe ff ff       	jmp    3919 <main+0xd9>
    3a97:	48 83 3d 81 8f 10 00 	cmp    QWORD PTR [rip+0x108f81],0x0        # 10ca20 <in_dir>
    3a9e:	00 
    3a9f:	0f 85 74 09 00 00    	jne    4419 <main+0xbd9>
    3aa5:	48 8b 3d f4 45 02 00 	mov    rdi,QWORD PTR [rip+0x245f4]        # 280a0 <optarg@GLIBC_2.2.5>
    3aac:	48 8d 35 4e 3e 01 00 	lea    rsi,[rip+0x13e4e]        # 17901 <_IO_stdin_used+0x901>
    3ab3:	48 89 3d 66 8f 10 00 	mov    QWORD PTR [rip+0x108f66],rdi        # 10ca20 <in_dir>
    3aba:	e8 f1 f8 ff ff       	call   33b0 <strcmp@plt>
    3abf:	85 c0                	test   eax,eax
    3ac1:	0f 85 52 fe ff ff    	jne    3919 <main+0xd9>
    3ac7:	c6 05 f4 8e 10 00 01 	mov    BYTE PTR [rip+0x108ef4],0x1        # 10c9c2 <in_place_resume>
    3ace:	e9 46 fe ff ff       	jmp    3919 <main+0xd9>
    3ad3:	48 83 3d 3d 8f 10 00 	cmp    QWORD PTR [rip+0x108f3d],0x0        # 10ca18 <out_file>
    3ada:	00 
    3adb:	0f 85 64 0a 00 00    	jne    4545 <main+0xd05>
    3ae1:	48 8b 05 b8 45 02 00 	mov    rax,QWORD PTR [rip+0x245b8]        # 280a0 <optarg@GLIBC_2.2.5>
    3ae8:	48 89 05 29 8f 10 00 	mov    QWORD PTR [rip+0x108f29],rax        # 10ca18 <out_file>
    3aef:	e9 25 fe ff ff       	jmp    3919 <main+0xd9>
    3af4:	80 3d d5 8e 10 00 00 	cmp    BYTE PTR [rip+0x108ed5],0x0        # 10c9d0 <skip_deterministic>
    3afb:	0f 85 dc 08 00 00    	jne    43dd <main+0xb9d>
    3b01:	c6 05 c8 8e 10 00 01 	mov    BYTE PTR [rip+0x108ec8],0x1        # 10c9d0 <skip_deterministic>
    3b08:	c6 05 bf 8e 10 00 01 	mov    BYTE PTR [rip+0x108ebf],0x1        # 10c9ce <use_splicing>
    3b0f:	e9 05 fe ff ff       	jmp    3919 <main+0xd9>
    3b14:	80 3d ad 8e 10 00 00 	cmp    BYTE PTR [rip+0x108ead],0x0        # 10c9c8 <cpu_to_bind_given>
    3b1b:	0f 85 da 08 00 00    	jne    43fb <main+0xbbb>
    3b21:	48 8b 3d 78 45 02 00 	mov    rdi,QWORD PTR [rip+0x24578]        # 280a0 <optarg@GLIBC_2.2.5>
    3b28:	31 c0                	xor    eax,eax
    3b2a:	48 8d 15 a3 8e 10 00 	lea    rdx,[rip+0x108ea3]        # 10c9d4 <cpu_to_bind>
    3b31:	48 8d 35 c8 3b 01 00 	lea    rsi,[rip+0x13bc8]        # 17700 <_IO_stdin_used+0x700>
    3b38:	c6 05 89 8e 10 00 01 	mov    BYTE PTR [rip+0x108e89],0x1        # 10c9c8 <cpu_to_bind_given>
    3b3f:	e8 bc f9 ff ff       	call   3500 <__isoc99_sscanf@plt>
    3b44:	85 c0                	test   eax,eax
    3b46:	7e 10                	jle    3b58 <main+0x318>
    3b48:	48 8b 15 51 45 02 00 	mov    rdx,QWORD PTR [rip+0x24551]        # 280a0 <optarg@GLIBC_2.2.5>
    3b4f:	80 3a 2d             	cmp    BYTE PTR [rdx],0x2d
    3b52:	0f 85 c1 fd ff ff    	jne    3919 <main+0xd9>
    3b58:	48 8d 35 61 8f 01 00 	lea    rsi,[rip+0x18f61]        # 1cac0 <_IO_stdin_used+0x5ac0>
    3b5f:	bf 01 00 00 00       	mov    edi,0x1
    3b64:	31 c0                	xor    eax,eax
    3b66:	e8 05 fa ff ff       	call   3570 <__printf_chk@plt>
    3b6b:	41 b8 c7 1e 00 00    	mov    r8d,0x1ec7
    3b71:	48 8d 0d c5 35 01 00 	lea    rcx,[rip+0x135c5]        # 1713d <_IO_stdin_used+0x13d>
    3b78:	48 8d 15 6f ad 01 00 	lea    rdx,[rip+0x1ad6f]        # 1e8ee <__FUNCTION__.84>
    3b7f:	e9 09 02 00 00       	jmp    3d8d <main+0x54d>
    3b84:	e8 07 47 00 00       	call   8290 <DFL_ck_free>
    3b89:	48 8b 3d 50 8e 10 00 	mov    rdi,QWORD PTR [rip+0x108e50]        # 10c9e0 <target_path>
    3b90:	e8 fb 46 00 00       	call   8290 <DFL_ck_free>
    3b95:	48 8b 3d 64 8e 10 00 	mov    rdi,QWORD PTR [rip+0x108e64]        # 10ca00 <sync_id>
    3b9c:	e8 ef 46 00 00       	call   8290 <DFL_ck_free>
    3ba1:	48 8d 3d 60 a8 01 00 	lea    rdi,[rip+0x1a860]        # 1e408 <_IO_stdin_used+0x7408>
    3ba8:	e8 a3 f5 ff ff       	call   3150 <puts@plt>
    3bad:	4c 89 ef             	mov    rdi,r13
    3bb0:	e8 9b f5 ff ff       	call   3150 <puts@plt>
    3bb5:	31 ff                	xor    edi,edi
    3bb7:	e8 24 fb ff ff       	call   36e0 <exit@plt>
    3bbc:	48 83 3d 34 8e 10 00 	cmp    QWORD PTR [rip+0x108e34],0x0        # 10c9f8 <use_banner>
    3bc3:	00 
    3bc4:	0f 85 6d 08 00 00    	jne    4437 <main+0xbf7>
    3bca:	48 8b 35 cf 44 02 00 	mov    rsi,QWORD PTR [rip+0x244cf]        # 280a0 <optarg@GLIBC_2.2.5>
    3bd1:	48 89 35 20 8e 10 00 	mov    QWORD PTR [rip+0x108e20],rsi        # 10c9f8 <use_banner>
    3bd8:	e9 3c fd ff ff       	jmp    3919 <main+0xd9>
    3bdd:	48 83 3d 1b 8e 10 00 	cmp    QWORD PTR [rip+0x108e1b],0x0        # 10ca00 <sync_id>
    3be4:	00 
    3be5:	0f 85 e2 08 00 00    	jne    44cd <main+0xc8d>
    3beb:	48 8b 3d ae 44 02 00 	mov    rdi,QWORD PTR [rip+0x244ae]        # 280a0 <optarg@GLIBC_2.2.5>
    3bf2:	e8 29 38 00 00       	call   7420 <DFL_ck_strdup>
    3bf7:	48 89 05 02 8e 10 00 	mov    QWORD PTR [rip+0x108e02],rax        # 10ca00 <sync_id>
    3bfe:	e9 16 fd ff ff       	jmp    3919 <main+0xd9>
    3c03:	80 3d b3 8d 10 00 00 	cmp    BYTE PTR [rip+0x108db3],0x0        # 10c9bd <qemu_mode>
    3c0a:	0f 85 db 08 00 00    	jne    44eb <main+0xcab>
    3c10:	c6 05 a6 8d 10 00 01 	mov    BYTE PTR [rip+0x108da6],0x1        # 10c9bd <qemu_mode>
    3c17:	45 84 ff             	test   r15b,r15b
    3c1a:	0f 85 f9 fc ff ff    	jne    3919 <main+0xd9>
    3c20:	48 c7 05 0d 44 02 00 	mov    QWORD PTR [rip+0x2440d],0xc8        # 28038 <mem_limit>
    3c27:	c8 00 00 00 
    3c2b:	e9 e9 fc ff ff       	jmp    3919 <main+0xd9>
    3c30:	48 83 3d c8 8d 10 00 	cmp    QWORD PTR [rip+0x108dc8],0x0        # 10ca00 <sync_id>
    3c37:	00 
    3c38:	0f 85 25 09 00 00    	jne    4563 <main+0xd23>
    3c3e:	48 8b 3d 5b 44 02 00 	mov    rdi,QWORD PTR [rip+0x2445b]        # 280a0 <optarg@GLIBC_2.2.5>
    3c45:	e8 d6 37 00 00       	call   7420 <DFL_ck_strdup>
    3c4a:	be 3a 00 00 00       	mov    esi,0x3a
    3c4f:	48 89 c7             	mov    rdi,rax
    3c52:	48 89 05 a7 8d 10 00 	mov    QWORD PTR [rip+0x108da7],rax        # 10ca00 <sync_id>
    3c59:	e8 12 f6 ff ff       	call   3270 <strchr@plt>
    3c5e:	48 85 c0             	test   rax,rax
    3c61:	74 5d                	je     3cc0 <main+0x480>
    3c63:	c6 00 00             	mov    BYTE PTR [rax],0x0
    3c66:	48 8d 78 01          	lea    rdi,[rax+0x1]
    3c6a:	31 c0                	xor    eax,eax
    3c6c:	48 8d 0d 1d 8c 0d 00 	lea    rcx,[rip+0xd8c1d]        # dc890 <master_max>
    3c73:	48 8d 15 1a 8c 0d 00 	lea    rdx,[rip+0xd8c1a]        # dc894 <master_id>
    3c7a:	48 8d 35 df 3a 01 00 	lea    rsi,[rip+0x13adf]        # 17760 <_IO_stdin_used+0x760>
    3c81:	e8 7a f8 ff ff       	call   3500 <__isoc99_sscanf@plt>
    3c86:	83 f8 02             	cmp    eax,0x2
    3c89:	0f 85 04 04 00 00    	jne    4093 <main+0x853>
    3c8f:	44 8b 05 fe 8b 0d 00 	mov    r8d,DWORD PTR [rip+0xd8bfe]        # dc894 <master_id>
    3c96:	45 85 c0             	test   r8d,r8d
    3c99:	0f 84 f4 03 00 00    	je     4093 <main+0x853>
    3c9f:	44 8b 0d ea 8b 0d 00 	mov    r9d,DWORD PTR [rip+0xd8bea]        # dc890 <master_max>
    3ca6:	45 8d 59 ff          	lea    r11d,[r9-0x1]
    3caa:	41 81 fb 3f 42 0f 00 	cmp    r11d,0xf423f
    3cb1:	0f 87 dc 03 00 00    	ja     4093 <main+0x853>
    3cb7:	45 39 c8             	cmp    r8d,r9d
    3cba:	0f 87 d3 03 00 00    	ja     4093 <main+0x853>
    3cc0:	c6 05 08 8d 10 00 01 	mov    BYTE PTR [rip+0x108d08],0x1        # 10c9cf <force_deterministic>
    3cc7:	e9 4d fc ff ff       	jmp    3919 <main+0xd9>
    3ccc:	80 3d f0 8c 10 00 00 	cmp    BYTE PTR [rip+0x108cf0],0x0        # 10c9c3 <crash_mode>
    3cd3:	0f 85 b8 07 00 00    	jne    4491 <main+0xc51>
    3cd9:	c6 05 e3 8c 10 00 02 	mov    BYTE PTR [rip+0x108ce3],0x2        # 10c9c3 <crash_mode>
    3ce0:	e9 34 fc ff ff       	jmp    3919 <main+0xd9>
    3ce5:	48 83 3d 03 8d 10 00 	cmp    QWORD PTR [rip+0x108d03],0x0        # 10c9f0 <in_bitmap>
    3cec:	00 
    3ced:	0f 85 ae 06 00 00    	jne    43a1 <main+0xb61>
    3cf3:	4c 8b 15 a6 43 02 00 	mov    r10,QWORD PTR [rip+0x243a6]        # 280a0 <optarg@GLIBC_2.2.5>
    3cfa:	31 f6                	xor    esi,esi
    3cfc:	31 c0                	xor    eax,eax
    3cfe:	4c 89 d7             	mov    rdi,r10
    3d01:	4c 89 15 e8 8c 10 00 	mov    QWORD PTR [rip+0x108ce8],r10        # 10c9f0 <in_bitmap>
    3d08:	4c 89 95 58 fe ff ff 	mov    QWORD PTR [rbp-0x1a8],r10
    3d0f:	e8 7c f8 ff ff       	call   3590 <open64@plt>
    3d14:	48 8b 8d 58 fe ff ff 	mov    rcx,QWORD PTR [rbp-0x1a8]
    3d1b:	85 c0                	test   eax,eax
    3d1d:	89 c7                	mov    edi,eax
    3d1f:	0f 88 52 24 00 00    	js     6177 <main+0x2937>
    3d25:	ba 00 00 01 00       	mov    edx,0x10000
    3d2a:	48 8d 35 6f 8c 0f 00 	lea    rsi,[rip+0xf8c6f]        # fc9a0 <virgin_bits>
    3d31:	48 89 8d 50 fe ff ff 	mov    QWORD PTR [rbp-0x1b0],rcx
    3d38:	89 85 58 fe ff ff    	mov    DWORD PTR [rbp-0x1a8],eax
    3d3e:	e8 2d f6 ff ff       	call   3370 <read@plt>
    3d43:	8b bd 58 fe ff ff    	mov    edi,DWORD PTR [rbp-0x1a8]
    3d49:	3d 00 00 01 00       	cmp    eax,0x10000
    3d4e:	0f 84 64 01 00 00    	je     3eb8 <main+0x678>
    3d54:	48 8b 9d 50 fe ff ff 	mov    rbx,QWORD PTR [rbp-0x1b0]
    3d5b:	85 c0                	test   eax,eax
    3d5d:	0f 88 bf 00 00 00    	js     3e22 <main+0x5e2>
    3d63:	48 89 da             	mov    rdx,rbx
    3d66:	48 8d 35 8b 41 01 00 	lea    rsi,[rip+0x1418b]        # 17ef8 <_IO_stdin_used+0xef8>
    3d6d:	bf 01 00 00 00       	mov    edi,0x1
    3d72:	31 c0                	xor    eax,eax
    3d74:	e8 f7 f7 ff ff       	call   3570 <__printf_chk@plt>
    3d79:	41 b8 88 03 00 00    	mov    r8d,0x388
    3d7f:	48 8d 0d b7 33 01 00 	lea    rcx,[rip+0x133b7]        # 1713d <_IO_stdin_used+0x13d>
    3d86:	48 8d 15 43 ab 01 00 	lea    rdx,[rip+0x1ab43]        # 1e8d0 <__FUNCTION__.82>
    3d8d:	bf 01 00 00 00       	mov    edi,0x1
    3d92:	48 8d 35 a7 41 01 00 	lea    rsi,[rip+0x141a7]        # 17f40 <_IO_stdin_used+0xf40>
    3d99:	31 c0                	xor    eax,eax
    3d9b:	e8 d0 f7 ff ff       	call   3570 <__printf_chk@plt>
    3da0:	bf 01 00 00 00       	mov    edi,0x1
    3da5:	e8 36 f9 ff ff       	call   36e0 <exit@plt>
    3daa:	31 c0                	xor    eax,eax
    3dac:	48 8d 8d 90 fe ff ff 	lea    rcx,[rbp-0x170]
    3db3:	4c 89 ff             	mov    rdi,r15
    3db6:	48 8d 15 7b 42 02 00 	lea    rdx,[rip+0x2427b]        # 28038 <mem_limit>
    3dbd:	48 8d 35 ac 39 01 00 	lea    rsi,[rip+0x139ac]        # 17770 <_IO_stdin_used+0x770>
    3dc4:	e8 37 f7 ff ff       	call   3500 <__isoc99_sscanf@plt>
    3dc9:	85 c0                	test   eax,eax
    3dcb:	0f 8e fa 07 00 00    	jle    45cb <main+0xd8b>
    3dd1:	48 8b 3d c8 42 02 00 	mov    rdi,QWORD PTR [rip+0x242c8]        # 280a0 <optarg@GLIBC_2.2.5>
    3dd8:	80 3f 2d             	cmp    BYTE PTR [rdi],0x2d
    3ddb:	0f 84 ea 07 00 00    	je     45cb <main+0xd8b>
    3de1:	0f b6 8d 90 fe ff ff 	movzx  ecx,BYTE PTR [rbp-0x170]
    3de8:	80 f9 54             	cmp    cl,0x54
    3deb:	0f 84 69 05 00 00    	je     435a <main+0xb1a>
    3df1:	0f 87 ab 00 00 00    	ja     3ea2 <main+0x662>
    3df7:	80 f9 47             	cmp    cl,0x47
    3dfa:	0f 84 4d 05 00 00    	je     434d <main+0xb0d>
    3e00:	80 f9 4d             	cmp    cl,0x4d
    3e03:	0f 85 26 05 00 00    	jne    432f <main+0xaef>
    3e09:	48 83 3d 27 42 02 00 	cmp    QWORD PTR [rip+0x24227],0x4        # 28038 <mem_limit>
    3e10:	04 
    3e11:	0f 86 2a 08 00 00    	jbe    4641 <main+0xe01>
    3e17:	41 bf 01 00 00 00    	mov    r15d,0x1
    3e1d:	e9 f7 fa ff ff       	jmp    3919 <main+0xd9>
    3e22:	48 8b 3d 57 42 02 00 	mov    rdi,QWORD PTR [rip+0x24257]        # 28080 <stdout@GLIBC_2.2.5>
    3e29:	48 89 9d 68 fe ff ff 	mov    QWORD PTR [rbp-0x198],rbx
    3e30:	e8 bb f6 ff ff       	call   34f0 <fflush@plt>
    3e35:	48 8b 95 68 fe ff ff 	mov    rdx,QWORD PTR [rbp-0x198]
    3e3c:	48 8d 35 15 40 01 00 	lea    rsi,[rip+0x14015]        # 17e58 <_IO_stdin_used+0xe58>
    3e43:	31 c0                	xor    eax,eax
    3e45:	bf 01 00 00 00       	mov    edi,0x1
    3e4a:	e8 21 f7 ff ff       	call   3570 <__printf_chk@plt>
    3e4f:	41 b8 88 03 00 00    	mov    r8d,0x388
    3e55:	48 8d 0d e1 32 01 00 	lea    rcx,[rip+0x132e1]        # 1713d <_IO_stdin_used+0x13d>
    3e5c:	48 8d 15 6d aa 01 00 	lea    rdx,[rip+0x1aa6d]        # 1e8d0 <__FUNCTION__.82>
    3e63:	48 8d 35 36 40 01 00 	lea    rsi,[rip+0x14036]        # 17ea0 <_IO_stdin_used+0xea0>
    3e6a:	bf 01 00 00 00       	mov    edi,0x1
    3e6f:	31 c0                	xor    eax,eax
    3e71:	e8 fa f6 ff ff       	call   3570 <__printf_chk@plt>
    3e76:	e8 45 f2 ff ff       	call   30c0 <__errno_location@plt>
    3e7b:	8b 38                	mov    edi,DWORD PTR [rax]
    3e7d:	e8 ce f8 ff ff       	call   3750 <strerror@plt>
    3e82:	bf 01 00 00 00       	mov    edi,0x1
    3e87:	48 8d 35 42 40 01 00 	lea    rsi,[rip+0x14042]        # 17ed0 <_IO_stdin_used+0xed0>
    3e8e:	48 89 c2             	mov    rdx,rax
    3e91:	31 c0                	xor    eax,eax
    3e93:	e8 d8 f6 ff ff       	call   3570 <__printf_chk@plt>
    3e98:	bf 01 00 00 00       	mov    edi,0x1
    3e9d:	e8 3e f8 ff ff       	call   36e0 <exit@plt>
    3ea2:	80 f9 6b             	cmp    cl,0x6b
    3ea5:	0f 85 84 04 00 00    	jne    432f <main+0xaef>
    3eab:	48 c1 2d 85 41 02 00 	shr    QWORD PTR [rip+0x24185],0xa        # 28038 <mem_limit>
    3eb2:	0a 
    3eb3:	e9 51 ff ff ff       	jmp    3e09 <main+0x5c9>
    3eb8:	e8 63 f4 ff ff       	call   3320 <close@plt>
    3ebd:	e9 57 fa ff ff       	jmp    3919 <main+0xd9>
    3ec2:	48 8d bd a8 fe ff ff 	lea    rdi,[rbp-0x158]
    3ec9:	4c 8d bd a0 fe ff ff 	lea    r15,[rbp-0x160]
    3ed0:	48 c7 85 a0 fe ff ff 	mov    QWORD PTR [rbp-0x160],0x0
    3ed7:	00 00 00 00 
    3edb:	c7 85 28 ff ff ff 00 	mov    DWORD PTR [rbp-0xd8],0x10000000
    3ee2:	00 00 10 
    3ee5:	e8 06 f5 ff ff       	call   33f0 <sigemptyset@plt>
    3eea:	48 8d 15 ff 24 00 00 	lea    rdx,[rip+0x24ff]        # 63f0 <handle_stop_sig>
    3ef1:	4c 89 fe             	mov    rsi,r15
    3ef4:	bf 01 00 00 00       	mov    edi,0x1
    3ef9:	48 89 95 a0 fe ff ff 	mov    QWORD PTR [rbp-0x160],rdx
    3f00:	31 d2                	xor    edx,edx
    3f02:	e8 69 f2 ff ff       	call   3170 <sigaction@plt>
    3f07:	31 d2                	xor    edx,edx
    3f09:	4c 89 fe             	mov    rsi,r15
    3f0c:	bf 02 00 00 00       	mov    edi,0x2
    3f11:	e8 5a f2 ff ff       	call   3170 <sigaction@plt>
    3f16:	31 d2                	xor    edx,edx
    3f18:	4c 89 fe             	mov    rsi,r15
    3f1b:	bf 0f 00 00 00       	mov    edi,0xf
    3f20:	e8 4b f2 ff ff       	call   3170 <sigaction@plt>
    3f25:	31 d2                	xor    edx,edx
    3f27:	4c 89 fe             	mov    rsi,r15
    3f2a:	bf 0e 00 00 00       	mov    edi,0xe
    3f2f:	48 8d 0d 2a 42 00 00 	lea    rcx,[rip+0x422a]        # 8160 <handle_timeout>
    3f36:	48 89 8d a0 fe ff ff 	mov    QWORD PTR [rbp-0x160],rcx
    3f3d:	e8 2e f2 ff ff       	call   3170 <sigaction@plt>
    3f42:	48 8d 35 87 24 00 00 	lea    rsi,[rip+0x2487]        # 63d0 <handle_resize>
    3f49:	31 d2                	xor    edx,edx
    3f4b:	bf 1c 00 00 00       	mov    edi,0x1c
    3f50:	48 89 b5 a0 fe ff ff 	mov    QWORD PTR [rbp-0x160],rsi
    3f57:	4c 89 fe             	mov    rsi,r15
    3f5a:	e8 11 f2 ff ff       	call   3170 <sigaction@plt>
    3f5f:	48 8d 3d 4a 24 00 00 	lea    rdi,[rip+0x244a]        # 63b0 <handle_skipreq>
    3f66:	31 d2                	xor    edx,edx
    3f68:	4c 89 fe             	mov    rsi,r15
    3f6b:	48 89 bd a0 fe ff ff 	mov    QWORD PTR [rbp-0x160],rdi
    3f72:	bf 0a 00 00 00       	mov    edi,0xa
    3f77:	e8 f4 f1 ff ff       	call   3170 <sigaction@plt>
    3f7c:	31 d2                	xor    edx,edx
    3f7e:	4c 89 fe             	mov    rsi,r15
    3f81:	bf 14 00 00 00       	mov    edi,0x14
    3f86:	48 c7 85 a0 fe ff ff 	mov    QWORD PTR [rbp-0x160],0x1
    3f8d:	01 00 00 00 
    3f91:	e8 da f1 ff ff       	call   3170 <sigaction@plt>
    3f96:	31 d2                	xor    edx,edx
    3f98:	4c 89 fe             	mov    rsi,r15
    3f9b:	bf 0d 00 00 00       	mov    edi,0xd
    3fa0:	e8 cb f1 ff ff       	call   3170 <sigaction@plt>
    3fa5:	48 8d 3d 9c 31 01 00 	lea    rdi,[rip+0x1319c]        # 17148 <_IO_stdin_used+0x148>
    3fac:	e8 8f f0 ff ff       	call   3040 <getenv@plt>
    3fb1:	49 89 c5             	mov    r13,rax
    3fb4:	48 85 c0             	test   rax,rax
    3fb7:	74 30                	je     3fe9 <main+0x7a9>
    3fb9:	48 8d 35 e5 37 01 00 	lea    rsi,[rip+0x137e5]        # 177a5 <_IO_stdin_used+0x7a5>
    3fc0:	48 89 c7             	mov    rdi,rax
    3fc3:	e8 d8 f7 ff ff       	call   37a0 <strstr@plt>
    3fc8:	48 85 c0             	test   rax,rax
    3fcb:	0f 84 fc 20 00 00    	je     60cd <main+0x288d>
    3fd1:	48 8d 35 de 37 01 00 	lea    rsi,[rip+0x137de]        # 177b6 <_IO_stdin_used+0x7b6>
    3fd8:	4c 89 ef             	mov    rdi,r13
    3fdb:	e8 c0 f7 ff ff       	call   37a0 <strstr@plt>
    3fe0:	48 85 c0             	test   rax,rax
    3fe3:	0f 84 ba 20 00 00    	je     60a3 <main+0x2863>
    3fe9:	48 8d 3d 65 31 01 00 	lea    rdi,[rip+0x13165]        # 17155 <_IO_stdin_used+0x155>
    3ff0:	e8 4b f0 ff ff       	call   3040 <getenv@plt>
    3ff5:	49 89 c7             	mov    r15,rax
    3ff8:	48 85 c0             	test   rax,rax
    3ffb:	74 30                	je     402d <main+0x7ed>
    3ffd:	48 8d 35 be 37 01 00 	lea    rsi,[rip+0x137be]        # 177c2 <_IO_stdin_used+0x7c2>
    4004:	48 89 c7             	mov    rdi,rax
    4007:	e8 94 f7 ff ff       	call   37a0 <strstr@plt>
    400c:	48 85 c0             	test   rax,rax
    400f:	0f 84 0c 21 00 00    	je     6121 <main+0x28e1>
    4015:	48 8d 35 9a 37 01 00 	lea    rsi,[rip+0x1379a]        # 177b6 <_IO_stdin_used+0x7b6>
    401c:	4c 89 ff             	mov    rdi,r15
    401f:	e8 7c f7 ff ff       	call   37a0 <strstr@plt>
    4024:	48 85 c0             	test   rax,rax
    4027:	0f 84 ca 20 00 00    	je     60f7 <main+0x28b7>
    402d:	4c 8b 05 cc 89 10 00 	mov    r8,QWORD PTR [rip+0x1089cc]        # 10ca00 <sync_id>
    4034:	4c 89 85 58 fe ff ff 	mov    QWORD PTR [rbp-0x1a8],r8
    403b:	4d 85 c0             	test   r8,r8
    403e:	0f 84 5e 01 00 00    	je     41a2 <main+0x962>
    4044:	80 3d 82 89 10 00 00 	cmp    BYTE PTR [rip+0x108982],0x0        # 10c9cd <dumb_mode>
    404b:	0f 85 cf 1f 00 00    	jne    6020 <main+0x27e0>
    4051:	80 3d 78 89 10 00 00 	cmp    BYTE PTR [rip+0x108978],0x0        # 10c9d0 <skip_deterministic>
    4058:	74 57                	je     40b1 <main+0x871>
    405a:	80 3d 6e 89 10 00 00 	cmp    BYTE PTR [rip+0x10896e],0x0        # 10c9cf <force_deterministic>
    4061:	0f 84 38 05 00 00    	je     459f <main+0xd5f>
    4067:	48 8d 35 c2 8e 01 00 	lea    rsi,[rip+0x18ec2]        # 1cf30 <_IO_stdin_used+0x5f30>
    406e:	bf 01 00 00 00       	mov    edi,0x1
    4073:	31 c0                	xor    eax,eax
    4075:	e8 f6 f4 ff ff       	call   3570 <__printf_chk@plt>
    407a:	41 b8 30 1d 00 00    	mov    r8d,0x1d30
    4080:	48 8d 0d b6 30 01 00 	lea    rcx,[rip+0x130b6]        # 1713d <_IO_stdin_used+0x13d>
    4087:	48 8d 15 1a a8 01 00 	lea    rdx,[rip+0x1a81a]        # 1e8a8 <__FUNCTION__.80>
    408e:	e9 fa fc ff ff       	jmp    3d8d <main+0x54d>
    4093:	48 8d 35 8e 86 01 00 	lea    rsi,[rip+0x1868e]        # 1c728 <_IO_stdin_used+0x5728>
    409a:	bf 01 00 00 00       	mov    edi,0x1
    409f:	31 c0                	xor    eax,eax
    40a1:	e8 ca f4 ff ff       	call   3570 <__printf_chk@plt>
    40a6:	41 b8 6f 1e 00 00    	mov    r8d,0x1e6f
    40ac:	e9 c0 fa ff ff       	jmp    3b71 <main+0x331>
    40b1:	4c 8b ad 58 fe ff ff 	mov    r13,QWORD PTR [rbp-0x1a8]
    40b8:	eb 2d                	jmp    40e7 <main+0x8a7>
    40ba:	e8 41 f7 ff ff       	call   3800 <__ctype_b_loc@plt>
    40bf:	45 0f b6 d7          	movzx  r10d,r15b
    40c3:	48 8b 38             	mov    rdi,QWORD PTR [rax]
    40c6:	42 f6 04 57 08       	test   BYTE PTR [rdi+r10*2],0x8
    40cb:	75 16                	jne    40e3 <main+0x8a3>
    40cd:	41 80 ff 5f          	cmp    r15b,0x5f
    40d1:	0f 95 c1             	setne  cl
    40d4:	41 80 ff 2d          	cmp    r15b,0x2d
    40d8:	0f 95 c0             	setne  al
    40db:	84 c1                	test   cl,al
    40dd:	0f 85 68 20 00 00    	jne    614b <main+0x290b>
    40e3:	49 83 c5 01          	add    r13,0x1
    40e7:	45 0f b6 7d 00       	movzx  r15d,BYTE PTR [r13+0x0]
    40ec:	45 84 ff             	test   r15b,r15b
    40ef:	75 c9                	jne    40ba <main+0x87a>
    40f1:	48 8b bd 58 fe ff ff 	mov    rdi,QWORD PTR [rbp-0x1a8]
    40f8:	e8 33 f1 ff ff       	call   3230 <strlen@plt>
    40fd:	48 83 f8 20          	cmp    rax,0x20
    4101:	0f 87 b6 20 00 00    	ja     61bd <main+0x297d>
    4107:	56                   	push   rsi
    4108:	4c 8d 05 94 34 01 00 	lea    r8,[rip+0x13494]        # 175a3 <_IO_stdin_used+0x5a3>
    410f:	31 ff                	xor    edi,edi
    4111:	4d 89 f1             	mov    r9,r14
    4114:	ff b5 58 fe ff ff    	push   QWORD PTR [rbp-0x1a8]
    411a:	48 83 c9 ff          	or     rcx,0xffffffffffffffff
    411e:	31 f6                	xor    esi,esi
    4120:	31 c0                	xor    eax,eax
    4122:	ba 01 00 00 00       	mov    edx,0x1
    4127:	e8 24 ef ff ff       	call   3050 <__snprintf_chk@plt>
    412c:	5f                   	pop    rdi
    412d:	41 58                	pop    r8
    412f:	41 89 c5             	mov    r13d,eax
    4132:	85 c0                	test   eax,eax
    4134:	0f 88 fb 14 00 00    	js     5635 <main+0x1df5>
    413a:	41 83 c5 01          	add    r13d,0x1
    413e:	44 89 ef             	mov    edi,r13d
    4141:	e8 1a 4b 00 00       	call   8c60 <DFL_ck_alloc>
    4146:	4c 8b 0d c3 88 10 00 	mov    r9,QWORD PTR [rip+0x1088c3]        # 10ca10 <out_dir>
    414d:	48 83 c9 ff          	or     rcx,0xffffffffffffffff
    4151:	49 63 f5             	movsxd rsi,r13d
    4154:	49 89 c6             	mov    r14,rax
    4157:	50                   	push   rax
    4158:	ba 01 00 00 00       	mov    edx,0x1
    415d:	31 c0                	xor    eax,eax
    415f:	ff 35 9b 88 10 00    	push   QWORD PTR [rip+0x10889b]        # 10ca00 <sync_id>
    4165:	4c 8d 05 37 34 01 00 	lea    r8,[rip+0x13437]        # 175a3 <_IO_stdin_used+0x5a3>
    416c:	4c 89 f7             	mov    rdi,r14
    416f:	e8 dc ee ff ff       	call   3050 <__snprintf_chk@plt>
    4174:	4c 8b 0d 95 88 10 00 	mov    r9,QWORD PTR [rip+0x108895]        # 10ca10 <out_dir>
    417b:	5a                   	pop    rdx
    417c:	4c 89 35 8d 88 10 00 	mov    QWORD PTR [rip+0x10888d],r14        # 10ca10 <out_dir>
    4183:	80 3d 45 88 10 00 00 	cmp    BYTE PTR [rip+0x108845],0x0        # 10c9cf <force_deterministic>
    418a:	59                   	pop    rcx
    418b:	4c 89 0d 76 88 10 00 	mov    QWORD PTR [rip+0x108876],r9        # 10ca08 <sync_dir>
    4192:	75 0e                	jne    41a2 <main+0x962>
    4194:	c6 05 35 88 10 00 01 	mov    BYTE PTR [rip+0x108835],0x1        # 10c9d0 <skip_deterministic>
    419b:	c6 05 2c 88 10 00 01 	mov    BYTE PTR [rip+0x10882c],0x1        # 10c9ce <use_splicing>
    41a2:	48 8b 35 67 88 10 00 	mov    rsi,QWORD PTR [rip+0x108867]        # 10ca10 <out_dir>
    41a9:	48 8b 3d 70 88 10 00 	mov    rdi,QWORD PTR [rip+0x108870]        # 10ca20 <in_dir>
    41b0:	e8 fb f1 ff ff       	call   33b0 <strcmp@plt>
    41b5:	85 c0                	test   eax,eax
    41b7:	0f 84 c8 01 00 00    	je     4385 <main+0xb45>
    41bd:	44 0f b6 3d 08 88 10 	movzx  r15d,BYTE PTR [rip+0x108808]        # 10c9cd <dumb_mode>
    41c4:	00 
    41c5:	45 84 ff             	test   r15b,r15b
    41c8:	74 1a                	je     41e4 <main+0x9a4>
    41ca:	80 3d f2 87 10 00 00 	cmp    BYTE PTR [rip+0x1087f2],0x0        # 10c9c3 <crash_mode>
    41d1:	0f 85 aa 03 00 00    	jne    4581 <main+0xd41>
    41d7:	80 3d df 87 10 00 00 	cmp    BYTE PTR [rip+0x1087df],0x0        # 10c9bd <qemu_mode>
    41de:	0f 85 3f 04 00 00    	jne    4623 <main+0xde3>
    41e4:	48 8d 3d e4 35 01 00 	lea    rdi,[rip+0x135e4]        # 177cf <_IO_stdin_used+0x7cf>
    41eb:	e8 50 ee ff ff       	call   3040 <getenv@plt>
    41f0:	48 85 c0             	test   rax,rax
    41f3:	74 07                	je     41fc <main+0x9bc>
    41f5:	c6 05 c8 87 10 00 01 	mov    BYTE PTR [rip+0x1087c8],0x1        # 10c9c4 <no_forkserver>
    41fc:	48 8d 3d db 35 01 00 	lea    rdi,[rip+0x135db]        # 177de <_IO_stdin_used+0x7de>
    4203:	e8 38 ee ff ff       	call   3040 <getenv@plt>
    4208:	48 85 c0             	test   rax,rax
    420b:	74 07                	je     4214 <main+0x9d4>
    420d:	c6 05 ac 87 10 00 01 	mov    BYTE PTR [rip+0x1087ac],0x1        # 10c9c0 <no_cpu_meter_red>
    4214:	48 8d 3d d2 35 01 00 	lea    rdi,[rip+0x135d2]        # 177ed <_IO_stdin_used+0x7ed>
    421b:	e8 20 ee ff ff       	call   3040 <getenv@plt>
    4220:	48 85 c0             	test   rax,rax
    4223:	74 07                	je     422c <main+0x9ec>
    4225:	c6 05 93 87 10 00 01 	mov    BYTE PTR [rip+0x108793],0x1        # 10c9bf <no_arith>
    422c:	48 8d 3d c7 35 01 00 	lea    rdi,[rip+0x135c7]        # 177fa <_IO_stdin_used+0x7fa>
    4233:	e8 08 ee ff ff       	call   3040 <getenv@plt>
    4238:	48 85 c0             	test   rax,rax
    423b:	74 07                	je     4244 <main+0xa04>
    423d:	c6 05 7a 87 10 00 01 	mov    BYTE PTR [rip+0x10877a],0x1        # 10c9be <shuffle_queue>
    4244:	48 8d 3d c1 35 01 00 	lea    rdi,[rip+0x135c1]        # 1780c <_IO_stdin_used+0x80c>
    424b:	e8 f0 ed ff ff       	call   3040 <getenv@plt>
    4250:	48 85 c0             	test   rax,rax
    4253:	74 07                	je     425c <main+0xa1c>
    4255:	c6 05 5c 87 10 00 01 	mov    BYTE PTR [rip+0x10875c],0x1        # 10c9b8 <fast_cal>
    425c:	48 8d 3d b6 35 01 00 	lea    rdi,[rip+0x135b6]        # 17819 <_IO_stdin_used+0x819>
    4263:	e8 d8 ed ff ff       	call   3040 <getenv@plt>
    4268:	48 85 c0             	test   rax,rax
    426b:	74 29                	je     4296 <main+0xa56>
    426d:	48 8d 3d a5 35 01 00 	lea    rdi,[rip+0x135a5]        # 17819 <_IO_stdin_used+0x819>
    4274:	e8 c7 ed ff ff       	call   3040 <getenv@plt>
    4279:	ba 0a 00 00 00       	mov    edx,0xa
    427e:	31 f6                	xor    esi,esi
    4280:	48 89 c7             	mov    rdi,rax
    4283:	e8 98 f1 ff ff       	call   3420 <strtol@plt>
    4288:	89 05 b2 3d 02 00    	mov    DWORD PTR [rip+0x23db2],eax        # 28040 <hang_tmout>
    428e:	85 c0                	test   eax,eax
    4290:	0f 84 53 03 00 00    	je     45e9 <main+0xda9>
    4296:	41 80 ff 02          	cmp    r15b,0x2
    429a:	75 0d                	jne    42a9 <main+0xa69>
    429c:	80 3d 21 87 10 00 00 	cmp    BYTE PTR [rip+0x108721],0x0        # 10c9c4 <no_forkserver>
    42a3:	0f 85 5c 03 00 00    	jne    4605 <main+0xdc5>
    42a9:	4c 8d 2d 78 35 01 00 	lea    r13,[rip+0x13578]        # 17828 <_IO_stdin_used+0x828>
    42b0:	4c 89 ef             	mov    rdi,r13
    42b3:	e8 88 ed ff ff       	call   3040 <getenv@plt>
    42b8:	48 85 c0             	test   rax,rax
    42bb:	74 38                	je     42f5 <main+0xab5>
    42bd:	4c 89 ef             	mov    rdi,r13
    42c0:	e8 7b ed ff ff       	call   3040 <getenv@plt>
    42c5:	ba 01 00 00 00       	mov    edx,0x1
    42ca:	48 8d 3d 7d 35 01 00 	lea    rdi,[rip+0x1357d]        # 1784e <_IO_stdin_used+0x84e>
    42d1:	48 89 c6             	mov    rsi,rax
    42d4:	e8 b7 ee ff ff       	call   3190 <setenv@plt>
    42d9:	4c 89 ef             	mov    rdi,r13
    42dc:	e8 5f ed ff ff       	call   3040 <getenv@plt>
    42e1:	ba 01 00 00 00       	mov    edx,0x1
    42e6:	48 8d 3d 47 35 01 00 	lea    rdi,[rip+0x13547]        # 17834 <_IO_stdin_used+0x834>
    42ed:	48 89 c6             	mov    rsi,rax
    42f0:	e8 9b ee ff ff       	call   3190 <setenv@plt>
    42f5:	48 8d 3d 4e 35 01 00 	lea    rdi,[rip+0x1354e]        # 1784a <_IO_stdin_used+0x84a>
    42fc:	e8 3f ed ff ff       	call   3040 <getenv@plt>
    4301:	48 89 85 58 fe ff ff 	mov    QWORD PTR [rbp-0x1a8],rax
    4308:	48 85 c0             	test   rax,rax
    430b:	0f 84 4e 03 00 00    	je     465f <main+0xe1f>
    4311:	48 8d 35 38 8f 01 00 	lea    rsi,[rip+0x18f38]        # 1d250 <_IO_stdin_used+0x6250>
    4318:	bf 01 00 00 00       	mov    edi,0x1
    431d:	31 c0                	xor    eax,eax
    431f:	e8 4c f2 ff ff       	call   3570 <__printf_chk@plt>
    4324:	41 b8 33 1f 00 00    	mov    r8d,0x1f33
    432a:	e9 42 f8 ff ff       	jmp    3b71 <main+0x331>
    432f:	48 8d 35 82 86 01 00 	lea    rsi,[rip+0x18682]        # 1c9b8 <_IO_stdin_used+0x59b8>
    4336:	bf 01 00 00 00       	mov    edi,0x1
    433b:	31 c0                	xor    eax,eax
    433d:	e8 2e f2 ff ff       	call   3570 <__printf_chk@plt>
    4342:	41 b8 b4 1e 00 00    	mov    r8d,0x1eb4
    4348:	e9 24 f8 ff ff       	jmp    3b71 <main+0x331>
    434d:	48 c1 25 e3 3c 02 00 	shl    QWORD PTR [rip+0x23ce3],0xa        # 28038 <mem_limit>
    4354:	0a 
    4355:	e9 af fa ff ff       	jmp    3e09 <main+0x5c9>
    435a:	48 c1 25 d6 3c 02 00 	shl    QWORD PTR [rip+0x23cd6],0x14        # 28038 <mem_limit>
    4361:	14 
    4362:	e9 a2 fa ff ff       	jmp    3e09 <main+0x5c9>
    4367:	48 8d 35 12 85 01 00 	lea    rsi,[rip+0x18512]        # 1c880 <_IO_stdin_used+0x5880>
    436e:	bf 01 00 00 00       	mov    edi,0x1
    4373:	31 c0                	xor    eax,eax
    4375:	e8 f6 f1 ff ff       	call   3570 <__printf_chk@plt>
    437a:	41 b8 92 1e 00 00    	mov    r8d,0x1e92
    4380:	e9 ec f7 ff ff       	jmp    3b71 <main+0x331>
    4385:	48 8d 35 ec 8c 01 00 	lea    rsi,[rip+0x18cec]        # 1d078 <_IO_stdin_used+0x6078>
    438c:	bf 01 00 00 00       	mov    edi,0x1
    4391:	e8 da f1 ff ff       	call   3570 <__printf_chk@plt>
    4396:	41 b8 16 1f 00 00    	mov    r8d,0x1f16
    439c:	e9 d0 f7 ff ff       	jmp    3b71 <main+0x331>
    43a1:	48 8d 35 b8 87 01 00 	lea    rsi,[rip+0x187b8]        # 1cb60 <_IO_stdin_used+0x5b60>
    43a8:	bf 01 00 00 00       	mov    edi,0x1
    43ad:	31 c0                	xor    eax,eax
    43af:	e8 bc f1 ff ff       	call   3570 <__printf_chk@plt>
    43b4:	41 b8 e1 1e 00 00    	mov    r8d,0x1ee1
    43ba:	e9 b2 f7 ff ff       	jmp    3b71 <main+0x331>
    43bf:	48 8d 35 02 85 01 00 	lea    rsi,[rip+0x18502]        # 1c8c8 <_IO_stdin_used+0x58c8>
    43c6:	bf 01 00 00 00       	mov    edi,0x1
    43cb:	31 c0                	xor    eax,eax
    43cd:	e8 9e f1 ff ff       	call   3570 <__printf_chk@plt>
    43d2:	41 b8 94 1e 00 00    	mov    r8d,0x1e94
    43d8:	e9 94 f7 ff ff       	jmp    3b71 <main+0x331>
    43dd:	48 8d 35 24 87 01 00 	lea    rsi,[rip+0x18724]        # 1cb08 <_IO_stdin_used+0x5b08>
    43e4:	bf 01 00 00 00       	mov    edi,0x1
    43e9:	31 c0                	xor    eax,eax
    43eb:	e8 80 f1 ff ff       	call   3570 <__printf_chk@plt>
    43f0:	41 b8 cf 1e 00 00    	mov    r8d,0x1ecf
    43f6:	e9 76 f7 ff ff       	jmp    3b71 <main+0x331>
    43fb:	48 8d 35 66 86 01 00 	lea    rsi,[rip+0x18666]        # 1ca68 <_IO_stdin_used+0x5a68>
    4402:	bf 01 00 00 00       	mov    edi,0x1
    4407:	31 c0                	xor    eax,eax
    4409:	e8 62 f1 ff ff       	call   3570 <__printf_chk@plt>
    440e:	41 b8 c3 1e 00 00    	mov    r8d,0x1ec3
    4414:	e9 58 f7 ff ff       	jmp    3b71 <main+0x331>
    4419:	48 8d 35 f8 81 01 00 	lea    rsi,[rip+0x181f8]        # 1c618 <_IO_stdin_used+0x5618>
    4420:	bf 01 00 00 00       	mov    edi,0x1
    4425:	31 c0                	xor    eax,eax
    4427:	e8 44 f1 ff ff       	call   3570 <__printf_chk@plt>
    442c:	41 b8 55 1e 00 00    	mov    r8d,0x1e55
    4432:	e9 3a f7 ff ff       	jmp    3b71 <main+0x331>
    4437:	48 8d 35 2a 88 01 00 	lea    rsi,[rip+0x1882a]        # 1cc68 <_IO_stdin_used+0x5c68>
    443e:	bf 01 00 00 00       	mov    edi,0x1
    4443:	31 c0                	xor    eax,eax
    4445:	e8 26 f1 ff ff       	call   3570 <__printf_chk@plt>
    444a:	41 b8 f6 1e 00 00    	mov    r8d,0x1ef6
    4450:	e9 1c f7 ff ff       	jmp    3b71 <main+0x331>
    4455:	48 8d 35 74 83 01 00 	lea    rsi,[rip+0x18374]        # 1c7d0 <_IO_stdin_used+0x57d0>
    445c:	bf 01 00 00 00       	mov    edi,0x1
    4461:	31 c0                	xor    eax,eax
    4463:	e8 08 f1 ff ff       	call   3570 <__printf_chk@plt>
    4468:	41 b8 87 1e 00 00    	mov    r8d,0x1e87
    446e:	e9 fe f6 ff ff       	jmp    3b71 <main+0x331>
    4473:	48 8d 35 ae 83 01 00 	lea    rsi,[rip+0x183ae]        # 1c828 <_IO_stdin_used+0x5828>
    447a:	bf 01 00 00 00       	mov    edi,0x1
    447f:	31 c0                	xor    eax,eax
    4481:	e8 ea f0 ff ff       	call   3570 <__printf_chk@plt>
    4486:	41 b8 8f 1e 00 00    	mov    r8d,0x1e8f
    448c:	e9 e0 f6 ff ff       	jmp    3b71 <main+0x331>
    4491:	48 8d 35 20 87 01 00 	lea    rsi,[rip+0x18720]        # 1cbb8 <_IO_stdin_used+0x5bb8>
    4498:	bf 01 00 00 00       	mov    edi,0x1
    449d:	31 c0                	xor    eax,eax
    449f:	e8 cc f0 ff ff       	call   3570 <__printf_chk@plt>
    44a4:	41 b8 e9 1e 00 00    	mov    r8d,0x1ee9
    44aa:	e9 c2 f6 ff ff       	jmp    3b71 <main+0x331>
    44af:	48 8d 35 62 84 01 00 	lea    rsi,[rip+0x18462]        # 1c918 <_IO_stdin_used+0x5918>
    44b6:	bf 01 00 00 00       	mov    edi,0x1
    44bb:	31 c0                	xor    eax,eax
    44bd:	e8 ae f0 ff ff       	call   3570 <__printf_chk@plt>
    44c2:	41 b8 a0 1e 00 00    	mov    r8d,0x1ea0
    44c8:	e9 a4 f6 ff ff       	jmp    3b71 <main+0x331>
    44cd:	48 8d 35 f4 81 01 00 	lea    rsi,[rip+0x181f4]        # 1c6c8 <_IO_stdin_used+0x56c8>
    44d4:	bf 01 00 00 00       	mov    edi,0x1
    44d9:	31 c0                	xor    eax,eax
    44db:	e8 90 f0 ff ff       	call   3570 <__printf_chk@plt>
    44e0:	41 b8 7b 1e 00 00    	mov    r8d,0x1e7b
    44e6:	e9 86 f6 ff ff       	jmp    3b71 <main+0x331>
    44eb:	48 8d 35 ce 87 01 00 	lea    rsi,[rip+0x187ce]        # 1ccc0 <_IO_stdin_used+0x5cc0>
    44f2:	bf 01 00 00 00       	mov    edi,0x1
    44f7:	31 c0                	xor    eax,eax
    44f9:	e8 72 f0 ff ff       	call   3570 <__printf_chk@plt>
    44fe:	41 b8 fc 1e 00 00    	mov    r8d,0x1efc
    4504:	e9 68 f6 ff ff       	jmp    3b71 <main+0x331>
    4509:	48 8d 35 60 81 01 00 	lea    rsi,[rip+0x18160]        # 1c670 <_IO_stdin_used+0x5670>
    4510:	bf 01 00 00 00       	mov    edi,0x1
    4515:	31 c0                	xor    eax,eax
    4517:	e8 54 f0 ff ff       	call   3570 <__printf_chk@plt>
    451c:	41 b8 5e 1e 00 00    	mov    r8d,0x1e5e
    4522:	e9 4a f6 ff ff       	jmp    3b71 <main+0x331>
    4527:	48 8d 35 e2 86 01 00 	lea    rsi,[rip+0x186e2]        # 1cc10 <_IO_stdin_used+0x5c10>
    452e:	bf 01 00 00 00       	mov    edi,0x1
    4533:	31 c0                	xor    eax,eax
    4535:	e8 36 f0 ff ff       	call   3570 <__printf_chk@plt>
    453a:	41 b8 ef 1e 00 00    	mov    r8d,0x1eef
    4540:	e9 2c f6 ff ff       	jmp    3b71 <main+0x331>
    4545:	48 8d 35 2c 82 01 00 	lea    rsi,[rip+0x1822c]        # 1c778 <_IO_stdin_used+0x5778>
    454c:	bf 01 00 00 00       	mov    edi,0x1
    4551:	31 c0                	xor    eax,eax
    4553:	e8 18 f0 ff ff       	call   3570 <__printf_chk@plt>
    4558:	41 b8 81 1e 00 00    	mov    r8d,0x1e81
    455e:	e9 0e f6 ff ff       	jmp    3b71 <main+0x331>
    4563:	48 8d 35 5e 81 01 00 	lea    rsi,[rip+0x1815e]        # 1c6c8 <_IO_stdin_used+0x56c8>
    456a:	bf 01 00 00 00       	mov    edi,0x1
    456f:	31 c0                	xor    eax,eax
    4571:	e8 fa ef ff ff       	call   3570 <__printf_chk@plt>
    4576:	41 b8 66 1e 00 00    	mov    r8d,0x1e66
    457c:	e9 f0 f5 ff ff       	jmp    3b71 <main+0x331>
    4581:	48 8d 35 50 8b 01 00 	lea    rsi,[rip+0x18b50]        # 1d0d8 <_IO_stdin_used+0x60d8>
    4588:	bf 01 00 00 00       	mov    edi,0x1
    458d:	31 c0                	xor    eax,eax
    458f:	e8 dc ef ff ff       	call   3570 <__printf_chk@plt>
    4594:	41 b8 1a 1f 00 00    	mov    r8d,0x1f1a
    459a:	e9 d2 f5 ff ff       	jmp    3b71 <main+0x331>
    459f:	48 8d 35 da 89 01 00 	lea    rsi,[rip+0x189da]        # 1cf80 <_IO_stdin_used+0x5f80>
    45a6:	bf 01 00 00 00       	mov    edi,0x1
    45ab:	31 c0                	xor    eax,eax
    45ad:	e8 be ef ff ff       	call   3570 <__printf_chk@plt>
    45b2:	41 b8 32 1d 00 00    	mov    r8d,0x1d32
    45b8:	48 8d 0d 7e 2b 01 00 	lea    rcx,[rip+0x12b7e]        # 1713d <_IO_stdin_used+0x13d>
    45bf:	48 8d 15 e2 a2 01 00 	lea    rdx,[rip+0x1a2e2]        # 1e8a8 <__FUNCTION__.80>
    45c6:	e9 c2 f7 ff ff       	jmp    3d8d <main+0x54d>
    45cb:	48 8d 35 9e 83 01 00 	lea    rsi,[rip+0x1839e]        # 1c970 <_IO_stdin_used+0x5970>
    45d2:	bf 01 00 00 00       	mov    edi,0x1
    45d7:	31 c0                	xor    eax,eax
    45d9:	e8 92 ef ff ff       	call   3570 <__printf_chk@plt>
    45de:	41 b8 ab 1e 00 00    	mov    r8d,0x1eab
    45e4:	e9 88 f5 ff ff       	jmp    3b71 <main+0x331>
    45e9:	48 8d 35 98 8b 01 00 	lea    rsi,[rip+0x18b98]        # 1d188 <_IO_stdin_used+0x6188>
    45f0:	bf 01 00 00 00       	mov    edi,0x1
    45f5:	e8 76 ef ff ff       	call   3570 <__printf_chk@plt>
    45fa:	41 b8 27 1f 00 00    	mov    r8d,0x1f27
    4600:	e9 6c f5 ff ff       	jmp    3b71 <main+0x331>
    4605:	48 8d 35 d4 8b 01 00 	lea    rsi,[rip+0x18bd4]        # 1d1e0 <_IO_stdin_used+0x61e0>
    460c:	bf 01 00 00 00       	mov    edi,0x1
    4611:	31 c0                	xor    eax,eax
    4613:	e8 58 ef ff ff       	call   3570 <__printf_chk@plt>
    4618:	41 b8 2b 1f 00 00    	mov    r8d,0x1f2b
    461e:	e9 4e f5 ff ff       	jmp    3b71 <main+0x331>
    4623:	48 8d 35 06 8b 01 00 	lea    rsi,[rip+0x18b06]        # 1d130 <_IO_stdin_used+0x6130>
    462a:	bf 01 00 00 00       	mov    edi,0x1
    462f:	31 c0                	xor    eax,eax
    4631:	e8 3a ef ff ff       	call   3570 <__printf_chk@plt>
    4636:	41 b8 1b 1f 00 00    	mov    r8d,0x1f1b
    463c:	e9 30 f5 ff ff       	jmp    3b71 <main+0x331>
    4641:	48 8d 35 d0 83 01 00 	lea    rsi,[rip+0x183d0]        # 1ca18 <_IO_stdin_used+0x5a18>
    4648:	bf 01 00 00 00       	mov    edi,0x1
    464d:	31 c0                	xor    eax,eax
    464f:	e8 1c ef ff ff       	call   3570 <__printf_chk@plt>
    4654:	41 b8 b8 1e 00 00    	mov    r8d,0x1eb8
    465a:	e9 12 f5 ff ff       	jmp    3b71 <main+0x331>
    465f:	45 31 ff             	xor    r15d,r15d
    4662:	41 be 01 00 00 00    	mov    r14d,0x1
    4668:	eb 12                	jmp    467c <main+0xe3c>
    466a:	4a 8b 3c fb          	mov    rdi,QWORD PTR [rbx+r15*8]
    466e:	49 83 c7 01          	add    r15,0x1
    4672:	e8 b9 eb ff ff       	call   3230 <strlen@plt>
    4677:	45 8d 74 06 01       	lea    r14d,[r14+rax*1+0x1]
    467c:	45 39 fc             	cmp    r12d,r15d
    467f:	77 e9                	ja     466a <main+0xe2a>
    4681:	44 89 f7             	mov    edi,r14d
    4684:	45 31 ff             	xor    r15d,r15d
    4687:	e8 d4 45 00 00       	call   8c60 <DFL_ck_alloc>
    468c:	45 8d 5c 24 ff       	lea    r11d,[r12-0x1]
    4691:	49 89 d9             	mov    r9,rbx
    4694:	44 89 e3             	mov    ebx,r12d
    4697:	48 89 05 3a 83 10 00 	mov    QWORD PTR [rip+0x10833a],rax        # 10c9d8 <orig_cmdline>
    469e:	49 89 c6             	mov    r14,rax
    46a1:	44 89 9d 50 fe ff ff 	mov    DWORD PTR [rbp-0x1b0],r11d
    46a8:	eb 43                	jmp    46ed <main+0xead>
    46aa:	4f 8b 24 f9          	mov    r12,QWORD PTR [r9+r15*8]
    46ae:	4c 89 8d 48 fe ff ff 	mov    QWORD PTR [rbp-0x1b8],r9
    46b5:	4c 89 e7             	mov    rdi,r12
    46b8:	e8 73 eb ff ff       	call   3230 <strlen@plt>
    46bd:	4c 89 f7             	mov    rdi,r14
    46c0:	4c 89 e6             	mov    rsi,r12
    46c3:	41 89 c5             	mov    r13d,eax
    46c6:	4c 89 ea             	mov    rdx,r13
    46c9:	4d 01 ee             	add    r14,r13
    46cc:	e8 6f ed ff ff       	call   3440 <memcpy@plt>
    46d1:	44 3b bd 50 fe ff ff 	cmp    r15d,DWORD PTR [rbp-0x1b0]
    46d8:	4c 8b 8d 48 fe ff ff 	mov    r9,QWORD PTR [rbp-0x1b8]
    46df:	74 08                	je     46e9 <main+0xea9>
    46e1:	41 c6 06 20          	mov    BYTE PTR [r14],0x20
    46e5:	49 83 c6 01          	add    r14,0x1
    46e9:	49 83 c7 01          	add    r15,0x1
    46ed:	44 39 fb             	cmp    ebx,r15d
    46f0:	77 b8                	ja     46aa <main+0xe6a>
    46f2:	48 83 3d fe 82 10 00 	cmp    QWORD PTR [rip+0x1082fe],0x0        # 10c9f8 <use_banner>
    46f9:	00 
    46fa:	41 89 dc             	mov    r12d,ebx
    46fd:	41 c6 06 00          	mov    BYTE PTR [r14],0x0
    4701:	4c 89 cb             	mov    rbx,r9
    4704:	0f 84 f3 18 00 00    	je     5ffd <main+0x27bd>
    470a:	48 8b 3d e7 82 10 00 	mov    rdi,QWORD PTR [rip+0x1082e7]        # 10c9f8 <use_banner>
    4711:	e8 1a eb ff ff       	call   3230 <strlen@plt>
    4716:	48 83 f8 28          	cmp    rax,0x28
    471a:	0f 87 58 18 00 00    	ja     5f78 <main+0x2738>
    4720:	48 8d 3d 3b 31 01 00 	lea    rdi,[rip+0x1313b]        # 17862 <_IO_stdin_used+0x862>
    4727:	e8 14 e9 ff ff       	call   3040 <getenv@plt>
    472c:	48 85 c0             	test   rax,rax
    472f:	0f 84 e7 17 00 00    	je     5f1c <main+0x26dc>
    4735:	48 8d 35 74 8b 01 00 	lea    rsi,[rip+0x18b74]        # 1d2b0 <_IO_stdin_used+0x62b0>
    473c:	bf 01 00 00 00       	mov    edi,0x1
    4741:	31 c0                	xor    eax,eax
    4743:	e8 28 ee ff ff       	call   3570 <__printf_chk@plt>
    4748:	4c 8d 2d 2d 2a 01 00 	lea    r13,[rip+0x12a2d]        # 1717c <_IO_stdin_used+0x17c>
    474f:	4c 89 ef             	mov    rdi,r13
    4752:	e8 f9 e9 ff ff       	call   3150 <puts@plt>
    4757:	c6 05 69 82 10 00 01 	mov    BYTE PTR [rip+0x108269],0x1        # 10c9c7 <not_on_tty>
    475e:	bf 54 00 00 00       	mov    edi,0x54
    4763:	e8 c8 ee ff ff       	call   3630 <sysconf@plt>
    4768:	89 05 fa 7e 0d 00    	mov    DWORD PTR [rip+0xd7efa],eax        # dc668 <cpu_core_count>
    476e:	85 c0                	test   eax,eax
    4770:	0f 8e 64 05 00 00    	jle    4cda <main+0x149a>
    4776:	e8 c5 1c 00 00       	call   6440 <get_runnable_processes>
    477b:	8b 15 e7 7e 0d 00    	mov    edx,DWORD PTR [rip+0xd7ee7]        # dc668 <cpu_core_count>
    4781:	c5 f0 57 c9          	vxorps xmm1,xmm1,xmm1
    4785:	48 8d 35 91 2b 01 00 	lea    rsi,[rip+0x12b91]        # 1731d <_IO_stdin_used+0x31d>
    478c:	c4 61 fb 2c f0       	vcvttsd2si r14,xmm0
    4791:	48 8d 0d 31 2f 01 00 	lea    rcx,[rip+0x12f31]        # 176c9 <_IO_stdin_used+0x6c9>
    4798:	bf 01 00 00 00       	mov    edi,0x1
    479d:	c5 f3 2a da          	vcvtsi2sd xmm3,xmm1,edx
    47a1:	83 fa 01             	cmp    edx,0x1
    47a4:	48 0f 4e ce          	cmovle rcx,rsi
    47a8:	48 8d 35 99 8b 01 00 	lea    rsi,[rip+0x18b99]        # 1d348 <_IO_stdin_used+0x6348>
    47af:	44 89 f0             	mov    eax,r14d
    47b2:	45 89 f0             	mov    r8d,r14d
    47b5:	c4 e1 f3 2a d0       	vcvtsi2sd xmm2,xmm1,rax
    47ba:	c5 eb 59 05 b6 a4 01 	vmulsd xmm0,xmm2,QWORD PTR [rip+0x1a4b6]        # 1ec78 <interesting_16+0xf8>
    47c1:	00 
    47c2:	b8 01 00 00 00       	mov    eax,0x1
    47c7:	c5 fb 11 95 50 fe ff 	vmovsd QWORD PTR [rbp-0x1b0],xmm2
    47ce:	ff 
    47cf:	c5 fb 5e c3          	vdivsd xmm0,xmm0,xmm3
    47d3:	e8 98 ed ff ff       	call   3570 <__printf_chk@plt>
    47d8:	4c 89 ef             	mov    rdi,r13
    47db:	e8 70 e9 ff ff       	call   3150 <puts@plt>
    47e0:	8b 0d 82 7e 0d 00    	mov    ecx,DWORD PTR [rip+0xd7e82]        # dc668 <cpu_core_count>
    47e6:	83 f9 01             	cmp    ecx,0x1
    47e9:	7e 36                	jle    4821 <main+0xfe1>
    47eb:	c5 d8 57 e4          	vxorps xmm4,xmm4,xmm4
    47ef:	c5 fb 10 bd 50 fe ff 	vmovsd xmm7,QWORD PTR [rbp-0x1b0]
    47f6:	ff 
    47f7:	48 8d 35 a2 8b 01 00 	lea    rsi,[rip+0x18ba2]        # 1d3a0 <_IO_stdin_used+0x63a0>
    47fe:	c5 db 2a e9          	vcvtsi2sd xmm5,xmm4,ecx
    4802:	c5 d3 59 35 c6 a4 01 	vmulsd xmm6,xmm5,QWORD PTR [rip+0x1a4c6]        # 1ecd0 <interesting_16+0x150>
    4809:	00 
    480a:	c5 f9 2f fe          	vcomisd xmm7,xmm6
    480e:	0f 87 d7 04 00 00    	ja     4ceb <main+0x14ab>
    4814:	41 83 c6 01          	add    r14d,0x1
    4818:	41 39 ce             	cmp    r14d,ecx
    481b:	0f 86 48 18 00 00    	jbe    6069 <main+0x2829>
    4821:	e8 3a 81 00 00       	call   c960 <bind_to_free_cpu>
    4826:	31 f6                	xor    esi,esi
    4828:	48 8d 3d 3d 30 01 00 	lea    rdi,[rip+0x1303d]        # 1786c <_IO_stdin_used+0x86c>
    482f:	31 c0                	xor    eax,eax
    4831:	e8 5a ed ff ff       	call   3590 <open64@plt>
    4836:	41 89 c7             	mov    r15d,eax
    4839:	85 c0                	test   eax,eax
    483b:	78 4a                	js     4887 <main+0x1047>
    483d:	48 8d 35 44 8c 01 00 	lea    rsi,[rip+0x18c44]        # 1d488 <_IO_stdin_used+0x6488>
    4844:	bf 01 00 00 00       	mov    edi,0x1
    4849:	31 c0                	xor    eax,eax
    484b:	e8 20 ed ff ff       	call   3570 <__printf_chk@plt>
    4850:	4c 89 ef             	mov    rdi,r13
    4853:	e8 f8 e8 ff ff       	call   3150 <puts@plt>
    4858:	48 8d b5 90 fe ff ff 	lea    rsi,[rbp-0x170]
    485f:	ba 01 00 00 00       	mov    edx,0x1
    4864:	44 89 ff             	mov    edi,r15d
    4867:	e8 04 eb ff ff       	call   3370 <read@plt>
    486c:	48 83 e8 01          	sub    rax,0x1
    4870:	75 0d                	jne    487f <main+0x103f>
    4872:	80 bd 90 fe ff ff 7c 	cmp    BYTE PTR [rbp-0x170],0x7c
    4879:	0f 84 33 17 00 00    	je     5fb2 <main+0x2772>
    487f:	44 89 ff             	mov    edi,r15d
    4882:	e8 99 ea ff ff       	call   3320 <close@plt>
    4887:	48 8d 3d fc 2f 01 00 	lea    rdi,[rip+0x12ffc]        # 1788a <_IO_stdin_used+0x88a>
    488e:	48 c7 85 78 fe ff ff 	mov    QWORD PTR [rbp-0x188],0x0
    4895:	00 00 00 00 
    4899:	48 c7 85 90 fe ff ff 	mov    QWORD PTR [rbp-0x170],0x0
    48a0:	00 00 00 00 
    48a4:	e8 97 e7 ff ff       	call   3040 <getenv@plt>
    48a9:	48 85 c0             	test   rax,rax
    48ac:	0f 84 ca 0d 00 00    	je     567c <main+0x1e3c>
    48b2:	48 8d 3d e7 2f 01 00 	lea    rdi,[rip+0x12fe7]        # 178a0 <_IO_stdin_used+0x8a0>
    48b9:	e8 82 e7 ff ff       	call   3040 <getenv@plt>
    48be:	c7 85 90 fe ff ff 06 	mov    DWORD PTR [rbp-0x170],0x6
    48c5:	00 00 00 
    48c8:	49 89 c7             	mov    r15,rax
    48cb:	48 85 c0             	test   rax,rax
    48ce:	74 7e                	je     494e <main+0x110e>
    48d0:	48 89 c2             	mov    rdx,rax
    48d3:	48 8d 35 1e 92 01 00 	lea    rsi,[rip+0x1921e]        # 1daf8 <_IO_stdin_used+0x6af8>
    48da:	bf 01 00 00 00       	mov    edi,0x1
    48df:	31 c0                	xor    eax,eax
    48e1:	e8 8a ec ff ff       	call   3570 <__printf_chk@plt>
    48e6:	4c 89 ef             	mov    rdi,r13
    48e9:	e8 62 e8 ff ff       	call   3150 <puts@plt>
    48ee:	4c 89 ff             	mov    rdi,r15
    48f1:	be 02 00 00 00       	mov    esi,0x2
    48f6:	e8 e5 ea ff ff       	call   33e0 <dlopen@plt>
    48fb:	48 89 c7             	mov    rdi,rax
    48fe:	48 85 c0             	test   rax,rax
    4901:	0f 84 59 0f 00 00    	je     5860 <main+0x2020>
    4907:	48 8d 35 a3 2f 01 00 	lea    rsi,[rip+0x12fa3]        # 178b1 <_IO_stdin_used+0x8b1>
    490e:	e8 5d ed ff ff       	call   3670 <dlsym@plt>
    4913:	48 89 05 e6 7c 05 00 	mov    QWORD PTR [rip+0x57ce6],rax        # 5c600 <post_handler>
    491a:	48 85 c0             	test   rax,rax
    491d:	0f 84 13 0f 00 00    	je     5836 <main+0x1ff6>
    4923:	48 8d b5 90 fe ff ff 	lea    rsi,[rbp-0x170]
    492a:	48 8d 3d 90 2f 01 00 	lea    rdi,[rip+0x12f90]        # 178c1 <_IO_stdin_used+0x8c1>
    4931:	ff d0                	call   rax
    4933:	bf 01 00 00 00       	mov    edi,0x1
    4938:	48 8d 35 81 92 01 00 	lea    rsi,[rip+0x19281]        # 1dbc0 <_IO_stdin_used+0x6bc0>
    493f:	31 c0                	xor    eax,eax
    4941:	e8 2a ec ff ff       	call   3570 <__printf_chk@plt>
    4946:	4c 89 ef             	mov    rdi,r13
    4949:	e8 02 e8 ff ff       	call   3150 <puts@plt>
    494e:	48 83 3d 9a 80 10 00 	cmp    QWORD PTR [rip+0x10809a],0x0        # 10c9f0 <in_bitmap>
    4955:	00 
    4956:	0f 84 05 0d 00 00    	je     5661 <main+0x1e21>
    495c:	ba 00 00 01 00       	mov    edx,0x10000
    4961:	be ff 00 00 00       	mov    esi,0xff
    4966:	48 8d 3d 33 80 0e 00 	lea    rdi,[rip+0xe8033]        # ec9a0 <virgin_tmout>
    496d:	e8 7e e9 ff ff       	call   32f0 <memset@plt>
    4972:	ba 00 00 01 00       	mov    edx,0x10000
    4977:	be ff 00 00 00       	mov    esi,0xff
    497c:	48 8d 3d 1d 80 0d 00 	lea    rdi,[rip+0xd801d]        # dc9a0 <virgin_crash>
    4983:	e8 68 e9 ff ff       	call   32f0 <memset@plt>
    4988:	ba 80 07 00 00       	mov    edx,0x780
    498d:	be 00 00 01 00       	mov    esi,0x10000
    4992:	31 ff                	xor    edi,edi
    4994:	e8 f7 ec ff ff       	call   3690 <shmget@plt>
    4999:	89 05 e1 7f 0d 00    	mov    DWORD PTR [rip+0xd7fe1],eax        # dc980 <shm_id>
    499f:	41 89 c6             	mov    r14d,eax
    49a2:	85 c0                	test   eax,eax
    49a4:	0f 88 03 0f 00 00    	js     58ad <main+0x206d>
    49aa:	48 8d 3d ef 1b 00 00 	lea    rdi,[rip+0x1bef]        # 65a0 <remove_shm>
    49b1:	e8 ea 1a 01 00       	call   164a0 <atexit>
    49b6:	45 89 f1             	mov    r9d,r14d
    49b9:	48 83 c9 ff          	or     rcx,0xffffffffffffffff
    49bd:	31 f6                	xor    esi,esi
    49bf:	4c 8d 05 77 2c 01 00 	lea    r8,[rip+0x12c77]        # 1763d <_IO_stdin_used+0x63d>
    49c6:	ba 01 00 00 00       	mov    edx,0x1
    49cb:	31 ff                	xor    edi,edi
    49cd:	31 c0                	xor    eax,eax
    49cf:	e8 7c e6 ff ff       	call   3050 <__snprintf_chk@plt>
    49d4:	44 8d 70 01          	lea    r14d,[rax+0x1]
    49d8:	44 89 f7             	mov    edi,r14d
    49db:	e8 80 42 00 00       	call   8c60 <DFL_ck_alloc>
    49e0:	44 8b 0d 99 7f 0d 00 	mov    r9d,DWORD PTR [rip+0xd7f99]        # dc980 <shm_id>
    49e7:	48 83 c9 ff          	or     rcx,0xffffffffffffffff
    49eb:	49 63 f6             	movsxd rsi,r14d
    49ee:	48 89 c7             	mov    rdi,rax
    49f1:	49 89 c7             	mov    r15,rax
    49f4:	ba 01 00 00 00       	mov    edx,0x1
    49f9:	31 c0                	xor    eax,eax
    49fb:	4c 8d 05 3b 2c 01 00 	lea    r8,[rip+0x12c3b]        # 1763d <_IO_stdin_used+0x63d>
    4a02:	e8 49 e6 ff ff       	call   3050 <__snprintf_chk@plt>
    4a07:	80 3d bf 7f 10 00 00 	cmp    BYTE PTR [rip+0x107fbf],0x0        # 10c9cd <dumb_mode>
    4a0e:	0f 84 80 0e 00 00    	je     5894 <main+0x2054>
    4a14:	4c 89 ff             	mov    rdi,r15
    4a17:	e8 74 38 00 00       	call   8290 <DFL_ck_free>
    4a1c:	8b 3d 5e 7f 0d 00    	mov    edi,DWORD PTR [rip+0xd7f5e]        # dc980 <shm_id>
    4a22:	31 d2                	xor    edx,edx
    4a24:	31 f6                	xor    esi,esi
    4a26:	e8 55 ec ff ff       	call   3680 <shmat@plt>
    4a2b:	48 89 05 6e 7f 10 00 	mov    QWORD PTR [rip+0x107f6e],rax        # 10c9a0 <trace_bits>
    4a32:	48 83 c0 01          	add    rax,0x1
    4a36:	0f 84 fa 12 00 00    	je     5d36 <main+0x24f6>
    4a3c:	48 8d 05 bd 7b 03 00 	lea    rax,[rip+0x37bbd]        # 3c600 <count_class_lookup16>
    4a43:	c5 7d 6f 05 b5 a2 01 	vmovdqa ymm8,YMMWORD PTR [rip+0x1a2b5]        # 1ed00 <interesting_16+0x180>
    4a4a:	00 
    4a4b:	4c 8d 15 ae 9e 01 00 	lea    r10,[rip+0x19eae]        # 1e900 <count_class_lookup8>
    4a52:	48 8d b0 00 00 02 00 	lea    rsi,[rax+0x20000]
    4a59:	41 0f b6 12          	movzx  edx,BYTE PTR [r10]
    4a5d:	48 05 00 02 00 00    	add    rax,0x200
    4a63:	49 83 c2 01          	add    r10,0x1
    4a67:	c1 e2 08             	shl    edx,0x8
    4a6a:	89 d1                	mov    ecx,edx
    4a6c:	89 d7                	mov    edi,edx
    4a6e:	c5 79 6e ca          	vmovd  xmm9,edx
    4a72:	80 ca 80             	or     dl,0x80
    4a75:	83 c9 20             	or     ecx,0x20
    4a78:	c4 42 7d 79 d1       	vpbroadcastw ymm10,xmm9
    4a7d:	c5 f9 6e ca          	vmovd  xmm1,edx
    4a81:	83 cf 40             	or     edi,0x40
    4a84:	c5 79 6e e1          	vmovd  xmm12,ecx
    4a88:	c5 79 6e f7          	vmovd  xmm14,edi
    4a8c:	c4 e2 7d 79 d1       	vpbroadcastw ymm2,xmm1
    4a91:	c4 42 7d 79 fe       	vpbroadcastw ymm15,xmm14
    4a96:	c4 41 2d eb d8       	vpor   ymm11,ymm10,ymm8
    4a9b:	c4 42 7d 79 ec       	vpbroadcastw ymm13,xmm12
    4aa0:	c5 fd 7f 90 00 ff ff 	vmovdqa YMMWORD PTR [rax-0x100],ymm2
    4aa7:	ff 
    4aa8:	c5 7d 7f 98 00 fe ff 	vmovdqa YMMWORD PTR [rax-0x200],ymm11
    4aaf:	ff 
    4ab0:	c5 7d 7f a8 20 fe ff 	vmovdqa YMMWORD PTR [rax-0x1e0],ymm13
    4ab7:	ff 
    4ab8:	c5 7d 7f b8 40 fe ff 	vmovdqa YMMWORD PTR [rax-0x1c0],ymm15
    4abf:	ff 
    4ac0:	c5 7d 7f b8 60 fe ff 	vmovdqa YMMWORD PTR [rax-0x1a0],ymm15
    4ac7:	ff 
    4ac8:	c5 7d 7f b8 80 fe ff 	vmovdqa YMMWORD PTR [rax-0x180],ymm15
    4acf:	ff 
    4ad0:	c5 7d 7f b8 a0 fe ff 	vmovdqa YMMWORD PTR [rax-0x160],ymm15
    4ad7:	ff 
    4ad8:	c5 7d 7f b8 c0 fe ff 	vmovdqa YMMWORD PTR [rax-0x140],ymm15
    4adf:	ff 
    4ae0:	c5 7d 7f b8 e0 fe ff 	vmovdqa YMMWORD PTR [rax-0x120],ymm15
    4ae7:	ff 
    4ae8:	c5 fd 7f 90 20 ff ff 	vmovdqa YMMWORD PTR [rax-0xe0],ymm2
    4aef:	ff 
    4af0:	c5 fd 7f 90 40 ff ff 	vmovdqa YMMWORD PTR [rax-0xc0],ymm2
    4af7:	ff 
    4af8:	c5 fd 7f 90 60 ff ff 	vmovdqa YMMWORD PTR [rax-0xa0],ymm2
    4aff:	ff 
    4b00:	c5 fd 7f 50 80       	vmovdqa YMMWORD PTR [rax-0x80],ymm2
    4b05:	c5 fd 7f 50 a0       	vmovdqa YMMWORD PTR [rax-0x60],ymm2
    4b0a:	c5 fd 7f 50 c0       	vmovdqa YMMWORD PTR [rax-0x40],ymm2
    4b0f:	c5 fd 7f 50 e0       	vmovdqa YMMWORD PTR [rax-0x20],ymm2
    4b14:	48 39 c6             	cmp    rsi,rax
    4b17:	0f 85 3c ff ff ff    	jne    4a59 <main+0x1219>
    4b1d:	c5 f8 77             	vzeroupper 
    4b20:	e8 bb 44 00 00       	call   8fe0 <setup_dirs_fds>
    4b25:	e8 56 68 00 00       	call   b380 <read_testcases>
    4b2a:	e8 c1 d9 00 00       	call   124f0 <load_auto>
    4b2f:	e8 2c 73 00 00       	call   be60 <pivot_inputs>
    4b34:	4c 8b 85 68 fe ff ff 	mov    r8,QWORD PTR [rbp-0x198]
    4b3b:	4d 85 c0             	test   r8,r8
    4b3e:	74 08                	je     4b48 <main+0x1308>
    4b40:	4c 89 c7             	mov    rdi,r8
    4b43:	e8 28 c5 00 00       	call   11070 <load_extras>
    4b48:	80 3d 7a 7e 10 00 00 	cmp    BYTE PTR [rip+0x107e7a],0x0        # 10c9c9 <timeout_given>
    4b4f:	0f 84 e8 10 00 00    	je     5c3d <main+0x23fd>
    4b55:	4c 63 15 2c 35 02 00 	movsxd r10,DWORD PTR [rip+0x2352c]        # 28088 <optind@GLIBC_2.2.5>
    4b5c:	4a 8d 7c d3 08       	lea    rdi,[rbx+r10*8+0x8]
    4b61:	e8 ba 5e 00 00       	call   aa20 <detect_file_args>
    4b66:	48 83 3d aa 7e 10 00 	cmp    QWORD PTR [rip+0x107eaa],0x0        # 10ca18 <out_file>
    4b6d:	00 
    4b6e:	0f 84 ab 0e 00 00    	je     5a1f <main+0x21df>
    4b74:	48 63 05 0d 35 02 00 	movsxd rax,DWORD PTR [rip+0x2350d]        # 28088 <optind@GLIBC_2.2.5>
    4b7b:	48 8b 3c c3          	mov    rdi,QWORD PTR [rbx+rax*8]
    4b7f:	e8 dc 83 00 00       	call   cf60 <check_binary>
    4b84:	48 8d b5 78 fe ff ff 	lea    rsi,[rbp-0x188]
    4b8b:	48 8d bd 90 fe ff ff 	lea    rdi,[rbp-0x170]
    4b92:	48 89 b5 50 fe ff ff 	mov    QWORD PTR [rbp-0x1b0],rsi
    4b99:	48 89 bd 48 fe ff ff 	mov    QWORD PTR [rbp-0x1b8],rdi
    4ba0:	e8 2b e7 ff ff       	call   32d0 <gettimeofday@plt>
    4ba5:	48 8b 85 98 fe ff ff 	mov    rax,QWORD PTR [rbp-0x168]
    4bac:	be e8 03 00 00       	mov    esi,0x3e8
    4bb1:	48 69 8d 90 fe ff ff 	imul   rcx,QWORD PTR [rbp-0x170],0x3e8
    4bb8:	e8 03 00 00 
    4bbc:	48 99                	cqo    
    4bbe:	48 f7 fe             	idiv   rsi
    4bc1:	48 01 c1             	add    rcx,rax
    4bc4:	80 3d f2 7d 10 00 00 	cmp    BYTE PTR [rip+0x107df2],0x0        # 10c9bd <qemu_mode>
    4bcb:	48 89 0d 3e 7d 0d 00 	mov    QWORD PTR [rip+0xd7d3e],rcx        # dc910 <start_time>
    4bd2:	0f 85 44 0d 00 00    	jne    591c <main+0x20dc>
    4bd8:	4c 63 25 a9 34 02 00 	movsxd r12,DWORD PTR [rip+0x234a9]        # 28088 <optind@GLIBC_2.2.5>
    4bdf:	4e 8d 3c e3          	lea    r15,[rbx+r12*8]
    4be3:	4c 8b 25 6e 7a 0d 00 	mov    r12,QWORD PTR [rip+0xd7a6e]        # dc658 <queue>
    4bea:	48 8d 3d 4b 2d 01 00 	lea    rdi,[rip+0x12d4b]        # 1793c <_IO_stdin_used+0x93c>
    4bf1:	e8 4a e4 ff ff       	call   3040 <getenv@plt>
    4bf6:	4d 85 e4             	test   r12,r12
    4bf9:	0f 84 41 01 00 00    	je     4d40 <main+0x1500>
    4bff:	49 8b 3c 24          	mov    rdi,QWORD PTR [r12]
    4c03:	be 2f 00 00 00       	mov    esi,0x2f
    4c08:	e8 a3 e6 ff ff       	call   32b0 <strrchr@plt>
    4c0d:	48 8d 35 04 93 01 00 	lea    rsi,[rip+0x19304]        # 1df18 <_IO_stdin_used+0x6f18>
    4c14:	bf 01 00 00 00       	mov    edi,0x1
    4c19:	48 8d 50 01          	lea    rdx,[rax+0x1]
    4c1d:	31 c0                	xor    eax,eax
    4c1f:	e8 4c e9 ff ff       	call   3570 <__printf_chk@plt>
    4c24:	4c 89 ef             	mov    rdi,r13
    4c27:	e8 24 e5 ff ff       	call   3150 <puts@plt>
    4c2c:	49 8b 3c 24          	mov    rdi,QWORD PTR [r12]
    4c30:	31 f6                	xor    esi,esi
    4c32:	31 c0                	xor    eax,eax
    4c34:	e8 57 e9 ff ff       	call   3590 <open64@plt>
    4c39:	41 89 c6             	mov    r14d,eax
    4c3c:	85 c0                	test   eax,eax
    4c3e:	0f 88 c0 00 00 00    	js     4d04 <main+0x14c4>
    4c44:	45 8b 6c 24 08       	mov    r13d,DWORD PTR [r12+0x8]
    4c49:	45 85 ed             	test   r13d,r13d
    4c4c:	74 3a                	je     4c88 <main+0x1448>
    4c4e:	41 81 fd 00 00 00 40 	cmp    r13d,0x40000000
    4c55:	0f 87 92 0c 00 00    	ja     58ed <main+0x20ad>
    4c5b:	41 8d 7d 09          	lea    edi,[r13+0x9]
    4c5f:	e8 7c e8 ff ff       	call   34e0 <malloc@plt>
    4c64:	48 85 c0             	test   rax,rax
    4c67:	0f 84 78 0c 00 00    	je     58e5 <main+0x20a5>
    4c6d:	48 8d 50 08          	lea    rdx,[rax+0x8]
    4c71:	c7 00 00 ff 00 ff    	mov    DWORD PTR [rax],0xff00ff00
    4c77:	44 89 68 04          	mov    DWORD PTR [rax+0x4],r13d
    4c7b:	48 89 95 58 fe ff ff 	mov    QWORD PTR [rbp-0x1a8],rdx
    4c82:	42 c6 44 28 08 f0    	mov    BYTE PTR [rax+r13*1+0x8],0xf0
    4c88:	41 8b 54 24 08       	mov    edx,DWORD PTR [r12+0x8]
    4c8d:	48 8b b5 58 fe ff ff 	mov    rsi,QWORD PTR [rbp-0x1a8]
    4c94:	44 89 f7             	mov    edi,r14d
    4c97:	e8 d4 e6 ff ff       	call   3370 <read@plt>
    4c9c:	45 8b 44 24 08       	mov    r8d,DWORD PTR [r12+0x8]
    4ca1:	4c 39 c0             	cmp    rax,r8
    4ca4:	0f 84 e6 13 00 00    	je     6090 <main+0x2850>
    4caa:	49 8b 14 24          	mov    rdx,QWORD PTR [r12]
    4cae:	48 8d 35 93 92 01 00 	lea    rsi,[rip+0x19293]        # 1df48 <_IO_stdin_used+0x6f48>
    4cb5:	bf 01 00 00 00       	mov    edi,0x1
    4cba:	31 c0                	xor    eax,eax
    4cbc:	e8 af e8 ff ff       	call   3570 <__printf_chk@plt>
    4cc1:	41 b8 a2 0a 00 00    	mov    r8d,0xaa2
    4cc7:	48 8d 0d 6f 24 01 00 	lea    rcx,[rip+0x1246f]        # 1713d <_IO_stdin_used+0x13d>
    4cce:	48 8d 15 9b 99 01 00 	lea    rdx,[rip+0x1999b]        # 1e670 <__FUNCTION__.49>
    4cd5:	e9 b3 f0 ff ff       	jmp    3d8d <main+0x54d>
    4cda:	c7 05 84 79 0d 00 00 	mov    DWORD PTR [rip+0xd7984],0x0        # dc668 <cpu_core_count>
    4ce1:	00 00 00 
    4ce4:	48 8d 35 4d 87 01 00 	lea    rsi,[rip+0x1874d]        # 1d438 <_IO_stdin_used+0x6438>
    4ceb:	bf 01 00 00 00       	mov    edi,0x1
    4cf0:	31 c0                	xor    eax,eax
    4cf2:	e8 79 e8 ff ff       	call   3570 <__printf_chk@plt>
    4cf7:	4c 89 ef             	mov    rdi,r13
    4cfa:	e8 51 e4 ff ff       	call   3150 <puts@plt>
    4cff:	e9 1d fb ff ff       	jmp    4821 <main+0xfe1>
    4d04:	48 8b 3d 75 33 02 00 	mov    rdi,QWORD PTR [rip+0x23375]        # 28080 <stdout@GLIBC_2.2.5>
    4d0b:	e8 e0 e7 ff ff       	call   34f0 <fflush@plt>
    4d10:	49 8b 14 24          	mov    rdx,QWORD PTR [r12]
    4d14:	bf 01 00 00 00       	mov    edi,0x1
    4d19:	31 c0                	xor    eax,eax
    4d1b:	48 8d 35 2e 38 01 00 	lea    rsi,[rip+0x1382e]        # 18550 <_IO_stdin_used+0x1550>
    4d22:	e8 49 e8 ff ff       	call   3570 <__printf_chk@plt>
    4d27:	41 b8 9d 0a 00 00    	mov    r8d,0xa9d
    4d2d:	48 8d 0d 09 24 01 00 	lea    rcx,[rip+0x12409]        # 1713d <_IO_stdin_used+0x13d>
    4d34:	48 8d 15 35 99 01 00 	lea    rdx,[rip+0x19935]        # 1e670 <__FUNCTION__.49>
    4d3b:	e9 23 f1 ff ff       	jmp    3e63 <main+0x623>
    4d40:	48 8d 35 49 92 01 00 	lea    rsi,[rip+0x19249]        # 1df90 <_IO_stdin_used+0x6f90>
    4d47:	bf 01 00 00 00       	mov    edi,0x1
    4d4c:	31 c0                	xor    eax,eax
    4d4e:	e8 1d e8 ff ff       	call   3570 <__printf_chk@plt>
    4d53:	4c 89 ef             	mov    rdi,r13
    4d56:	e8 f5 e3 ff ff       	call   3150 <puts@plt>
    4d5b:	80 3d 6b 7c 10 00 00 	cmp    BYTE PTR [rip+0x107c6b],0x0        # 10c9cd <dumb_mode>
    4d62:	75 0e                	jne    4d72 <main+0x1532>
    4d64:	80 3d 61 7c 10 00 00 	cmp    BYTE PTR [rip+0x107c61],0x0        # 10c9cc <score_changed>
    4d6b:	74 05                	je     4d72 <main+0x1532>
    4d6d:	e8 5e 61 00 00       	call   aed0 <cull_queue.part.0>
    4d72:	c4 41 31 ef c9       	vpxor  xmm9,xmm9,xmm9
    4d77:	48 8b 05 da 78 0d 00 	mov    rax,QWORD PTR [rip+0xd78da]        # dc658 <queue>
    4d7e:	45 31 e4             	xor    r12d,r12d
    4d81:	45 31 f6             	xor    r14d,r14d
    4d84:	c5 79 7e c9          	vmovd  ecx,xmm9
    4d88:	c5 79 7f cf          	vmovdqa xmm7,xmm9
    4d8c:	c5 79 7e 8d 68 fe ff 	vmovd  DWORD PTR [rbp-0x198],xmm9
    4d93:	ff 
    4d94:	c5 79 7f ce          	vmovdqa xmm6,xmm9
    4d98:	c5 79 7e cb          	vmovd  ebx,xmm9
    4d9c:	eb 3f                	jmp    4ddd <main+0x159d>
    4d9e:	49 39 fe             	cmp    r14,rdi
    4da1:	4c 0f 47 f7          	cmova  r14,rdi
    4da5:	49 39 fc             	cmp    r12,rdi
    4da8:	c5 f9 6e 68 14       	vmovd  xmm5,DWORD PTR [rax+0x14]
    4dad:	4c 0f 42 e7          	cmovb  r12,rdi
    4db1:	85 db                	test   ebx,ebx
    4db3:	74 3b                	je     4df0 <main+0x15b0>
    4db5:	c4 e2 49 3b f5       	vpminud xmm6,xmm6,xmm5
    4dba:	c5 f9 7e f3          	vmovd  ebx,xmm6
    4dbe:	c5 79 6e 40 08       	vmovd  xmm8,DWORD PTR [rax+0x8]
    4dc3:	c4 e2 41 3f fd       	vpmaxud xmm7,xmm7,xmm5
    4dc8:	48 8b 40 48          	mov    rax,QWORD PTR [rax+0x48]
    4dcc:	c4 42 31 3f c8       	vpmaxud xmm9,xmm9,xmm8
    4dd1:	c5 f9 7e bd 68 fe ff 	vmovd  DWORD PTR [rbp-0x198],xmm7
    4dd8:	ff 
    4dd9:	c5 79 7e c9          	vmovd  ecx,xmm9
    4ddd:	48 85 c0             	test   rax,rax
    4de0:	74 18                	je     4dfa <main+0x15ba>
    4de2:	48 8b 78 20          	mov    rdi,QWORD PTR [rax+0x20]
    4de6:	4d 85 f6             	test   r14,r14
    4de9:	75 b3                	jne    4d9e <main+0x155e>
    4deb:	49 89 fe             	mov    r14,rdi
    4dee:	eb b5                	jmp    4da5 <main+0x1565>
    4df0:	c5 f9 6f f5          	vmovdqa xmm6,xmm5
    4df4:	c5 f9 7e eb          	vmovd  ebx,xmm5
    4df8:	eb c4                	jmp    4dbe <main+0x157e>
    4dfa:	bf 0a 00 00 00       	mov    edi,0xa
    4dff:	89 8d 58 fe ff ff    	mov    DWORD PTR [rbp-0x1a8],ecx
    4e05:	e8 86 e2 ff ff       	call   3090 <putchar@plt>
    4e0a:	80 3d b9 7b 10 00 00 	cmp    BYTE PTR [rip+0x107bb9],0x0        # 10c9ca <resuming_fuzz>
    4e11:	75 3d                	jne    4e50 <main+0x1610>
    4e13:	8b bd 58 fe ff ff    	mov    edi,DWORD PTR [rbp-0x1a8]
    4e19:	81 ff 00 c8 00 00    	cmp    edi,0xc800
    4e1f:	0f 87 5b 10 00 00    	ja     5e80 <main+0x2640>
    4e25:	81 ff 00 28 00 00    	cmp    edi,0x2800
    4e2b:	0f 87 10 10 00 00    	ja     5e41 <main+0x2601>
    4e31:	8b 15 41 7b 0d 00    	mov    edx,DWORD PTR [rip+0xd7b41]        # dc978 <queued_paths>
    4e37:	48 8d 35 3a 92 01 00 	lea    rsi,[rip+0x1923a]        # 1e078 <_IO_stdin_used+0x7078>
    4e3e:	83 fa 64             	cmp    edx,0x64
    4e41:	0f 87 e1 0f 00 00    	ja     5e28 <main+0x25e8>
    4e47:	83 fa 14             	cmp    edx,0x14
    4e4a:	0f 87 d1 0f 00 00    	ja     5e21 <main+0x25e1>
    4e50:	31 ff                	xor    edi,edi
    4e52:	e8 39 1e 00 00       	call   6c90 <DI>
    4e57:	4c 89 e7             	mov    rdi,r12
    4e5a:	48 89 85 40 fe ff ff 	mov    QWORD PTR [rbp-0x1c0],rax
    4e61:	e8 2a 1e 00 00       	call   6c90 <DI>
    4e66:	4c 89 f7             	mov    rdi,r14
    4e69:	48 89 85 58 fe ff ff 	mov    QWORD PTR [rbp-0x1a8],rax
    4e70:	e8 1b 1e 00 00       	call   6c90 <DI>
    4e75:	4c 8b 8d 40 fe ff ff 	mov    r9,QWORD PTR [rbp-0x1c0]
    4e7c:	c5 f9 57 c0          	vxorpd xmm0,xmm0,xmm0
    4e80:	31 c9                	xor    ecx,ecx
    4e82:	4c 8b 9d 58 fe ff ff 	mov    r11,QWORD PTR [rbp-0x1a8]
    4e89:	44 8b 95 68 fe ff ff 	mov    r10d,DWORD PTR [rbp-0x198]
    4e90:	48 8d 35 a9 92 01 00 	lea    rsi,[rip+0x192a9]        # 1e140 <_IO_stdin_used+0x7140>
    4e97:	bf 01 00 00 00       	mov    edi,0x1
    4e9c:	44 8b 05 d5 7a 0d 00 	mov    r8d,DWORD PTR [rip+0xd7ad5]        # dc978 <queued_paths>
    4ea3:	8b 15 c3 7a 0d 00    	mov    edx,DWORD PTR [rip+0xd7ac3]        # dc96c <queued_favored>
    4ea9:	41 51                	push   r9
    4eab:	41 89 d9             	mov    r9d,ebx
    4eae:	41 53                	push   r11
    4eb0:	50                   	push   rax
    4eb1:	b8 01 00 00 00       	mov    eax,0x1
    4eb6:	41 52                	push   r10
    4eb8:	e8 b3 e6 ff ff       	call   3570 <__printf_chk@plt>
    4ebd:	48 83 c4 20          	add    rsp,0x20
    4ec1:	4c 89 ef             	mov    rdi,r13
    4ec4:	e8 87 e2 ff ff       	call   3150 <puts@plt>
    4ec9:	0f b6 1d f9 7a 10 00 	movzx  ebx,BYTE PTR [rip+0x107af9]        # 10c9c9 <timeout_given>
    4ed0:	84 db                	test   bl,bl
    4ed2:	0f 85 5e 06 00 00    	jne    5536 <main+0x1cf6>
    4ed8:	4c 89 e0             	mov    rax,r12
    4edb:	31 d2                	xor    edx,edx
    4edd:	41 be e8 03 00 00    	mov    r14d,0x3e8
    4ee3:	bf e8 03 00 00       	mov    edi,0x3e8
    4ee8:	49 f7 f6             	div    r14
    4eeb:	41 bc 14 00 00 00    	mov    r12d,0x14
    4ef1:	31 d2                	xor    edx,edx
    4ef3:	48 8d 35 3e 93 01 00 	lea    rsi,[rip+0x1933e]        # 1e238 <_IO_stdin_used+0x7238>
    4efa:	83 c0 14             	add    eax,0x14
    4efd:	41 f7 f4             	div    r12d
    4f00:	6b d0 14             	imul   edx,eax,0x14
    4f03:	39 fa                	cmp    edx,edi
    4f05:	0f 47 d7             	cmova  edx,edi
    4f08:	bf 01 00 00 00       	mov    edi,0x1
    4f0d:	31 c0                	xor    eax,eax
    4f0f:	89 15 2f 31 02 00    	mov    DWORD PTR [rip+0x2312f],edx        # 28044 <exec_tmout>
    4f15:	e8 56 e6 ff ff       	call   3570 <__printf_chk@plt>
    4f1a:	4c 89 ef             	mov    rdi,r13
    4f1d:	e8 2e e2 ff ff       	call   3150 <puts@plt>
    4f22:	c6 05 a0 7a 10 00 01 	mov    BYTE PTR [rip+0x107aa0],0x1        # 10c9c9 <timeout_given>
    4f29:	80 3d 9d 7a 10 00 00 	cmp    BYTE PTR [rip+0x107a9d],0x0        # 10c9cd <dumb_mode>
    4f30:	0f 85 9b 04 00 00    	jne    53d1 <main+0x1b91>
    4f36:	48 8d 35 93 93 01 00 	lea    rsi,[rip+0x19393]        # 1e2d0 <_IO_stdin_used+0x72d0>
    4f3d:	bf 01 00 00 00       	mov    edi,0x1
    4f42:	31 c0                	xor    eax,eax
    4f44:	e8 27 e6 ff ff       	call   3570 <__printf_chk@plt>
    4f49:	4c 89 ef             	mov    rdi,r13
    4f4c:	e8 ff e1 ff ff       	call   3150 <puts@plt>
    4f51:	80 3d 72 7a 10 00 00 	cmp    BYTE PTR [rip+0x107a72],0x0        # 10c9ca <resuming_fuzz>
    4f58:	0f 84 d3 00 00 00    	je     5031 <main+0x17f1>
    4f5e:	80 3d 5d 7a 10 00 00 	cmp    BYTE PTR [rip+0x107a5d],0x0        # 10c9c2 <in_place_resume>
    4f65:	0f 84 7b 06 00 00    	je     55e6 <main+0x1da6>
    4f6b:	4c 8b 0d 9e 7a 10 00 	mov    r9,QWORD PTR [rip+0x107a9e]        # 10ca10 <out_dir>
    4f72:	48 83 c9 ff          	or     rcx,0xffffffffffffffff
    4f76:	31 f6                	xor    esi,esi
    4f78:	31 ff                	xor    edi,edi
    4f7a:	4c 8d 05 00 22 01 00 	lea    r8,[rip+0x12200]        # 17181 <_IO_stdin_used+0x181>
    4f81:	ba 01 00 00 00       	mov    edx,0x1
    4f86:	31 c0                	xor    eax,eax
    4f88:	e8 c3 e0 ff ff       	call   3050 <__snprintf_chk@plt>
    4f8d:	41 89 c6             	mov    r14d,eax
    4f90:	85 c0                	test   eax,eax
    4f92:	0f 88 22 06 00 00    	js     55ba <main+0x1d7a>
    4f98:	41 83 c6 01          	add    r14d,0x1
    4f9c:	44 89 f7             	mov    edi,r14d
    4f9f:	e8 bc 3c 00 00       	call   8c60 <DFL_ck_alloc>
    4fa4:	4c 8b 0d 65 7a 10 00 	mov    r9,QWORD PTR [rip+0x107a65]        # 10ca10 <out_dir>
    4fab:	49 63 f6             	movsxd rsi,r14d
    4fae:	4c 8d 05 cc 21 01 00 	lea    r8,[rip+0x121cc]        # 17181 <_IO_stdin_used+0x181>
    4fb5:	49 89 c4             	mov    r12,rax
    4fb8:	48 83 c9 ff          	or     rcx,0xffffffffffffffff
    4fbc:	ba 01 00 00 00       	mov    edx,0x1
    4fc1:	4c 89 e7             	mov    rdi,r12
    4fc4:	31 c0                	xor    eax,eax
    4fc6:	e8 85 e0 ff ff       	call   3050 <__snprintf_chk@plt>
    4fcb:	31 f6                	xor    esi,esi
    4fcd:	4c 89 e7             	mov    rdi,r12
    4fd0:	31 c0                	xor    eax,eax
    4fd2:	e8 b9 e5 ff ff       	call   3590 <open64@plt>
    4fd7:	4c 89 e7             	mov    rdi,r12
    4fda:	89 c3                	mov    ebx,eax
    4fdc:	e8 af 32 00 00       	call   8290 <DFL_ck_free>
    4fe1:	85 db                	test   ebx,ebx
    4fe3:	78 4c                	js     5031 <main+0x17f1>
    4fe5:	4c 8d 25 f4 53 03 00 	lea    r12,[rip+0x353f4]        # 3a3e0 <tmp.36>
    4fec:	ba ff 0f 00 00       	mov    edx,0xfff
    4ff1:	89 df                	mov    edi,ebx
    4ff3:	4c 89 e6             	mov    rsi,r12
    4ff6:	e8 75 e3 ff ff       	call   3370 <read@plt>
    4ffb:	89 df                	mov    edi,ebx
    4ffd:	e8 1e e3 ff ff       	call   3320 <close@plt>
    5002:	48 8d 35 44 29 01 00 	lea    rsi,[rip+0x12944]        # 1794d <_IO_stdin_used+0x94d>
    5009:	4c 89 e7             	mov    rdi,r12
    500c:	e8 8f e7 ff ff       	call   37a0 <strstr@plt>
    5011:	48 85 c0             	test   rax,rax
    5014:	74 1b                	je     5031 <main+0x17f1>
    5016:	31 f6                	xor    esi,esi
    5018:	48 8d 78 14          	lea    rdi,[rax+0x14]
    501c:	ba 0a 00 00 00       	mov    edx,0xa
    5021:	e8 fa e3 ff ff       	call   3420 <strtol@plt>
    5026:	3b 05 4c 79 0d 00    	cmp    eax,DWORD PTR [rip+0xd794c]        # dc978 <queued_paths>
    502c:	41 89 c6             	mov    r14d,eax
    502f:	72 03                	jb     5034 <main+0x17f4>
    5031:	45 31 f6             	xor    r14d,r14d
    5034:	c5 e9 57 d2          	vxorpd xmm2,xmm2,xmm2
    5038:	c5 f9 57 c0          	vxorpd xmm0,xmm0,xmm0
    503c:	c5 eb 10 ca          	vmovsd xmm1,xmm2,xmm2
    5040:	e8 8b 88 00 00       	call   d8d0 <write_stats_file>
    5045:	80 3d 75 79 10 00 00 	cmp    BYTE PTR [rip+0x107975],0x0        # 10c9c1 <auto_changed>
    504c:	74 05                	je     5053 <main+0x1813>
    504e:	e8 ad 38 00 00       	call   8900 <save_auto.part.0>
    5053:	44 0f b6 05 22 79 0d 	movzx  r8d,BYTE PTR [rip+0xd7922]        # dc97d <stop_soon>
    505a:	00 
    505b:	45 84 c0             	test   r8b,r8b
    505e:	0f 85 20 02 00 00    	jne    5284 <main+0x1a44>
    5064:	80 3d 5c 79 10 00 00 	cmp    BYTE PTR [rip+0x10795c],0x0        # 10c9c7 <not_on_tty>
    506b:	0f 84 9d 03 00 00    	je     540e <main+0x1bce>
    5071:	c7 85 58 fe ff ff 00 	mov    DWORD PTR [rbp-0x1a8],0x0
    5078:	00 00 00 
    507b:	48 c7 85 68 fe ff ff 	mov    QWORD PTR [rbp-0x198],0x0
    5082:	00 00 00 00 
    5086:	eb 51                	jmp    50d9 <main+0x1899>
    5088:	0f b6 35 ee 78 0d 00 	movzx  esi,BYTE PTR [rip+0xd78ee]        # dc97d <stop_soon>
    508f:	40 84 f6             	test   sil,sil
    5092:	75 11                	jne    50a5 <main+0x1865>
    5094:	48 83 bd 60 fe ff ff 	cmp    QWORD PTR [rbp-0x1a0],0x0
    509b:	00 
    509c:	74 07                	je     50a5 <main+0x1865>
    509e:	c6 05 d8 78 0d 00 02 	mov    BYTE PTR [rip+0xd78d8],0x2        # dc97d <stop_soon>
    50a5:	44 0f b6 35 d0 78 0d 	movzx  r14d,BYTE PTR [rip+0xd78d0]        # dc97d <stop_soon>
    50ac:	00 
    50ad:	4c 8b 05 9c 75 0d 00 	mov    r8,QWORD PTR [rip+0xd759c]        # dc650 <queue_cur>
    50b4:	45 84 f6             	test   r14b,r14b
    50b7:	0f 85 67 01 00 00    	jne    5224 <main+0x19e4>
    50bd:	4d 8b 48 48          	mov    r9,QWORD PTR [r8+0x48]
    50c1:	83 05 88 78 0d 00 01 	add    DWORD PTR [rip+0xd7888],0x1        # dc950 <current_entry>
    50c8:	45 89 e6             	mov    r14d,r12d
    50cb:	48 89 9d 68 fe ff ff 	mov    QWORD PTR [rbp-0x198],rbx
    50d2:	4c 89 0d 77 75 0d 00 	mov    QWORD PTR [rip+0xd7577],r9        # dc650 <queue_cur>
    50d9:	80 3d ed 78 10 00 00 	cmp    BYTE PTR [rip+0x1078ed],0x0        # 10c9cd <dumb_mode>
    50e0:	75 0e                	jne    50f0 <main+0x18b0>
    50e2:	80 3d e3 78 10 00 00 	cmp    BYTE PTR [rip+0x1078e3],0x0        # 10c9cc <score_changed>
    50e9:	74 05                	je     50f0 <main+0x18b0>
    50eb:	e8 e0 5d 00 00       	call   aed0 <cull_queue.part.0>
    50f0:	48 83 3d 58 75 0d 00 	cmp    QWORD PTR [rip+0xd7558],0x0        # dc650 <queue_cur>
    50f7:	00 
    50f8:	74 64                	je     515e <main+0x191e>
    50fa:	48 8b 9d 68 fe ff ff 	mov    rbx,QWORD PTR [rbp-0x198]
    5101:	45 89 f4             	mov    r12d,r14d
    5104:	4c 89 ff             	mov    rdi,r15
    5107:	e8 64 f7 00 00       	call   14870 <fuzz_one>
    510c:	44 0f b6 15 69 78 0d 	movzx  r10d,BYTE PTR [rip+0xd7869]        # dc97d <stop_soon>
    5113:	00 
    5114:	41 08 c2             	or     r10b,al
    5117:	0f 85 6b ff ff ff    	jne    5088 <main+0x1848>
    511d:	48 83 3d db 78 10 00 	cmp    QWORD PTR [rip+0x1078db],0x0        # 10ca00 <sync_id>
    5124:	00 
    5125:	0f 84 5d ff ff ff    	je     5088 <main+0x1848>
    512b:	8b 85 58 fe ff ff    	mov    eax,DWORD PTR [rbp-0x1a8]
    5131:	bf 05 00 00 00       	mov    edi,0x5
    5136:	31 d2                	xor    edx,edx
    5138:	8b 8d 58 fe ff ff    	mov    ecx,DWORD PTR [rbp-0x1a8]
    513e:	f7 f7                	div    edi
    5140:	83 c1 01             	add    ecx,0x1
    5143:	89 8d 58 fe ff ff    	mov    DWORD PTR [rbp-0x1a8],ecx
    5149:	85 d2                	test   edx,edx
    514b:	0f 85 37 ff ff ff    	jne    5088 <main+0x1848>
    5151:	4c 89 ff             	mov    rdi,r15
    5154:	e8 87 ed 00 00       	call   13ee0 <sync_fuzzers>
    5159:	e9 2a ff ff ff       	jmp    5088 <main+0x1848>
    515e:	48 8b 1d f3 74 0d 00 	mov    rbx,QWORD PTR [rip+0xd74f3]        # dc658 <queue>
    5165:	45 89 f4             	mov    r12d,r14d
    5168:	45 31 db             	xor    r11d,r11d
    516b:	48 83 05 75 77 0d 00 	add    QWORD PTR [rip+0xd7775],0x1        # dc8e8 <queue_cycle>
    5172:	01 
    5173:	c7 05 d3 77 0d 00 00 	mov    DWORD PTR [rip+0xd77d3],0x0        # dc950 <current_entry>
    517a:	00 00 00 
    517d:	c7 05 d5 77 0d 00 00 	mov    DWORD PTR [rip+0xd77d5],0x0        # dc95c <cur_skipped_paths>
    5184:	00 00 00 
    5187:	48 89 1d c2 74 0d 00 	mov    QWORD PTR [rip+0xd74c2],rbx        # dc650 <queue_cur>
    518e:	eb 0e                	jmp    519e <main+0x195e>
    5190:	48 8b 5b 48          	mov    rbx,QWORD PTR [rbx+0x48]
    5194:	41 83 ec 01          	sub    r12d,0x1
    5198:	41 bb 01 00 00 00    	mov    r11d,0x1
    519e:	45 85 e4             	test   r12d,r12d
    51a1:	75 ed                	jne    5190 <main+0x1950>
    51a3:	45 84 db             	test   r11b,r11b
    51a6:	74 0e                	je     51b6 <main+0x1976>
    51a8:	48 89 1d a1 74 0d 00 	mov    QWORD PTR [rip+0xd74a1],rbx        # dc650 <queue_cur>
    51af:	44 89 35 9a 77 0d 00 	mov    DWORD PTR [rip+0xd779a],r14d        # dc950 <current_entry>
    51b6:	e8 95 91 00 00       	call   e350 <show_stats>
    51bb:	80 3d 05 78 10 00 00 	cmp    BYTE PTR [rip+0x107805],0x0        # 10c9c7 <not_on_tty>
    51c2:	0f 85 b3 03 00 00    	jne    557b <main+0x1d3b>
    51c8:	8b 1d aa 77 0d 00    	mov    ebx,DWORD PTR [rip+0xd77aa]        # dc978 <queued_paths>
    51ce:	48 3b 9d 68 fe ff ff 	cmp    rbx,QWORD PTR [rbp-0x198]
    51d5:	0f 84 8a 03 00 00    	je     5565 <main+0x1d25>
    51db:	48 c7 05 fa 76 0d 00 	mov    QWORD PTR [rip+0xd76fa],0x0        # dc8e0 <cycles_wo_finds>
    51e2:	00 00 00 00 
    51e6:	48 83 3d 12 78 10 00 	cmp    QWORD PTR [rip+0x107812],0x0        # 10ca00 <sync_id>
    51ed:	00 
    51ee:	0f 84 10 ff ff ff    	je     5104 <main+0x18c4>
    51f4:	48 83 3d ec 76 0d 00 	cmp    QWORD PTR [rip+0xd76ec],0x1        # dc8e8 <queue_cycle>
    51fb:	01 
    51fc:	0f 85 02 ff ff ff    	jne    5104 <main+0x18c4>
    5202:	48 8d 3d 59 27 01 00 	lea    rdi,[rip+0x12759]        # 17962 <_IO_stdin_used+0x962>
    5209:	e8 32 de ff ff       	call   3040 <getenv@plt>
    520e:	48 85 c0             	test   rax,rax
    5211:	0f 84 ed fe ff ff    	je     5104 <main+0x18c4>
    5217:	4c 89 ff             	mov    rdi,r15
    521a:	e8 c1 ec 00 00       	call   13ee0 <sync_fuzzers>
    521f:	e9 e0 fe ff ff       	jmp    5104 <main+0x18c4>
    5224:	4d 85 c0             	test   r8,r8
    5227:	74 05                	je     522e <main+0x19ee>
    5229:	e8 22 91 00 00       	call   e350 <show_stats>
    522e:	44 0f b6 3d 47 77 0d 	movzx  r15d,BYTE PTR [rip+0xd7747]        # dc97d <stop_soon>
    5235:	00 
    5236:	41 80 ff 02          	cmp    r15b,0x2
    523a:	0f 84 47 01 00 00    	je     5387 <main+0x1b47>
    5240:	8b 3d 62 77 10 00    	mov    edi,DWORD PTR [rip+0x107762]        # 10c9a8 <forksrv_pid>
    5246:	31 d2                	xor    edx,edx
    5248:	31 f6                	xor    esi,esi
    524a:	e8 81 e3 ff ff       	call   35d0 <waitpid@plt>
    524f:	85 c0                	test   eax,eax
    5251:	0f 8e 61 01 00 00    	jle    53b8 <main+0x1b78>
    5257:	80 3d cf 2d 02 00 00 	cmp    BYTE PTR [rip+0x22dcf],0x0        # 2802d <bitmap_changed>
    525e:	74 05                	je     5265 <main+0x1a25>
    5260:	e8 1b 8e 00 00       	call   e080 <write_bitmap.part.0>
    5265:	c5 e9 57 d2          	vxorpd xmm2,xmm2,xmm2
    5269:	c5 f9 57 c0          	vxorpd xmm0,xmm0,xmm0
    526d:	c5 eb 10 ca          	vmovsd xmm1,xmm2,xmm2
    5271:	e8 5a 86 00 00       	call   d8d0 <write_stats_file>
    5276:	80 3d 44 77 10 00 00 	cmp    BYTE PTR [rip+0x107744],0x0        # 10c9c1 <auto_changed>
    527d:	74 05                	je     5284 <main+0x1a44>
    527f:	e8 7c 36 00 00       	call   8900 <save_auto.part.0>
    5284:	44 0f b6 25 f1 76 0d 	movzx  r12d,BYTE PTR [rip+0xd76f1]        # dc97d <stop_soon>
    528b:	00 
    528c:	4c 8d 15 b2 24 01 00 	lea    r10,[rip+0x124b2]        # 17745 <_IO_stdin_used+0x745>
    5293:	48 8d 15 9a 24 01 00 	lea    rdx,[rip+0x1249a]        # 17734 <_IO_stdin_used+0x734>
    529a:	bf 01 00 00 00       	mov    edi,0x1
    529f:	48 8d 35 ba 90 01 00 	lea    rsi,[rip+0x190ba]        # 1e360 <_IO_stdin_used+0x7360>
    52a6:	41 80 fc 02          	cmp    r12b,0x2
    52aa:	49 0f 45 d2          	cmovne rdx,r10
    52ae:	31 c0                	xor    eax,eax
    52b0:	e8 bb e2 ff ff       	call   3570 <__printf_chk@plt>
    52b5:	48 83 3d 2b 76 0d 00 	cmp    QWORD PTR [rip+0xd762b],0x1        # dc8e8 <queue_cycle>
    52bc:	01 
    52bd:	0f 84 0f 02 00 00    	je     54d2 <main+0x1c92>
    52c3:	48 8b 3d 96 73 0d 00 	mov    rdi,QWORD PTR [rip+0xd7396]        # dc660 <plot_file>
    52ca:	e8 31 df ff ff       	call   3200 <fclose@plt>
    52cf:	4c 8b 3d 82 73 0d 00 	mov    r15,QWORD PTR [rip+0xd7382]        # dc658 <queue>
    52d6:	eb 20                	jmp    52f8 <main+0x1ab8>
    52d8:	49 8b 3f             	mov    rdi,QWORD PTR [r15]
    52db:	4d 8b 77 48          	mov    r14,QWORD PTR [r15+0x48]
    52df:	e8 ac 2f 00 00       	call   8290 <DFL_ck_free>
    52e4:	49 8b 7f 38          	mov    rdi,QWORD PTR [r15+0x38]
    52e8:	e8 a3 2f 00 00       	call   8290 <DFL_ck_free>
    52ed:	4c 89 ff             	mov    rdi,r15
    52f0:	4d 89 f7             	mov    r15,r14
    52f3:	e8 98 2f 00 00       	call   8290 <DFL_ck_free>
    52f8:	4d 85 ff             	test   r15,r15
    52fb:	75 db                	jne    52d8 <main+0x1a98>
    52fd:	48 8b 3d 1c 73 05 00 	mov    rdi,QWORD PTR [rip+0x5731c]        # 5c620 <extras>
    5304:	31 db                	xor    ebx,ebx
    5306:	3b 1d 0c 73 05 00    	cmp    ebx,DWORD PTR [rip+0x5730c]        # 5c618 <extras_cnt>
    530c:	0f 83 5a 01 00 00    	jae    546c <main+0x1c2c>
    5312:	41 89 db             	mov    r11d,ebx
    5315:	49 c1 e3 04          	shl    r11,0x4
    5319:	4e 8b 24 1f          	mov    r12,QWORD PTR [rdi+r11*1]
    531d:	4d 85 e4             	test   r12,r12
    5320:	0f 84 39 01 00 00    	je     545f <main+0x1c1f>
    5326:	45 8b 4c 24 f8       	mov    r9d,DWORD PTR [r12-0x8]
    532b:	41 81 f9 00 ff 00 ff 	cmp    r9d,0xff00ff00
    5332:	0f 84 01 01 00 00    	je     5439 <main+0x1bf9>
    5338:	48 8d 35 89 30 01 00 	lea    rsi,[rip+0x13089]        # 183c8 <_IO_stdin_used+0x13c8>
    533f:	41 81 f9 00 fe 00 fe 	cmp    r9d,0xfe00fe00
    5346:	74 07                	je     534f <main+0x1b0f>
    5348:	48 8d 35 c1 30 01 00 	lea    rsi,[rip+0x130c1]        # 18410 <_IO_stdin_used+0x1410>
    534f:	bf 01 00 00 00       	mov    edi,0x1
    5354:	31 c0                	xor    eax,eax
    5356:	e8 15 e2 ff ff       	call   3570 <__printf_chk@plt>
    535b:	41 b8 96 00 00 00    	mov    r8d,0x96
    5361:	48 8d 0d bc 1d 01 00 	lea    rcx,[rip+0x11dbc]        # 17124 <_IO_stdin_used+0x124>
    5368:	48 8d 15 b1 91 01 00 	lea    rdx,[rip+0x191b1]        # 1e520 <__FUNCTION__.0>
    536f:	48 8d 35 5a 2a 01 00 	lea    rsi,[rip+0x12a5a]        # 17dd0 <_IO_stdin_used+0xdd0>
    5376:	bf 01 00 00 00       	mov    edi,0x1
    537b:	31 c0                	xor    eax,eax
    537d:	e8 ee e1 ff ff       	call   3570 <__printf_chk@plt>
    5382:	e8 29 dd ff ff       	call   30b0 <abort@plt>
    5387:	8b 3d 93 2c 02 00    	mov    edi,DWORD PTR [rip+0x22c93]        # 28020 <child_pid>
    538d:	85 ff                	test   edi,edi
    538f:	7e 0a                	jle    539b <main+0x1b5b>
    5391:	be 09 00 00 00       	mov    esi,0x9
    5396:	e8 b5 e0 ff ff       	call   3450 <kill@plt>
    539b:	8b 3d 07 76 10 00    	mov    edi,DWORD PTR [rip+0x107607]        # 10c9a8 <forksrv_pid>
    53a1:	85 ff                	test   edi,edi
    53a3:	0f 8e 9d fe ff ff    	jle    5246 <main+0x1a06>
    53a9:	be 09 00 00 00       	mov    esi,0x9
    53ae:	e8 9d e0 ff ff       	call   3450 <kill@plt>
    53b3:	e9 88 fe ff ff       	jmp    5240 <main+0x1a00>
    53b8:	48 8d 3d 71 8f 01 00 	lea    rdi,[rip+0x18f71]        # 1e330 <_IO_stdin_used+0x7330>
    53bf:	e8 8c dd ff ff       	call   3150 <puts@plt>
    53c4:	4c 89 ef             	mov    rdi,r13
    53c7:	e8 84 dd ff ff       	call   3150 <puts@plt>
    53cc:	e9 86 fe ff ff       	jmp    5257 <main+0x1a17>
    53d1:	48 8d 3d 41 24 01 00 	lea    rdi,[rip+0x12441]        # 17819 <_IO_stdin_used+0x819>
    53d8:	e8 63 dc ff ff       	call   3040 <getenv@plt>
    53dd:	48 85 c0             	test   rax,rax
    53e0:	0f 85 50 fb ff ff    	jne    4f36 <main+0x16f6>
    53e6:	8b 0d 58 2c 02 00    	mov    ecx,DWORD PTR [rip+0x22c58]        # 28044 <exec_tmout>
    53ec:	c5 f9 6f 1d fc 98 01 	vmovdqa xmm3,XMMWORD PTR [rip+0x198fc]        # 1ecf0 <interesting_16+0x170>
    53f3:	00 
    53f4:	8d 74 09 64          	lea    esi,[rcx+rcx*1+0x64]
    53f8:	c5 f9 6e c6          	vmovd  xmm0,esi
    53fc:	c4 e2 79 3b e3       	vpminud xmm4,xmm0,xmm3
    5401:	c5 f9 7e 25 37 2c 02 	vmovd  DWORD PTR [rip+0x22c37],xmm4        # 28040 <hang_tmout>
    5408:	00 
    5409:	e9 28 fb ff ff       	jmp    4f36 <main+0x16f6>
    540e:	bf 04 00 00 00       	mov    edi,0x4
    5413:	e8 48 e3 ff ff       	call   3760 <sleep@plt>
    5418:	44 0f b6 0d 5d 75 0d 	movzx  r9d,BYTE PTR [rip+0xd755d]        # dc97d <stop_soon>
    541f:	00 
    5420:	48 81 05 e5 74 0d 00 	add    QWORD PTR [rip+0xd74e5],0xfa0        # dc910 <start_time>
    5427:	a0 0f 00 00 
    542b:	45 84 c9             	test   r9b,r9b
    542e:	0f 84 3d fc ff ff    	je     5071 <main+0x1831>
    5434:	e9 4b fe ff ff       	jmp    5284 <main+0x1a44>
    5439:	45 8b 54 24 fc       	mov    r10d,DWORD PTR [r12-0x4]
    543e:	43 80 3c 14 f0       	cmp    BYTE PTR [r12+r10*1],0xf0
    5443:	75 22                	jne    5467 <main+0x1c27>
    5445:	41 c7 44 24 f8 00 fe 	mov    DWORD PTR [r12-0x8],0xfe00fe00
    544c:	00 fe 
    544e:	49 8d 7c 24 f8       	lea    rdi,[r12-0x8]
    5453:	e8 18 dc ff ff       	call   3070 <free@plt>
    5458:	48 8b 3d c1 71 05 00 	mov    rdi,QWORD PTR [rip+0x571c1]        # 5c620 <extras>
    545f:	83 c3 01             	add    ebx,0x1
    5462:	e9 9f fe ff ff       	jmp    5306 <main+0x1ac6>
    5467:	e8 d4 2d 00 00       	call   8240 <DFL_ck_free.part.0>
    546c:	e8 1f 2e 00 00       	call   8290 <DFL_ck_free>
    5471:	48 8b 3d 98 71 05 00 	mov    rdi,QWORD PTR [rip+0x57198]        # 5c610 <a_extras>
    5478:	45 31 f6             	xor    r14d,r14d
    547b:	44 3b 35 86 71 05 00 	cmp    r14d,DWORD PTR [rip+0x57186]        # 5c608 <a_extras_cnt>
    5482:	0f 83 fc e6 ff ff    	jae    3b84 <main+0x344>
    5488:	44 89 f6             	mov    esi,r14d
    548b:	48 c1 e6 04          	shl    rsi,0x4
    548f:	4c 8b 04 37          	mov    r8,QWORD PTR [rdi+rsi*1]
    5493:	4d 85 c0             	test   r8,r8
    5496:	74 34                	je     54cc <main+0x1c8c>
    5498:	45 8b 48 f8          	mov    r9d,DWORD PTR [r8-0x8]
    549c:	41 81 f9 00 ff 00 ff 	cmp    r9d,0xff00ff00
    54a3:	0f 85 8f fe ff ff    	jne    5338 <main+0x1af8>
    54a9:	45 8b 78 fc          	mov    r15d,DWORD PTR [r8-0x4]
    54ad:	43 80 3c 38 f0       	cmp    BYTE PTR [r8+r15*1],0xf0
    54b2:	75 b3                	jne    5467 <main+0x1c27>
    54b4:	41 c7 40 f8 00 fe 00 	mov    DWORD PTR [r8-0x8],0xfe00fe00
    54bb:	fe 
    54bc:	49 8d 78 f8          	lea    rdi,[r8-0x8]
    54c0:	e8 ab db ff ff       	call   3070 <free@plt>
    54c5:	48 8b 3d 44 71 05 00 	mov    rdi,QWORD PTR [rip+0x57144]        # 5c610 <a_extras>
    54cc:	41 83 c6 01          	add    r14d,0x1
    54d0:	eb a9                	jmp    547b <main+0x1c3b>
    54d2:	48 8b bd 48 fe ff ff 	mov    rdi,QWORD PTR [rbp-0x1b8]
    54d9:	48 8b b5 50 fe ff ff 	mov    rsi,QWORD PTR [rbp-0x1b0]
    54e0:	e8 eb dd ff ff       	call   32d0 <gettimeofday@plt>
    54e5:	48 8b 85 98 fe ff ff 	mov    rax,QWORD PTR [rbp-0x168]
    54ec:	b9 e8 03 00 00       	mov    ecx,0x3e8
    54f1:	48 69 bd 90 fe ff ff 	imul   rdi,QWORD PTR [rbp-0x170],0x3e8
    54f8:	e8 03 00 00 
    54fc:	48 99                	cqo    
    54fe:	48 f7 f9             	idiv   rcx
    5501:	48 01 f8             	add    rax,rdi
    5504:	48 2b 05 05 74 0d 00 	sub    rax,QWORD PTR [rip+0xd7405]        # dc910 <start_time>
    550b:	48 3d 40 77 1b 00    	cmp    rax,0x1b7740
    5511:	0f 86 ac fd ff ff    	jbe    52c3 <main+0x1a83>
    5517:	48 8b 15 ca 74 10 00 	mov    rdx,QWORD PTR [rip+0x1074ca]        # 10c9e8 <doc_path>
    551e:	48 8d 35 6b 8e 01 00 	lea    rsi,[rip+0x18e6b]        # 1e390 <_IO_stdin_used+0x7390>
    5525:	bf 01 00 00 00       	mov    edi,0x1
    552a:	31 c0                	xor    eax,eax
    552c:	e8 3f e0 ff ff       	call   3570 <__printf_chk@plt>
    5531:	e9 8d fd ff ff       	jmp    52c3 <main+0x1a83>
    5536:	80 fb 03             	cmp    bl,0x3
    5539:	0f 85 ea f9 ff ff    	jne    4f29 <main+0x16e9>
    553f:	8b 15 ff 2a 02 00    	mov    edx,DWORD PTR [rip+0x22aff]        # 28044 <exec_tmout>
    5545:	48 8d 35 3c 8d 01 00 	lea    rsi,[rip+0x18d3c]        # 1e288 <_IO_stdin_used+0x7288>
    554c:	bf 01 00 00 00       	mov    edi,0x1
    5551:	31 c0                	xor    eax,eax
    5553:	e8 18 e0 ff ff       	call   3570 <__printf_chk@plt>
    5558:	4c 89 ef             	mov    rdi,r13
    555b:	e8 f0 db ff ff       	call   3150 <puts@plt>
    5560:	e9 c4 f9 ff ff       	jmp    4f29 <main+0x16e9>
    5565:	80 3d 62 74 10 00 00 	cmp    BYTE PTR [rip+0x107462],0x0        # 10c9ce <use_splicing>
    556c:	74 40                	je     55ae <main+0x1d6e>
    556e:	48 83 05 6a 73 0d 00 	add    QWORD PTR [rip+0xd736a],0x1        # dc8e0 <cycles_wo_finds>
    5575:	01 
    5576:	e9 6b fc ff ff       	jmp    51e6 <main+0x19a6>
    557b:	48 8b 15 66 73 0d 00 	mov    rdx,QWORD PTR [rip+0xd7366]        # dc8e8 <queue_cycle>
    5582:	48 8d 35 77 8d 01 00 	lea    rsi,[rip+0x18d77]        # 1e300 <_IO_stdin_used+0x7300>
    5589:	bf 01 00 00 00       	mov    edi,0x1
    558e:	31 c0                	xor    eax,eax
    5590:	e8 db df ff ff       	call   3570 <__printf_chk@plt>
    5595:	4c 89 ef             	mov    rdi,r13
    5598:	e8 b3 db ff ff       	call   3150 <puts@plt>
    559d:	48 8b 3d dc 2a 02 00 	mov    rdi,QWORD PTR [rip+0x22adc]        # 28080 <stdout@GLIBC_2.2.5>
    55a4:	e8 47 df ff ff       	call   34f0 <fflush@plt>
    55a9:	e9 1a fc ff ff       	jmp    51c8 <main+0x1988>
    55ae:	c6 05 19 74 10 00 01 	mov    BYTE PTR [rip+0x107419],0x1        # 10c9ce <use_splicing>
    55b5:	e9 2c fc ff ff       	jmp    51e6 <main+0x19a6>
    55ba:	48 8d 35 c7 2e 01 00 	lea    rsi,[rip+0x12ec7]        # 18488 <_IO_stdin_used+0x1488>
    55c1:	bf 01 00 00 00       	mov    edi,0x1
    55c6:	31 c0                	xor    eax,eax
    55c8:	e8 a3 df ff ff       	call   3570 <__printf_chk@plt>
    55cd:	41 b8 f8 0c 00 00    	mov    r8d,0xcf8
    55d3:	48 8d 0d 63 1b 01 00 	lea    rcx,[rip+0x11b63]        # 1713d <_IO_stdin_used+0x13d>
    55da:	48 8d 15 2f 90 01 00 	lea    rdx,[rip+0x1902f]        # 1e610 <__FUNCTION__.37>
    55e1:	e9 a7 e7 ff ff       	jmp    3d8d <main+0x54d>
    55e6:	4c 8b 0d 33 74 10 00 	mov    r9,QWORD PTR [rip+0x107433]        # 10ca20 <in_dir>
    55ed:	48 83 c9 ff          	or     rcx,0xffffffffffffffff
    55f1:	31 f6                	xor    esi,esi
    55f3:	31 ff                	xor    edi,edi
    55f5:	4c 8d 05 cb 22 01 00 	lea    r8,[rip+0x122cb]        # 178c7 <_IO_stdin_used+0x8c7>
    55fc:	ba 01 00 00 00       	mov    edx,0x1
    5601:	31 c0                	xor    eax,eax
    5603:	e8 48 da ff ff       	call   3050 <__snprintf_chk@plt>
    5608:	89 c3                	mov    ebx,eax
    560a:	85 c0                	test   eax,eax
    560c:	0f 88 d7 0b 00 00    	js     61e9 <main+0x29a9>
    5612:	83 c3 01             	add    ebx,0x1
    5615:	89 df                	mov    edi,ebx
    5617:	e8 44 36 00 00       	call   8c60 <DFL_ck_alloc>
    561c:	4c 8b 0d fd 73 10 00 	mov    r9,QWORD PTR [rip+0x1073fd]        # 10ca20 <in_dir>
    5623:	48 63 f3             	movsxd rsi,ebx
    5626:	4c 8d 05 9a 22 01 00 	lea    r8,[rip+0x1229a]        # 178c7 <_IO_stdin_used+0x8c7>
    562d:	49 89 c4             	mov    r12,rax
    5630:	e9 83 f9 ff ff       	jmp    4fb8 <main+0x1778>
    5635:	48 8d 35 4c 2e 01 00 	lea    rsi,[rip+0x12e4c]        # 18488 <_IO_stdin_used+0x1488>
    563c:	bf 01 00 00 00       	mov    edi,0x1
    5641:	31 c0                	xor    eax,eax
    5643:	e8 28 df ff ff       	call   3570 <__printf_chk@plt>
    5648:	41 b8 41 1d 00 00    	mov    r8d,0x1d41
    564e:	48 8d 0d e8 1a 01 00 	lea    rcx,[rip+0x11ae8]        # 1713d <_IO_stdin_used+0x13d>
    5655:	48 8d 15 4c 92 01 00 	lea    rdx,[rip+0x1924c]        # 1e8a8 <__FUNCTION__.80>
    565c:	e9 2c e7 ff ff       	jmp    3d8d <main+0x54d>
    5661:	ba 00 00 01 00       	mov    edx,0x10000
    5666:	be ff 00 00 00       	mov    esi,0xff
    566b:	48 8d 3d 2e 73 0f 00 	lea    rdi,[rip+0xf732e]        # fc9a0 <virgin_bits>
    5672:	e8 79 dc ff ff       	call   32f0 <memset@plt>
    5677:	e9 e0 f2 ff ff       	jmp    495c <main+0x111c>
    567c:	4c 8d 35 c8 20 01 00 	lea    r14,[rip+0x120c8]        # 1774b <_IO_stdin_used+0x74b>
    5683:	48 8d 3d 8e 80 01 00 	lea    rdi,[rip+0x1808e]        # 1d718 <_IO_stdin_used+0x6718>
    568a:	4c 89 f6             	mov    rsi,r14
    568d:	e8 7e dd ff ff       	call   3410 <fopen64@plt>
    5692:	48 85 c0             	test   rax,rax
    5695:	48 89 85 50 fe ff ff 	mov    QWORD PTR [rbp-0x1b0],rax
    569c:	0f 84 10 f2 ff ff    	je     48b2 <main+0x1072>
    56a2:	48 8d 35 a7 80 01 00 	lea    rsi,[rip+0x180a7]        # 1d750 <_IO_stdin_used+0x6750>
    56a9:	bf 01 00 00 00       	mov    edi,0x1
    56ae:	31 c0                	xor    eax,eax
    56b0:	e8 bb de ff ff       	call   3570 <__printf_chk@plt>
    56b5:	4c 89 ef             	mov    rdi,r13
    56b8:	4c 8d bd 40 ff ff ff 	lea    r15,[rbp-0xc0]
    56bf:	e8 8c da ff ff       	call   3150 <puts@plt>
    56c4:	48 8b 95 50 fe ff ff 	mov    rdx,QWORD PTR [rbp-0x1b0]
    56cb:	be 80 00 00 00       	mov    esi,0x80
    56d0:	4c 89 ff             	mov    rdi,r15
    56d3:	e8 b8 dc ff ff       	call   3390 <fgets@plt>
    56d8:	4c 8b 85 50 fe ff ff 	mov    r8,QWORD PTR [rbp-0x1b0]
    56df:	48 85 c0             	test   rax,rax
    56e2:	0f 84 16 01 00 00    	je     57fe <main+0x1fbe>
    56e8:	4c 89 c7             	mov    rdi,r8
    56eb:	e8 10 db ff ff       	call   3200 <fclose@plt>
    56f0:	ba 04 00 00 00       	mov    edx,0x4
    56f5:	48 8d 35 9f 21 01 00 	lea    rsi,[rip+0x1219f]        # 1789b <_IO_stdin_used+0x89b>
    56fc:	4c 89 ff             	mov    rdi,r15
    56ff:	e8 ec d9 ff ff       	call   30f0 <strncmp@plt>
    5704:	85 c0                	test   eax,eax
    5706:	0f 84 a6 f1 ff ff    	je     48b2 <main+0x1072>
    570c:	4c 89 f6             	mov    rsi,r14
    570f:	48 8d 3d aa 80 01 00 	lea    rdi,[rip+0x180aa]        # 1d7c0 <_IO_stdin_used+0x67c0>
    5716:	e8 f5 dc ff ff       	call   3410 <fopen64@plt>
    571b:	49 89 c7             	mov    r15,rax
    571e:	48 85 c0             	test   rax,rax
    5721:	74 30                	je     5753 <main+0x1f13>
    5723:	48 89 c7             	mov    rdi,rax
    5726:	48 8d 95 78 fe ff ff 	lea    rdx,[rbp-0x188]
    572d:	31 c0                	xor    eax,eax
    572f:	48 8d 35 f7 18 01 00 	lea    rsi,[rip+0x118f7]        # 1702d <_IO_stdin_used+0x2d>
    5736:	e8 c5 d9 ff ff       	call   3100 <__isoc99_fscanf@plt>
    573b:	83 e8 01             	sub    eax,0x1
    573e:	74 0b                	je     574b <main+0x1f0b>
    5740:	48 c7 85 78 fe ff ff 	mov    QWORD PTR [rbp-0x188],0x0
    5747:	00 00 00 00 
    574b:	4c 89 ff             	mov    rdi,r15
    574e:	e8 ad da ff ff       	call   3200 <fclose@plt>
    5753:	4c 89 f6             	mov    rsi,r14
    5756:	48 8d 3d 9b 80 01 00 	lea    rdi,[rip+0x1809b]        # 1d7f8 <_IO_stdin_used+0x67f8>
    575d:	e8 ae dc ff ff       	call   3410 <fopen64@plt>
    5762:	49 89 c6             	mov    r14,rax
    5765:	48 85 c0             	test   rax,rax
    5768:	74 30                	je     579a <main+0x1f5a>
    576a:	48 89 c7             	mov    rdi,rax
    576d:	48 8d 95 90 fe ff ff 	lea    rdx,[rbp-0x170]
    5774:	31 c0                	xor    eax,eax
    5776:	48 8d 35 b0 18 01 00 	lea    rsi,[rip+0x118b0]        # 1702d <_IO_stdin_used+0x2d>
    577d:	e8 7e d9 ff ff       	call   3100 <__isoc99_fscanf@plt>
    5782:	83 e8 01             	sub    eax,0x1
    5785:	74 0b                	je     5792 <main+0x1f52>
    5787:	48 c7 85 90 fe ff ff 	mov    QWORD PTR [rbp-0x170],0x0
    578e:	00 00 00 00 
    5792:	4c 89 f7             	mov    rdi,r14
    5795:	e8 66 da ff ff       	call   3200 <fclose@plt>
    579a:	4c 8b 8d 78 fe ff ff 	mov    r9,QWORD PTR [rbp-0x188]
    57a1:	4c 8b 9d 90 fe ff ff 	mov    r11,QWORD PTR [rbp-0x170]
    57a8:	4d 39 d9             	cmp    r9,r11
    57ab:	0f 84 01 f1 ff ff    	je     48b2 <main+0x1072>
    57b1:	4c 89 d9             	mov    rcx,r11
    57b4:	49 c1 e9 0a          	shr    r9,0xa
    57b8:	48 8d 35 71 80 01 00 	lea    rsi,[rip+0x18071]        # 1d830 <_IO_stdin_used+0x6830>
    57bf:	31 c0                	xor    eax,eax
    57c1:	48 c1 e9 0a          	shr    rcx,0xa
    57c5:	4c 89 ca             	mov    rdx,r9
    57c8:	bf 01 00 00 00       	mov    edi,0x1
    57cd:	e8 9e dd ff ff       	call   3570 <__printf_chk@plt>
    57d2:	48 8d 35 c7 82 01 00 	lea    rsi,[rip+0x182c7]        # 1daa0 <_IO_stdin_used+0x6aa0>
    57d9:	bf 01 00 00 00       	mov    edi,0x1
    57de:	31 c0                	xor    eax,eax
    57e0:	e8 8b dd ff ff       	call   3570 <__printf_chk@plt>
    57e5:	41 b8 c8 1c 00 00    	mov    r8d,0x1cc8
    57eb:	48 8d 0d 4b 19 01 00 	lea    rcx,[rip+0x1194b]        # 1713d <_IO_stdin_used+0x13d>
    57f2:	48 8d 15 37 90 01 00 	lea    rdx,[rip+0x19037]        # 1e830 <__FUNCTION__.75>
    57f9:	e9 8f e5 ff ff       	jmp    3d8d <main+0x54d>
    57fe:	48 8b 3d 7b 28 02 00 	mov    rdi,QWORD PTR [rip+0x2287b]        # 28080 <stdout@GLIBC_2.2.5>
    5805:	e8 e6 dc ff ff       	call   34f0 <fflush@plt>
    580a:	48 8d 35 6f 7f 01 00 	lea    rsi,[rip+0x17f6f]        # 1d780 <_IO_stdin_used+0x6780>
    5811:	bf 01 00 00 00       	mov    edi,0x1
    5816:	31 c0                	xor    eax,eax
    5818:	e8 53 dd ff ff       	call   3570 <__printf_chk@plt>
    581d:	41 b8 a4 1c 00 00    	mov    r8d,0x1ca4
    5823:	48 8d 0d 13 19 01 00 	lea    rcx,[rip+0x11913]        # 1713d <_IO_stdin_used+0x13d>
    582a:	48 8d 15 ff 8f 01 00 	lea    rdx,[rip+0x18fff]        # 1e830 <__FUNCTION__.75>
    5831:	e9 2d e6 ff ff       	jmp    3e63 <main+0x623>
    5836:	48 8d 35 2b 83 01 00 	lea    rsi,[rip+0x1832b]        # 1db68 <_IO_stdin_used+0x6b68>
    583d:	bf 01 00 00 00       	mov    edi,0x1
    5842:	e8 29 dd ff ff       	call   3570 <__printf_chk@plt>
    5847:	41 b8 61 05 00 00    	mov    r8d,0x561
    584d:	48 8d 0d e9 18 01 00 	lea    rcx,[rip+0x118e9]        # 1713d <_IO_stdin_used+0x13d>
    5854:	48 8d 15 bd 8f 01 00 	lea    rdx,[rip+0x18fbd]        # 1e818 <__FUNCTION__.74>
    585b:	e9 2d e5 ff ff       	jmp    3d8d <main+0x54d>
    5860:	e8 fb d7 ff ff       	call   3060 <dlerror@plt>
    5865:	48 8d 35 c4 82 01 00 	lea    rsi,[rip+0x182c4]        # 1db30 <_IO_stdin_used+0x6b30>
    586c:	bf 01 00 00 00       	mov    edi,0x1
    5871:	48 89 c2             	mov    rdx,rax
    5874:	31 c0                	xor    eax,eax
    5876:	e8 f5 dc ff ff       	call   3570 <__printf_chk@plt>
    587b:	41 b8 5e 05 00 00    	mov    r8d,0x55e
    5881:	48 8d 0d b5 18 01 00 	lea    rcx,[rip+0x118b5]        # 1713d <_IO_stdin_used+0x13d>
    5888:	48 8d 15 89 8f 01 00 	lea    rdx,[rip+0x18f89]        # 1e818 <__FUNCTION__.74>
    588f:	e9 f9 e4 ff ff       	jmp    3d8d <main+0x54d>
    5894:	ba 01 00 00 00       	mov    edx,0x1
    5899:	4c 89 fe             	mov    rsi,r15
    589c:	48 8d 3d b0 1a 01 00 	lea    rdi,[rip+0x11ab0]        # 17353 <_IO_stdin_used+0x353>
    58a3:	e8 e8 d8 ff ff       	call   3190 <setenv@plt>
    58a8:	e9 67 f1 ff ff       	jmp    4a14 <main+0x11d4>
    58ad:	48 8b 3d cc 27 02 00 	mov    rdi,QWORD PTR [rip+0x227cc]        # 28080 <stdout@GLIBC_2.2.5>
    58b4:	e8 37 dc ff ff       	call   34f0 <fflush@plt>
    58b9:	48 8d 35 38 83 01 00 	lea    rsi,[rip+0x18338]        # 1dbf8 <_IO_stdin_used+0x6bf8>
    58c0:	bf 01 00 00 00       	mov    edi,0x1
    58c5:	31 c0                	xor    eax,eax
    58c7:	e8 a4 dc ff ff       	call   3570 <__printf_chk@plt>
    58cc:	41 b8 3b 05 00 00    	mov    r8d,0x53b
    58d2:	48 8d 0d 64 18 01 00 	lea    rcx,[rip+0x11864]        # 1713d <_IO_stdin_used+0x13d>
    58d9:	48 8d 15 28 8f 01 00 	lea    rdx,[rip+0x18f28]        # 1e808 <__FUNCTION__.73>
    58e0:	e9 7e e5 ff ff       	jmp    3e63 <main+0x623>
    58e5:	44 89 ef             	mov    edi,r13d
    58e8:	e8 b3 28 00 00       	call   81a0 <DFL_ck_alloc_nozero.part.0>
    58ed:	44 89 ea             	mov    edx,r13d
    58f0:	48 8d 35 89 24 01 00 	lea    rsi,[rip+0x12489]        # 17d80 <_IO_stdin_used+0xd80>
    58f7:	bf 01 00 00 00       	mov    edi,0x1
    58fc:	31 c0                	xor    eax,eax
    58fe:	e8 6d dc ff ff       	call   3570 <__printf_chk@plt>
    5903:	41 b8 72 00 00 00    	mov    r8d,0x72
    5909:	48 8d 0d 14 18 01 00 	lea    rcx,[rip+0x11814]        # 17124 <_IO_stdin_used+0x124>
    5910:	48 8d 15 79 8f 01 00 	lea    rdx,[rip+0x18f79]        # 1e890 <__FUNCTION__.79>
    5917:	e9 53 fa ff ff       	jmp    536f <main+0x1b2f>
    591c:	44 8b 05 65 27 02 00 	mov    r8d,DWORD PTR [rip+0x22765]        # 28088 <optind@GLIBC_2.2.5>
    5923:	4c 8b 33             	mov    r14,QWORD PTR [rbx]
    5926:	45 29 c4             	sub    r12d,r8d
    5929:	44 89 85 68 fe ff ff 	mov    DWORD PTR [rbp-0x198],r8d
    5930:	42 8d 3c e5 20 00 00 	lea    edi,[r12*8+0x20]
    5937:	00 
    5938:	e8 23 33 00 00       	call   8c60 <DFL_ck_alloc>
    593d:	ba 01 00 00 00       	mov    edx,0x1
    5942:	48 8d 35 a6 1f 01 00 	lea    rsi,[rip+0x11fa6]        # 178ef <_IO_stdin_used+0x8ef>
    5949:	48 8d 3d a7 1f 01 00 	lea    rdi,[rip+0x11fa7]        # 178f7 <_IO_stdin_used+0x8f7>
    5950:	49 89 c7             	mov    r15,rax
    5953:	e8 38 d8 ff ff       	call   3190 <setenv@plt>
    5958:	4c 63 9d 68 fe ff ff 	movsxd r11,DWORD PTR [rbp-0x198]
    595f:	4d 63 cc             	movsxd r9,r12d
    5962:	49 8d 7f 18          	lea    rdi,[r15+0x18]
    5966:	4a 8d 14 cd 00 00 00 	lea    rdx,[r9*8+0x0]
    596d:	00 
    596e:	4a 8d 74 db 08       	lea    rsi,[rbx+r11*8+0x8]
    5973:	e8 c8 da ff ff       	call   3440 <memcpy@plt>
    5978:	48 8b 1d 61 70 10 00 	mov    rbx,QWORD PTR [rip+0x107061]        # 10c9e0 <target_path>
    597f:	4c 8d 15 7a 1f 01 00 	lea    r10,[rip+0x11f7a]        # 17900 <_IO_stdin_used+0x900>
    5986:	48 8d 3d 76 1f 01 00 	lea    rdi,[rip+0x11f76]        # 17903 <_IO_stdin_used+0x903>
    598d:	4d 89 57 08          	mov    QWORD PTR [r15+0x8],r10
    5991:	49 89 5f 10          	mov    QWORD PTR [r15+0x10],rbx
    5995:	e8 a6 d6 ff ff       	call   3040 <getenv@plt>
    599a:	49 89 c4             	mov    r12,rax
    599d:	48 85 c0             	test   rax,rax
    59a0:	0f 84 ce 01 00 00    	je     5b74 <main+0x2334>
    59a6:	49 89 c1             	mov    r9,rax
    59a9:	4c 8d 05 5c 1f 01 00 	lea    r8,[rip+0x11f5c]        # 1790c <_IO_stdin_used+0x90c>
    59b0:	48 83 c9 ff          	or     rcx,0xffffffffffffffff
    59b4:	31 f6                	xor    esi,esi
    59b6:	ba 01 00 00 00       	mov    edx,0x1
    59bb:	31 ff                	xor    edi,edi
    59bd:	31 c0                	xor    eax,eax
    59bf:	e8 8c d6 ff ff       	call   3050 <__snprintf_chk@plt>
    59c4:	89 c3                	mov    ebx,eax
    59c6:	85 c0                	test   eax,eax
    59c8:	0f 88 7a 01 00 00    	js     5b48 <main+0x2308>
    59ce:	83 c3 01             	add    ebx,0x1
    59d1:	89 df                	mov    edi,ebx
    59d3:	e8 88 32 00 00       	call   8c60 <DFL_ck_alloc>
    59d8:	48 63 f3             	movsxd rsi,ebx
    59db:	48 83 c9 ff          	or     rcx,0xffffffffffffffff
    59df:	4d 89 e1             	mov    r9,r12
    59e2:	48 89 c7             	mov    rdi,rax
    59e5:	49 89 c6             	mov    r14,rax
    59e8:	ba 01 00 00 00       	mov    edx,0x1
    59ed:	31 c0                	xor    eax,eax
    59ef:	4c 8d 05 16 1f 01 00 	lea    r8,[rip+0x11f16]        # 1790c <_IO_stdin_used+0x90c>
    59f6:	e8 55 d6 ff ff       	call   3050 <__snprintf_chk@plt>
    59fb:	be 01 00 00 00       	mov    esi,0x1
    5a00:	4c 89 f7             	mov    rdi,r14
    5a03:	e8 e8 db ff ff       	call   35f0 <access@plt>
    5a08:	85 c0                	test   eax,eax
    5a0a:	0f 85 a2 00 00 00    	jne    5ab2 <main+0x2272>
    5a10:	4d 89 37             	mov    QWORD PTR [r15],r14
    5a13:	4c 89 35 c6 6f 10 00 	mov    QWORD PTR [rip+0x106fc6],r14        # 10c9e0 <target_path>
    5a1a:	e9 c4 f1 ff ff       	jmp    4be3 <main+0x13a3>
    5a1f:	4c 8b 0d ea 6f 10 00 	mov    r9,QWORD PTR [rip+0x106fea]        # 10ca10 <out_dir>
    5a26:	48 83 c9 ff          	or     rcx,0xffffffffffffffff
    5a2a:	31 f6                	xor    esi,esi
    5a2c:	31 ff                	xor    edi,edi
    5a2e:	4c 8d 05 d2 17 01 00 	lea    r8,[rip+0x117d2]        # 17207 <_IO_stdin_used+0x207>
    5a35:	ba 01 00 00 00       	mov    edx,0x1
    5a3a:	31 c0                	xor    eax,eax
    5a3c:	e8 0f d6 ff ff       	call   3050 <__snprintf_chk@plt>
    5a41:	41 89 c6             	mov    r14d,eax
    5a44:	85 c0                	test   eax,eax
    5a46:	0f 88 d0 00 00 00    	js     5b1c <main+0x22dc>
    5a4c:	41 83 c6 01          	add    r14d,0x1
    5a50:	44 89 f7             	mov    edi,r14d
    5a53:	e8 08 32 00 00       	call   8c60 <DFL_ck_alloc>
    5a58:	4c 8b 0d b1 6f 10 00 	mov    r9,QWORD PTR [rip+0x106fb1]        # 10ca10 <out_dir>
    5a5f:	49 63 f6             	movsxd rsi,r14d
    5a62:	48 83 c9 ff          	or     rcx,0xffffffffffffffff
    5a66:	49 89 c7             	mov    r15,rax
    5a69:	4c 8d 05 97 17 01 00 	lea    r8,[rip+0x11797]        # 17207 <_IO_stdin_used+0x207>
    5a70:	ba 01 00 00 00       	mov    edx,0x1
    5a75:	48 89 c7             	mov    rdi,rax
    5a78:	31 c0                	xor    eax,eax
    5a7a:	e8 d1 d5 ff ff       	call   3050 <__snprintf_chk@plt>
    5a7f:	4c 89 ff             	mov    rdi,r15
    5a82:	e8 59 d6 ff ff       	call   30e0 <unlink@plt>
    5a87:	ba 80 01 00 00       	mov    edx,0x180
    5a8c:	4c 89 ff             	mov    rdi,r15
    5a8f:	31 c0                	xor    eax,eax
    5a91:	be c2 00 00 00       	mov    esi,0xc2
    5a96:	e8 f5 da ff ff       	call   3590 <open64@plt>
    5a9b:	89 05 13 6f 10 00    	mov    DWORD PTR [rip+0x106f13],eax        # 10c9b4 <out_fd>
    5aa1:	85 c0                	test   eax,eax
    5aa3:	78 3c                	js     5ae1 <main+0x22a1>
    5aa5:	4c 89 ff             	mov    rdi,r15
    5aa8:	e8 e3 27 00 00       	call   8290 <DFL_ck_free>
    5aad:	e9 c2 f0 ff ff       	jmp    4b74 <main+0x1334>
    5ab2:	4c 89 e2             	mov    rdx,r12
    5ab5:	48 8d 35 c4 81 01 00 	lea    rsi,[rip+0x181c4]        # 1dc80 <_IO_stdin_used+0x6c80>
    5abc:	bf 01 00 00 00       	mov    edi,0x1
    5ac1:	31 c0                	xor    eax,eax
    5ac3:	e8 a8 da ff ff       	call   3570 <__printf_chk@plt>
    5ac8:	41 b8 e9 1d 00 00    	mov    r8d,0x1de9
    5ace:	48 8d 0d 68 16 01 00 	lea    rcx,[rip+0x11668]        # 1713d <_IO_stdin_used+0x13d>
    5ad5:	48 8d 15 a4 8b 01 00 	lea    rdx,[rip+0x18ba4]        # 1e680 <__FUNCTION__.50>
    5adc:	e9 ac e2 ff ff       	jmp    3d8d <main+0x54d>
    5ae1:	48 8b 3d 98 25 02 00 	mov    rdi,QWORD PTR [rip+0x22598]        # 28080 <stdout@GLIBC_2.2.5>
    5ae8:	e8 03 da ff ff       	call   34f0 <fflush@plt>
    5aed:	4c 89 fa             	mov    rdx,r15
    5af0:	bf 01 00 00 00       	mov    edi,0x1
    5af5:	31 c0                	xor    eax,eax
    5af7:	48 8d 35 72 24 01 00 	lea    rsi,[rip+0x12472]        # 17f70 <_IO_stdin_used+0xf70>
    5afe:	e8 6d da ff ff       	call   3570 <__printf_chk@plt>
    5b03:	41 b8 4c 1c 00 00    	mov    r8d,0x1c4c
    5b09:	48 8d 0d 2d 16 01 00 	lea    rcx,[rip+0x1162d]        # 1713d <_IO_stdin_used+0x13d>
    5b10:	48 8d 15 89 8b 01 00 	lea    rdx,[rip+0x18b89]        # 1e6a0 <__FUNCTION__.52>
    5b17:	e9 47 e3 ff ff       	jmp    3e63 <main+0x623>
    5b1c:	48 8d 35 65 29 01 00 	lea    rsi,[rip+0x12965]        # 18488 <_IO_stdin_used+0x1488>
    5b23:	bf 01 00 00 00       	mov    edi,0x1
    5b28:	31 c0                	xor    eax,eax
    5b2a:	e8 41 da ff ff       	call   3570 <__printf_chk@plt>
    5b2f:	41 b8 46 1c 00 00    	mov    r8d,0x1c46
    5b35:	48 8d 0d 01 16 01 00 	lea    rcx,[rip+0x11601]        # 1713d <_IO_stdin_used+0x13d>
    5b3c:	48 8d 15 5d 8b 01 00 	lea    rdx,[rip+0x18b5d]        # 1e6a0 <__FUNCTION__.52>
    5b43:	e9 45 e2 ff ff       	jmp    3d8d <main+0x54d>
    5b48:	48 8d 35 39 29 01 00 	lea    rsi,[rip+0x12939]        # 18488 <_IO_stdin_used+0x1488>
    5b4f:	bf 01 00 00 00       	mov    edi,0x1
    5b54:	31 c0                	xor    eax,eax
    5b56:	e8 15 da ff ff       	call   3570 <__printf_chk@plt>
    5b5b:	41 b8 e6 1d 00 00    	mov    r8d,0x1de6
    5b61:	48 8d 0d d5 15 01 00 	lea    rcx,[rip+0x115d5]        # 1713d <_IO_stdin_used+0x13d>
    5b68:	48 8d 15 11 8b 01 00 	lea    rdx,[rip+0x18b11]        # 1e680 <__FUNCTION__.50>
    5b6f:	e9 19 e2 ff ff       	jmp    3d8d <main+0x54d>
    5b74:	4c 89 f7             	mov    rdi,r14
    5b77:	e8 a4 18 00 00       	call   7420 <DFL_ck_strdup>
    5b7c:	be 2f 00 00 00       	mov    esi,0x2f
    5b81:	48 89 c7             	mov    rdi,rax
    5b84:	49 89 c6             	mov    r14,rax
    5b87:	e8 24 d7 ff ff       	call   32b0 <strrchr@plt>
    5b8c:	48 85 c0             	test   rax,rax
    5b8f:	0f 84 3f 03 00 00    	je     5ed4 <main+0x2694>
    5b95:	c6 00 00             	mov    BYTE PTR [rax],0x0
    5b98:	4d 89 f1             	mov    r9,r14
    5b9b:	4c 8d 05 6a 1d 01 00 	lea    r8,[rip+0x11d6a]        # 1790c <_IO_stdin_used+0x90c>
    5ba2:	31 f6                	xor    esi,esi
    5ba4:	48 83 c9 ff          	or     rcx,0xffffffffffffffff
    5ba8:	ba 01 00 00 00       	mov    edx,0x1
    5bad:	31 ff                	xor    edi,edi
    5baf:	31 c0                	xor    eax,eax
    5bb1:	e8 9a d4 ff ff       	call   3050 <__snprintf_chk@plt>
    5bb6:	89 c3                	mov    ebx,eax
    5bb8:	85 c0                	test   eax,eax
    5bba:	0f 88 e8 02 00 00    	js     5ea8 <main+0x2668>
    5bc0:	83 c3 01             	add    ebx,0x1
    5bc3:	89 df                	mov    edi,ebx
    5bc5:	e8 96 30 00 00       	call   8c60 <DFL_ck_alloc>
    5bca:	48 63 f3             	movsxd rsi,ebx
    5bcd:	48 83 c9 ff          	or     rcx,0xffffffffffffffff
    5bd1:	4d 89 f1             	mov    r9,r14
    5bd4:	48 89 c7             	mov    rdi,rax
    5bd7:	49 89 c4             	mov    r12,rax
    5bda:	ba 01 00 00 00       	mov    edx,0x1
    5bdf:	31 c0                	xor    eax,eax
    5be1:	4c 8d 05 24 1d 01 00 	lea    r8,[rip+0x11d24]        # 1790c <_IO_stdin_used+0x90c>
    5be8:	e8 63 d4 ff ff       	call   3050 <__snprintf_chk@plt>
    5bed:	4c 89 f7             	mov    rdi,r14
    5bf0:	e8 9b 26 00 00       	call   8290 <DFL_ck_free>
    5bf5:	be 01 00 00 00       	mov    esi,0x1
    5bfa:	4c 89 e7             	mov    rdi,r12
    5bfd:	e8 ee d9 ff ff       	call   35f0 <access@plt>
    5c02:	85 c0                	test   eax,eax
    5c04:	0f 84 d7 02 00 00    	je     5ee1 <main+0x26a1>
    5c0a:	4c 8d 35 0d 1d 01 00 	lea    r14,[rip+0x11d0d]        # 1791e <_IO_stdin_used+0x91e>
    5c11:	be 01 00 00 00       	mov    esi,0x1
    5c16:	4c 89 f7             	mov    rdi,r14
    5c19:	e8 d2 d9 ff ff       	call   35f0 <access@plt>
    5c1e:	85 c0                	test   eax,eax
    5c20:	0f 85 c3 01 00 00    	jne    5de9 <main+0x25a9>
    5c26:	4c 89 f7             	mov    rdi,r14
    5c29:	e8 f2 17 00 00       	call   7420 <DFL_ck_strdup>
    5c2e:	49 89 07             	mov    QWORD PTR [r15],rax
    5c31:	48 89 05 a8 6d 10 00 	mov    QWORD PTR [rip+0x106da8],rax        # 10c9e0 <target_path>
    5c38:	e9 a6 ef ff ff       	jmp    4be3 <main+0x13a3>
    5c3d:	80 3d 86 6d 10 00 00 	cmp    BYTE PTR [rip+0x106d86],0x0        # 10c9ca <resuming_fuzz>
    5c44:	0f 84 0b ef ff ff    	je     4b55 <main+0x1315>
    5c4a:	80 3d 71 6d 10 00 00 	cmp    BYTE PTR [rip+0x106d71],0x0        # 10c9c2 <in_place_resume>
    5c51:	0f 84 43 01 00 00    	je     5d9a <main+0x255a>
    5c57:	4c 8b 0d b2 6d 10 00 	mov    r9,QWORD PTR [rip+0x106db2]        # 10ca10 <out_dir>
    5c5e:	48 83 c9 ff          	or     rcx,0xffffffffffffffff
    5c62:	31 f6                	xor    esi,esi
    5c64:	31 ff                	xor    edi,edi
    5c66:	31 c0                	xor    eax,eax
    5c68:	4c 8d 05 12 15 01 00 	lea    r8,[rip+0x11512]        # 17181 <_IO_stdin_used+0x181>
    5c6f:	ba 01 00 00 00       	mov    edx,0x1
    5c74:	e8 d7 d3 ff ff       	call   3050 <__snprintf_chk@plt>
    5c79:	85 c0                	test   eax,eax
    5c7b:	0f 88 ed 00 00 00    	js     5d6e <main+0x252e>
    5c81:	44 8d 78 01          	lea    r15d,[rax+0x1]
    5c85:	44 89 ff             	mov    edi,r15d
    5c88:	e8 d3 2f 00 00       	call   8c60 <DFL_ck_alloc>
    5c8d:	4c 8b 0d 7c 6d 10 00 	mov    r9,QWORD PTR [rip+0x106d7c]        # 10ca10 <out_dir>
    5c94:	49 63 f7             	movsxd rsi,r15d
    5c97:	4c 8d 05 e3 14 01 00 	lea    r8,[rip+0x114e3]        # 17181 <_IO_stdin_used+0x181>
    5c9e:	49 89 c6             	mov    r14,rax
    5ca1:	48 83 c9 ff          	or     rcx,0xffffffffffffffff
    5ca5:	ba 01 00 00 00       	mov    edx,0x1
    5caa:	4c 89 f7             	mov    rdi,r14
    5cad:	31 c0                	xor    eax,eax
    5caf:	e8 9c d3 ff ff       	call   3050 <__snprintf_chk@plt>
    5cb4:	31 f6                	xor    esi,esi
    5cb6:	4c 89 f7             	mov    rdi,r14
    5cb9:	31 c0                	xor    eax,eax
    5cbb:	e8 d0 d8 ff ff       	call   3590 <open64@plt>
    5cc0:	4c 89 f7             	mov    rdi,r14
    5cc3:	41 89 c7             	mov    r15d,eax
    5cc6:	e8 c5 25 00 00       	call   8290 <DFL_ck_free>
    5ccb:	45 85 ff             	test   r15d,r15d
    5cce:	0f 88 81 ee ff ff    	js     4b55 <main+0x1315>
    5cd4:	4c 8d 35 45 58 03 00 	lea    r14,[rip+0x35845]        # 3b520 <tmp.54>
    5cdb:	ba ff 0f 00 00       	mov    edx,0xfff
    5ce0:	44 89 ff             	mov    edi,r15d
    5ce3:	4c 89 f6             	mov    rsi,r14
    5ce6:	e8 85 d6 ff ff       	call   3370 <read@plt>
    5ceb:	44 89 ff             	mov    edi,r15d
    5cee:	e8 2d d6 ff ff       	call   3320 <close@plt>
    5cf3:	48 8d 35 e0 1b 01 00 	lea    rsi,[rip+0x11be0]        # 178da <_IO_stdin_used+0x8da>
    5cfa:	4c 89 f7             	mov    rdi,r14
    5cfd:	e8 9e da ff ff       	call   37a0 <strstr@plt>
    5d02:	48 85 c0             	test   rax,rax
    5d05:	0f 84 4a ee ff ff    	je     4b55 <main+0x1315>
    5d0b:	31 f6                	xor    esi,esi
    5d0d:	48 8d 78 14          	lea    rdi,[rax+0x14]
    5d11:	ba 0a 00 00 00       	mov    edx,0xa
    5d16:	e8 05 d7 ff ff       	call   3420 <strtol@plt>
    5d1b:	83 f8 04             	cmp    eax,0x4
    5d1e:	0f 86 31 ee ff ff    	jbe    4b55 <main+0x1315>
    5d24:	89 05 1a 23 02 00    	mov    DWORD PTR [rip+0x2231a],eax        # 28044 <exec_tmout>
    5d2a:	c6 05 98 6c 10 00 03 	mov    BYTE PTR [rip+0x106c98],0x3        # 10c9c9 <timeout_given>
    5d31:	e9 1f ee ff ff       	jmp    4b55 <main+0x1315>
    5d36:	48 8b 3d 43 23 02 00 	mov    rdi,QWORD PTR [rip+0x22343]        # 28080 <stdout@GLIBC_2.2.5>
    5d3d:	e8 ae d7 ff ff       	call   34f0 <fflush@plt>
    5d42:	48 8d 35 f7 7e 01 00 	lea    rsi,[rip+0x17ef7]        # 1dc40 <_IO_stdin_used+0x6c40>
    5d49:	bf 01 00 00 00       	mov    edi,0x1
    5d4e:	31 c0                	xor    eax,eax
    5d50:	e8 1b d8 ff ff       	call   3570 <__printf_chk@plt>
    5d55:	41 b8 4c 05 00 00    	mov    r8d,0x54c
    5d5b:	48 8d 0d db 13 01 00 	lea    rcx,[rip+0x113db]        # 1713d <_IO_stdin_used+0x13d>
    5d62:	48 8d 15 9f 8a 01 00 	lea    rdx,[rip+0x18a9f]        # 1e808 <__FUNCTION__.73>
    5d69:	e9 f5 e0 ff ff       	jmp    3e63 <main+0x623>
    5d6e:	48 8d 35 13 27 01 00 	lea    rsi,[rip+0x12713]        # 18488 <_IO_stdin_used+0x1488>
    5d75:	bf 01 00 00 00       	mov    edi,0x1
    5d7a:	31 c0                	xor    eax,eax
    5d7c:	e8 ef d7 ff ff       	call   3570 <__printf_chk@plt>
    5d81:	41 b8 1b 0d 00 00    	mov    r8d,0xd1b
    5d87:	48 8d 0d af 13 01 00 	lea    rcx,[rip+0x113af]        # 1713d <_IO_stdin_used+0x13d>
    5d8e:	48 8d 15 43 89 01 00 	lea    rdx,[rip+0x18943]        # 1e6d8 <__FUNCTION__.55>
    5d95:	e9 f3 df ff ff       	jmp    3d8d <main+0x54d>
    5d9a:	4c 8b 0d 7f 6c 10 00 	mov    r9,QWORD PTR [rip+0x106c7f]        # 10ca20 <in_dir>
    5da1:	48 83 c9 ff          	or     rcx,0xffffffffffffffff
    5da5:	31 f6                	xor    esi,esi
    5da7:	31 ff                	xor    edi,edi
    5da9:	31 c0                	xor    eax,eax
    5dab:	4c 8d 05 15 1b 01 00 	lea    r8,[rip+0x11b15]        # 178c7 <_IO_stdin_used+0x8c7>
    5db2:	ba 01 00 00 00       	mov    edx,0x1
    5db7:	e8 94 d2 ff ff       	call   3050 <__snprintf_chk@plt>
    5dbc:	85 c0                	test   eax,eax
    5dbe:	0f 88 2c 01 00 00    	js     5ef0 <main+0x26b0>
    5dc4:	44 8d 78 01          	lea    r15d,[rax+0x1]
    5dc8:	44 89 ff             	mov    edi,r15d
    5dcb:	e8 90 2e 00 00       	call   8c60 <DFL_ck_alloc>
    5dd0:	4c 8b 0d 49 6c 10 00 	mov    r9,QWORD PTR [rip+0x106c49]        # 10ca20 <in_dir>
    5dd7:	49 63 f7             	movsxd rsi,r15d
    5dda:	4c 8d 05 e6 1a 01 00 	lea    r8,[rip+0x11ae6]        # 178c7 <_IO_stdin_used+0x8c7>
    5de1:	49 89 c6             	mov    r14,rax
    5de4:	e9 b8 fe ff ff       	jmp    5ca1 <main+0x2461>
    5de9:	48 8d 3d d8 7e 01 00 	lea    rdi,[rip+0x17ed8]        # 1dcc8 <_IO_stdin_used+0x6cc8>
    5df0:	e8 5b d3 ff ff       	call   3150 <puts@plt>
    5df5:	48 8d 35 c4 80 01 00 	lea    rsi,[rip+0x180c4]        # 1dec0 <_IO_stdin_used+0x6ec0>
    5dfc:	bf 01 00 00 00       	mov    edi,0x1
    5e01:	31 c0                	xor    eax,eax
    5e03:	e8 68 d7 ff ff       	call   3570 <__printf_chk@plt>
    5e08:	41 b8 14 1e 00 00    	mov    r8d,0x1e14
    5e0e:	48 8d 0d 28 13 01 00 	lea    rcx,[rip+0x11328]        # 1713d <_IO_stdin_used+0x13d>
    5e15:	48 8d 15 64 88 01 00 	lea    rdx,[rip+0x18864]        # 1e680 <__FUNCTION__.50>
    5e1c:	e9 6c df ff ff       	jmp    3d8d <main+0x54d>
    5e21:	48 8d 35 c0 82 01 00 	lea    rsi,[rip+0x182c0]        # 1e0e8 <_IO_stdin_used+0x70e8>
    5e28:	bf 01 00 00 00       	mov    edi,0x1
    5e2d:	31 c0                	xor    eax,eax
    5e2f:	e8 3c d7 ff ff       	call   3570 <__printf_chk@plt>
    5e34:	4c 89 ef             	mov    rdi,r13
    5e37:	e8 14 d3 ff ff       	call   3150 <puts@plt>
    5e3c:	e9 0f f0 ff ff       	jmp    4e50 <main+0x1610>
    5e41:	48 8b 0d a0 6b 10 00 	mov    rcx,QWORD PTR [rip+0x106ba0]        # 10c9e8 <doc_path>
    5e48:	89 ff                	mov    edi,edi
    5e4a:	48 89 8d 58 fe ff ff 	mov    QWORD PTR [rbp-0x1a8],rcx
    5e51:	e8 0a 11 00 00       	call   6f60 <DMS>
    5e56:	48 8b 8d 58 fe ff ff 	mov    rcx,QWORD PTR [rbp-0x1a8]
    5e5d:	48 8d 35 bc 81 01 00 	lea    rsi,[rip+0x181bc]        # 1e020 <_IO_stdin_used+0x7020>
    5e64:	48 89 c2             	mov    rdx,rax
    5e67:	bf 01 00 00 00       	mov    edi,0x1
    5e6c:	31 c0                	xor    eax,eax
    5e6e:	e8 fd d6 ff ff       	call   3570 <__printf_chk@plt>
    5e73:	4c 89 ef             	mov    rdi,r13
    5e76:	e8 d5 d2 ff ff       	call   3150 <puts@plt>
    5e7b:	e9 b1 ef ff ff       	jmp    4e31 <main+0x15f1>
    5e80:	48 8b 05 61 6b 10 00 	mov    rax,QWORD PTR [rip+0x106b61]        # 10c9e8 <doc_path>
    5e87:	89 ff                	mov    edi,edi
    5e89:	48 89 85 58 fe ff ff 	mov    QWORD PTR [rbp-0x1a8],rax
    5e90:	e8 cb 10 00 00       	call   6f60 <DMS>
    5e95:	48 8b 8d 58 fe ff ff 	mov    rcx,QWORD PTR [rbp-0x1a8]
    5e9c:	48 8d 35 1d 81 01 00 	lea    rsi,[rip+0x1811d]        # 1dfc0 <_IO_stdin_used+0x6fc0>
    5ea3:	48 89 c2             	mov    rdx,rax
    5ea6:	eb bf                	jmp    5e67 <main+0x2627>
    5ea8:	48 8d 35 d9 25 01 00 	lea    rsi,[rip+0x125d9]        # 18488 <_IO_stdin_used+0x1488>
    5eaf:	bf 01 00 00 00       	mov    edi,0x1
    5eb4:	31 c0                	xor    eax,eax
    5eb6:	e8 b5 d6 ff ff       	call   3570 <__printf_chk@plt>
    5ebb:	41 b8 f7 1d 00 00    	mov    r8d,0x1df7
    5ec1:	48 8d 0d 75 12 01 00 	lea    rcx,[rip+0x11275]        # 1713d <_IO_stdin_used+0x13d>
    5ec8:	48 8d 15 b1 87 01 00 	lea    rdx,[rip+0x187b1]        # 1e680 <__FUNCTION__.50>
    5ecf:	e9 b9 de ff ff       	jmp    3d8d <main+0x54d>
    5ed4:	4c 89 f7             	mov    rdi,r14
    5ed7:	e8 b4 23 00 00       	call   8290 <DFL_ck_free>
    5edc:	e9 29 fd ff ff       	jmp    5c0a <main+0x23ca>
    5ee1:	4d 89 27             	mov    QWORD PTR [r15],r12
    5ee4:	4c 89 25 f5 6a 10 00 	mov    QWORD PTR [rip+0x106af5],r12        # 10c9e0 <target_path>
    5eeb:	e9 f3 ec ff ff       	jmp    4be3 <main+0x13a3>
    5ef0:	48 8d 35 91 25 01 00 	lea    rsi,[rip+0x12591]        # 18488 <_IO_stdin_used+0x1488>
    5ef7:	bf 01 00 00 00       	mov    edi,0x1
    5efc:	31 c0                	xor    eax,eax
    5efe:	e8 6d d6 ff ff       	call   3570 <__printf_chk@plt>
    5f03:	41 b8 1c 0d 00 00    	mov    r8d,0xd1c
    5f09:	48 8d 0d 2d 12 01 00 	lea    rcx,[rip+0x1122d]        # 1713d <_IO_stdin_used+0x13d>
    5f10:	48 8d 15 c1 87 01 00 	lea    rdx,[rip+0x187c1]        # 1e6d8 <__FUNCTION__.55>
    5f17:	e9 71 de ff ff       	jmp    3d8d <main+0x54d>
    5f1c:	48 8d 95 90 fe ff ff 	lea    rdx,[rbp-0x170]
    5f23:	be 13 54 00 00       	mov    esi,0x5413
    5f28:	bf 01 00 00 00       	mov    edi,0x1
    5f2d:	31 c0                	xor    eax,eax
    5f2f:	e8 cc d3 ff ff       	call   3300 <ioctl@plt>
    5f34:	4c 8d 2d 41 12 01 00 	lea    r13,[rip+0x11241]        # 1717c <_IO_stdin_used+0x17c>
    5f3b:	85 c0                	test   eax,eax
    5f3d:	0f 84 1b e8 ff ff    	je     475e <main+0xf1e>
    5f43:	e8 78 d1 ff ff       	call   30c0 <__errno_location@plt>
    5f48:	83 38 19             	cmp    DWORD PTR [rax],0x19
    5f4b:	0f 85 0d e8 ff ff    	jne    475e <main+0xf1e>
    5f51:	48 8d 35 98 73 01 00 	lea    rsi,[rip+0x17398]        # 1d2f0 <_IO_stdin_used+0x62f0>
    5f58:	bf 01 00 00 00       	mov    edi,0x1
    5f5d:	31 c0                	xor    eax,eax
    5f5f:	e8 0c d6 ff ff       	call   3570 <__printf_chk@plt>
    5f64:	4c 89 ef             	mov    rdi,r13
    5f67:	e8 e4 d1 ff ff       	call   3150 <puts@plt>
    5f6c:	c6 05 54 6a 10 00 01 	mov    BYTE PTR [rip+0x106a54],0x1        # 10c9c7 <not_on_tty>
    5f73:	e9 e6 e7 ff ff       	jmp    475e <main+0xf1e>
    5f78:	bf 2c 00 00 00       	mov    edi,0x2c
    5f7d:	e8 de 2c 00 00       	call   8c60 <DFL_ck_alloc>
    5f82:	4c 8b 05 6f 6a 10 00 	mov    r8,QWORD PTR [rip+0x106a6f]        # 10c9f8 <use_banner>
    5f89:	48 83 ca ff          	or     rdx,0xffffffffffffffff
    5f8d:	48 8d 0d c5 18 01 00 	lea    rcx,[rip+0x118c5]        # 17859 <_IO_stdin_used+0x859>
    5f94:	49 89 c7             	mov    r15,rax
    5f97:	48 89 c7             	mov    rdi,rax
    5f9a:	be 01 00 00 00       	mov    esi,0x1
    5f9f:	31 c0                	xor    eax,eax
    5fa1:	e8 7a d8 ff ff       	call   3820 <__sprintf_chk@plt>
    5fa6:	4c 89 3d 4b 6a 10 00 	mov    QWORD PTR [rip+0x106a4b],r15        # 10c9f8 <use_banner>
    5fad:	e9 6e e7 ff ff       	jmp    4720 <main+0xee0>
    5fb2:	48 8d 3d f7 74 01 00 	lea    rdi,[rip+0x174f7]        # 1d4b0 <_IO_stdin_used+0x64b0>
    5fb9:	e8 92 d1 ff ff       	call   3150 <puts@plt>
    5fbe:	48 8d 3d cb 76 01 00 	lea    rdi,[rip+0x176cb]        # 1d690 <_IO_stdin_used+0x6690>
    5fc5:	e8 76 d0 ff ff       	call   3040 <getenv@plt>
    5fca:	48 85 c0             	test   rax,rax
    5fcd:	0f 85 ac e8 ff ff    	jne    487f <main+0x103f>
    5fd3:	48 8d 35 de 76 01 00 	lea    rsi,[rip+0x176de]        # 1d6b8 <_IO_stdin_used+0x66b8>
    5fda:	bf 01 00 00 00       	mov    edi,0x1
    5fdf:	e8 8c d5 ff ff       	call   3570 <__printf_chk@plt>
    5fe4:	41 b8 8a 1c 00 00    	mov    r8d,0x1c8a
    5fea:	48 8d 0d 4c 11 01 00 	lea    rcx,[rip+0x1114c]        # 1713d <_IO_stdin_used+0x13d>
    5ff1:	48 8d 15 58 88 01 00 	lea    rdx,[rip+0x18858]        # 1e850 <__FUNCTION__.76>
    5ff8:	e9 90 dd ff ff       	jmp    3d8d <main+0x54d>
    5ffd:	4c 63 15 84 20 02 00 	movsxd r10,DWORD PTR [rip+0x22084]        # 28088 <optind@GLIBC_2.2.5>
    6004:	4c 8b 2d f5 69 10 00 	mov    r13,QWORD PTR [rip+0x1069f5]        # 10ca00 <sync_id>
    600b:	4f 8b 34 d1          	mov    r14,QWORD PTR [r9+r10*8]
    600f:	4d 85 ed             	test   r13,r13
    6012:	74 38                	je     604c <main+0x280c>
    6014:	4c 89 2d dd 69 10 00 	mov    QWORD PTR [rip+0x1069dd],r13        # 10c9f8 <use_banner>
    601b:	e9 ea e6 ff ff       	jmp    470a <main+0xeca>
    6020:	48 8d 35 b1 6e 01 00 	lea    rsi,[rip+0x16eb1]        # 1ced8 <_IO_stdin_used+0x5ed8>
    6027:	bf 01 00 00 00       	mov    edi,0x1
    602c:	31 c0                	xor    eax,eax
    602e:	e8 3d d5 ff ff       	call   3570 <__printf_chk@plt>
    6033:	41 b8 2b 1d 00 00    	mov    r8d,0x1d2b
    6039:	48 8d 0d fd 10 01 00 	lea    rcx,[rip+0x110fd]        # 1713d <_IO_stdin_used+0x13d>
    6040:	48 8d 15 61 88 01 00 	lea    rdx,[rip+0x18861]        # 1e8a8 <__FUNCTION__.80>
    6047:	e9 41 dd ff ff       	jmp    3d8d <main+0x54d>
    604c:	be 2f 00 00 00       	mov    esi,0x2f
    6051:	4c 89 f7             	mov    rdi,r14
    6054:	4d 89 f5             	mov    r13,r14
    6057:	e8 54 d2 ff ff       	call   32b0 <strrchr@plt>
    605c:	48 8d 50 01          	lea    rdx,[rax+0x1]
    6060:	48 85 c0             	test   rax,rax
    6063:	4c 0f 45 ea          	cmovne r13,rdx
    6067:	eb ab                	jmp    6014 <main+0x27d4>
    6069:	48 8b 15 78 69 10 00 	mov    rdx,QWORD PTR [rip+0x106978]        # 10c9e8 <doc_path>
    6070:	48 8d 35 81 73 01 00 	lea    rsi,[rip+0x17381]        # 1d3f8 <_IO_stdin_used+0x63f8>
    6077:	bf 01 00 00 00       	mov    edi,0x1
    607c:	31 c0                	xor    eax,eax
    607e:	e8 ed d4 ff ff       	call   3570 <__printf_chk@plt>
    6083:	4c 89 ef             	mov    rdi,r13
    6086:	e8 c5 d0 ff ff       	call   3150 <puts@plt>
    608b:	e9 91 e7 ff ff       	jmp    4821 <main+0xfe1>
    6090:	44 89 f7             	mov    edi,r14d
    6093:	e8 88 d2 ff ff       	call   3320 <close@plt>
    6098:	4c 89 e6             	mov    rsi,r12
    609b:	4c 89 ff             	mov    rdi,r15
    609e:	e8 cd cb 00 00       	call   12c70 <calibrate_case.constprop.0.isra.0>
    60a3:	48 8d 35 de 6c 01 00 	lea    rsi,[rip+0x16cde]        # 1cd88 <_IO_stdin_used+0x5d88>
    60aa:	bf 01 00 00 00       	mov    edi,0x1
    60af:	e8 bc d4 ff ff       	call   3570 <__printf_chk@plt>
    60b4:	41 b8 60 1d 00 00    	mov    r8d,0x1d60
    60ba:	48 8d 0d 7c 10 01 00 	lea    rcx,[rip+0x1107c]        # 1713d <_IO_stdin_used+0x13d>
    60c1:	48 8d 15 f8 87 01 00 	lea    rdx,[rip+0x187f8]        # 1e8c0 <__FUNCTION__.81>
    60c8:	e9 c0 dc ff ff       	jmp    3d8d <main+0x54d>
    60cd:	48 8d 35 44 6c 01 00 	lea    rsi,[rip+0x16c44]        # 1cd18 <_IO_stdin_used+0x5d18>
    60d4:	bf 01 00 00 00       	mov    edi,0x1
    60d9:	e8 92 d4 ff ff       	call   3570 <__printf_chk@plt>
    60de:	41 b8 5d 1d 00 00    	mov    r8d,0x1d5d
    60e4:	48 8d 0d 52 10 01 00 	lea    rcx,[rip+0x11052]        # 1713d <_IO_stdin_used+0x13d>
    60eb:	48 8d 15 ce 87 01 00 	lea    rdx,[rip+0x187ce]        # 1e8c0 <__FUNCTION__.81>
    60f2:	e9 96 dc ff ff       	jmp    3d8d <main+0x54d>
    60f7:	48 8d 35 6a 6d 01 00 	lea    rsi,[rip+0x16d6a]        # 1ce68 <_IO_stdin_used+0x5e68>
    60fe:	bf 01 00 00 00       	mov    edi,0x1
    6103:	e8 68 d4 ff ff       	call   3570 <__printf_chk@plt>
    6108:	41 b8 6d 1d 00 00    	mov    r8d,0x1d6d
    610e:	48 8d 0d 28 10 01 00 	lea    rcx,[rip+0x11028]        # 1713d <_IO_stdin_used+0x13d>
    6115:	48 8d 15 a4 87 01 00 	lea    rdx,[rip+0x187a4]        # 1e8c0 <__FUNCTION__.81>
    611c:	e9 6c dc ff ff       	jmp    3d8d <main+0x54d>
    6121:	48 8d 35 d0 6c 01 00 	lea    rsi,[rip+0x16cd0]        # 1cdf8 <_IO_stdin_used+0x5df8>
    6128:	bf 01 00 00 00       	mov    edi,0x1
    612d:	e8 3e d4 ff ff       	call   3570 <__printf_chk@plt>
    6132:	41 b8 69 1d 00 00    	mov    r8d,0x1d69
    6138:	48 8d 0d fe 0f 01 00 	lea    rcx,[rip+0x10ffe]        # 1713d <_IO_stdin_used+0x13d>
    613f:	48 8d 15 7a 87 01 00 	lea    rdx,[rip+0x1877a]        # 1e8c0 <__FUNCTION__.81>
    6146:	e9 42 dc ff ff       	jmp    3d8d <main+0x54d>
    614b:	48 8d 35 76 6e 01 00 	lea    rsi,[rip+0x16e76]        # 1cfc8 <_IO_stdin_used+0x5fc8>
    6152:	bf 01 00 00 00       	mov    edi,0x1
    6157:	31 c0                	xor    eax,eax
    6159:	e8 12 d4 ff ff       	call   3570 <__printf_chk@plt>
    615e:	41 b8 39 1d 00 00    	mov    r8d,0x1d39
    6164:	48 8d 0d d2 0f 01 00 	lea    rcx,[rip+0x10fd2]        # 1713d <_IO_stdin_used+0x13d>
    616b:	48 8d 15 36 87 01 00 	lea    rdx,[rip+0x18736]        # 1e8a8 <__FUNCTION__.80>
    6172:	e9 16 dc ff ff       	jmp    3d8d <main+0x54d>
    6177:	48 8b 3d 02 1f 02 00 	mov    rdi,QWORD PTR [rip+0x21f02]        # 28080 <stdout@GLIBC_2.2.5>
    617e:	48 89 8d 68 fe ff ff 	mov    QWORD PTR [rbp-0x198],rcx
    6185:	e8 66 d3 ff ff       	call   34f0 <fflush@plt>
    618a:	48 8b 95 68 fe ff ff 	mov    rdx,QWORD PTR [rbp-0x198]
    6191:	48 8d 35 b8 23 01 00 	lea    rsi,[rip+0x123b8]        # 18550 <_IO_stdin_used+0x1550>
    6198:	31 c0                	xor    eax,eax
    619a:	bf 01 00 00 00       	mov    edi,0x1
    619f:	e8 cc d3 ff ff       	call   3570 <__printf_chk@plt>
    61a4:	41 b8 86 03 00 00    	mov    r8d,0x386
    61aa:	48 8d 0d 8c 0f 01 00 	lea    rcx,[rip+0x10f8c]        # 1713d <_IO_stdin_used+0x13d>
    61b1:	48 8d 15 18 87 01 00 	lea    rdx,[rip+0x18718]        # 1e8d0 <__FUNCTION__.82>
    61b8:	e9 a6 dc ff ff       	jmp    3e63 <main+0x623>
    61bd:	48 8d 35 6c 6e 01 00 	lea    rsi,[rip+0x16e6c]        # 1d030 <_IO_stdin_used+0x6030>
    61c4:	bf 01 00 00 00       	mov    edi,0x1
    61c9:	31 c0                	xor    eax,eax
    61cb:	e8 a0 d3 ff ff       	call   3570 <__printf_chk@plt>
    61d0:	41 b8 3f 1d 00 00    	mov    r8d,0x1d3f
    61d6:	48 8d 0d 60 0f 01 00 	lea    rcx,[rip+0x10f60]        # 1713d <_IO_stdin_used+0x13d>
    61dd:	48 8d 15 c4 86 01 00 	lea    rdx,[rip+0x186c4]        # 1e8a8 <__FUNCTION__.80>
    61e4:	e9 a4 db ff ff       	jmp    3d8d <main+0x54d>
    61e9:	48 8d 35 98 22 01 00 	lea    rsi,[rip+0x12298]        # 18488 <_IO_stdin_used+0x1488>
    61f0:	bf 01 00 00 00       	mov    edi,0x1
    61f5:	31 c0                	xor    eax,eax
    61f7:	e8 74 d3 ff ff       	call   3570 <__printf_chk@plt>
    61fc:	41 b8 f9 0c 00 00    	mov    r8d,0xcf9
    6202:	48 8d 0d 34 0f 01 00 	lea    rcx,[rip+0x10f34]        # 1713d <_IO_stdin_used+0x13d>
    6209:	48 8d 15 00 84 01 00 	lea    rdx,[rip+0x18400]        # 1e610 <__FUNCTION__.37>
    6210:	e9 78 db ff ff       	jmp    3d8d <main+0x54d>
    6215:	66 2e 0f 1f 84 00 00 	cs nop WORD PTR [rax+rax*1+0x0]
    621c:	00 00 00 
    621f:	90                   	nop

0000000000006220 <_start>:
    6220:	f3 0f 1e fa          	endbr64 
    6224:	31 ed                	xor    ebp,ebp
    6226:	49 89 d1             	mov    r9,rdx
    6229:	5e                   	pop    rsi
    622a:	48 89 e2             	mov    rdx,rsp
    622d:	48 83 e4 f0          	and    rsp,0xfffffffffffffff0
    6231:	50                   	push   rax
    6232:	54                   	push   rsp
    6233:	45 31 c0             	xor    r8d,r8d
    6236:	31 c9                	xor    ecx,ecx
    6238:	48 8d 3d 01 d6 ff ff 	lea    rdi,[rip+0xffffffffffffd601]        # 3840 <main>
    623f:	ff 15 83 1d 02 00    	call   QWORD PTR [rip+0x21d83]        # 27fc8 <__libc_start_main@GLIBC_2.34>
    6245:	f4                   	hlt    
    6246:	66 2e 0f 1f 84 00 00 	cs nop WORD PTR [rax+rax*1+0x0]
    624d:	00 00 00 

0000000000006250 <__gmon_start__>:
    6250:	f3 0f 1e fa          	endbr64 
    6254:	8b 05 4e 1e 02 00    	mov    eax,DWORD PTR [rip+0x21e4e]        # 280a8 <called.0>
    625a:	85 c0                	test   eax,eax
    625c:	74 02                	je     6260 <__gmon_start__+0x10>
    625e:	c3                   	ret    
    625f:	90                   	nop
    6260:	48 83 ec 08          	sub    rsp,0x8
    6264:	48 8d 35 72 02 01 00 	lea    rsi,[rip+0x10272]        # 164dd <etext>
    626b:	48 8d 3d 8e 9d ff ff 	lea    rdi,[rip+0xffffffffffff9d8e]        # 0 <__executable_start>
    6272:	c7 05 2c 1e 02 00 01 	mov    DWORD PTR [rip+0x21e2c],0x1        # 280a8 <called.0>
    6279:	00 00 00 
    627c:	e8 4f d1 ff ff       	call   33d0 <__monstartup@plt>
    6281:	48 8b 3d 50 1d 02 00 	mov    rdi,QWORD PTR [rip+0x21d50]        # 27fd8 <_mcleanup@GLIBC_2.2.5>
    6288:	48 83 c4 08          	add    rsp,0x8
    628c:	e9 0f 02 01 00       	jmp    164a0 <atexit>
    6291:	66 2e 0f 1f 84 00 00 	cs nop WORD PTR [rax+rax*1+0x0]
    6298:	00 00 00 
    629b:	0f 1f 44 00 00       	nop    DWORD PTR [rax+rax*1+0x0]

00000000000062a0 <_dl_relocate_static_pie>:
    62a0:	f3 0f 1e fa          	endbr64 
    62a4:	c3                   	ret    
    62a5:	66 2e 0f 1f 84 00 00 	cs nop WORD PTR [rax+rax*1+0x0]
    62ac:	00 00 00 
    62af:	90                   	nop

00000000000062b0 <deregister_tm_clones>:
    62b0:	48 8d 3d 99 1d 02 00 	lea    rdi,[rip+0x21d99]        # 28050 <__TMC_END__>
    62b7:	48 8d 05 92 1d 02 00 	lea    rax,[rip+0x21d92]        # 28050 <__TMC_END__>
    62be:	48 39 f8             	cmp    rax,rdi
    62c1:	74 15                	je     62d8 <deregister_tm_clones+0x28>
    62c3:	48 8b 05 06 1d 02 00 	mov    rax,QWORD PTR [rip+0x21d06]        # 27fd0 <_ITM_deregisterTMCloneTable@Base>
    62ca:	48 85 c0             	test   rax,rax
    62cd:	74 09                	je     62d8 <deregister_tm_clones+0x28>
    62cf:	ff e0                	jmp    rax
    62d1:	0f 1f 80 00 00 00 00 	nop    DWORD PTR [rax+0x0]
    62d8:	c3                   	ret    
    62d9:	0f 1f 80 00 00 00 00 	nop    DWORD PTR [rax+0x0]

00000000000062e0 <register_tm_clones>:
    62e0:	48 8d 3d 69 1d 02 00 	lea    rdi,[rip+0x21d69]        # 28050 <__TMC_END__>
    62e7:	48 8d 35 62 1d 02 00 	lea    rsi,[rip+0x21d62]        # 28050 <__TMC_END__>
    62ee:	48 29 fe             	sub    rsi,rdi
    62f1:	48 89 f0             	mov    rax,rsi
    62f4:	48 c1 ee 3f          	shr    rsi,0x3f
    62f8:	48 c1 f8 03          	sar    rax,0x3
    62fc:	48 01 c6             	add    rsi,rax
    62ff:	48 d1 fe             	sar    rsi,1
    6302:	74 14                	je     6318 <register_tm_clones+0x38>
    6304:	48 8b 05 e5 1c 02 00 	mov    rax,QWORD PTR [rip+0x21ce5]        # 27ff0 <_ITM_registerTMCloneTable@Base>
    630b:	48 85 c0             	test   rax,rax
    630e:	74 08                	je     6318 <register_tm_clones+0x38>
    6310:	ff e0                	jmp    rax
    6312:	66 0f 1f 44 00 00    	nop    WORD PTR [rax+rax*1+0x0]
    6318:	c3                   	ret    
    6319:	0f 1f 80 00 00 00 00 	nop    DWORD PTR [rax+0x0]

0000000000006320 <__do_global_dtors_aux>:
    6320:	f3 0f 1e fa          	endbr64 
    6324:	80 3d 81 1d 02 00 00 	cmp    BYTE PTR [rip+0x21d81],0x0        # 280ac <completed.0>
    632b:	75 2b                	jne    6358 <__do_global_dtors_aux+0x38>
    632d:	55                   	push   rbp
    632e:	48 83 3d c2 1c 02 00 	cmp    QWORD PTR [rip+0x21cc2],0x0        # 27ff8 <__cxa_finalize@GLIBC_2.2.5>
    6335:	00 
    6336:	48 89 e5             	mov    rbp,rsp
    6339:	74 0c                	je     6347 <__do_global_dtors_aux+0x27>
    633b:	48 8b 3d c6 1c 02 00 	mov    rdi,QWORD PTR [rip+0x21cc6]        # 28008 <__dso_handle>
    6342:	e8 e9 d4 ff ff       	call   3830 <__cxa_finalize@plt>
    6347:	e8 64 ff ff ff       	call   62b0 <deregister_tm_clones>
    634c:	c6 05 59 1d 02 00 01 	mov    BYTE PTR [rip+0x21d59],0x1        # 280ac <completed.0>
    6353:	5d                   	pop    rbp
    6354:	c3                   	ret    
    6355:	0f 1f 00             	nop    DWORD PTR [rax]
    6358:	c3                   	ret    
    6359:	0f 1f 80 00 00 00 00 	nop    DWORD PTR [rax+0x0]

0000000000006360 <frame_dummy>:
    6360:	f3 0f 1e fa          	endbr64 
    6364:	e9 77 ff ff ff       	jmp    62e0 <register_tm_clones>
    6369:	0f 1f 80 00 00 00 00 	nop    DWORD PTR [rax+0x0]

0000000000006370 <compare_extras_len>:
    6370:	f3 0f 1e fa          	endbr64 
    6374:	55                   	push   rbp
    6375:	48 89 e5             	mov    rbp,rsp
    6378:	ff 15 62 1c 02 00    	call   QWORD PTR [rip+0x21c62]        # 27fe0 <mcount@GLIBC_2.2.5>
    637e:	8b 47 08             	mov    eax,DWORD PTR [rdi+0x8]
    6381:	5d                   	pop    rbp
    6382:	2b 46 08             	sub    eax,DWORD PTR [rsi+0x8]
    6385:	c3                   	ret    
    6386:	66 2e 0f 1f 84 00 00 	cs nop WORD PTR [rax+rax*1+0x0]
    638d:	00 00 00 

0000000000006390 <compare_extras_use_d>:
    6390:	f3 0f 1e fa          	endbr64 
    6394:	55                   	push   rbp
    6395:	48 89 e5             	mov    rbp,rsp
    6398:	ff 15 42 1c 02 00    	call   QWORD PTR [rip+0x21c42]        # 27fe0 <mcount@GLIBC_2.2.5>
    639e:	8b 46 0c             	mov    eax,DWORD PTR [rsi+0xc]
    63a1:	5d                   	pop    rbp
    63a2:	2b 47 0c             	sub    eax,DWORD PTR [rdi+0xc]
    63a5:	c3                   	ret    
    63a6:	66 2e 0f 1f 84 00 00 	cs nop WORD PTR [rax+rax*1+0x0]
    63ad:	00 00 00 

00000000000063b0 <handle_skipreq>:
    63b0:	f3 0f 1e fa          	endbr64 
    63b4:	55                   	push   rbp
    63b5:	48 89 e5             	mov    rbp,rsp
    63b8:	ff 15 22 1c 02 00    	call   QWORD PTR [rip+0x21c22]        # 27fe0 <mcount@GLIBC_2.2.5>
    63be:	c6 05 f7 65 10 00 01 	mov    BYTE PTR [rip+0x1065f7],0x1        # 10c9bc <skip_requested>
    63c5:	5d                   	pop    rbp
    63c6:	c3                   	ret    
    63c7:	66 0f 1f 84 00 00 00 	nop    WORD PTR [rax+rax*1+0x0]
    63ce:	00 00 

00000000000063d0 <handle_resize>:
    63d0:	f3 0f 1e fa          	endbr64 
    63d4:	55                   	push   rbp
    63d5:	48 89 e5             	mov    rbp,rsp
    63d8:	ff 15 02 1c 02 00    	call   QWORD PTR [rip+0x21c02]        # 27fe0 <mcount@GLIBC_2.2.5>
    63de:	c6 05 33 1c 02 00 01 	mov    BYTE PTR [rip+0x21c33],0x1        # 28018 <clear_screen>
    63e5:	5d                   	pop    rbp
    63e6:	c3                   	ret    
    63e7:	66 0f 1f 84 00 00 00 	nop    WORD PTR [rax+rax*1+0x0]
    63ee:	00 00 

00000000000063f0 <handle_stop_sig>:
    63f0:	f3 0f 1e fa          	endbr64 
    63f4:	55                   	push   rbp
    63f5:	48 89 e5             	mov    rbp,rsp
    63f8:	ff 15 e2 1b 02 00    	call   QWORD PTR [rip+0x21be2]        # 27fe0 <mcount@GLIBC_2.2.5>
    63fe:	8b 3d 1c 1c 02 00    	mov    edi,DWORD PTR [rip+0x21c1c]        # 28020 <child_pid>
    6404:	c6 05 72 65 0d 00 01 	mov    BYTE PTR [rip+0xd6572],0x1        # dc97d <stop_soon>
    640b:	85 ff                	test   edi,edi
    640d:	7e 0a                	jle    6419 <handle_stop_sig+0x29>
    640f:	be 09 00 00 00       	mov    esi,0x9
    6414:	e8 37 d0 ff ff       	call   3450 <kill@plt>
    6419:	8b 3d 89 65 10 00    	mov    edi,DWORD PTR [rip+0x106589]        # 10c9a8 <forksrv_pid>
    641f:	85 ff                	test   edi,edi
    6421:	7f 05                	jg     6428 <handle_stop_sig+0x38>
    6423:	5d                   	pop    rbp
    6424:	c3                   	ret    
    6425:	0f 1f 00             	nop    DWORD PTR [rax]
    6428:	be 09 00 00 00       	mov    esi,0x9
    642d:	5d                   	pop    rbp
    642e:	e9 1d d0 ff ff       	jmp    3450 <kill@plt>
    6433:	66 66 2e 0f 1f 84 00 	data16 cs nop WORD PTR [rax+rax*1+0x0]
    643a:	00 00 00 00 
    643e:	66 90                	xchg   ax,ax

0000000000006440 <get_runnable_processes>:
    6440:	55                   	push   rbp
    6441:	48 89 e5             	mov    rbp,rsp
    6444:	41 57                	push   r15
    6446:	41 56                	push   r14
    6448:	41 55                	push   r13
    644a:	41 54                	push   r12
    644c:	53                   	push   rbx
    644d:	48 81 ec 18 04 00 00 	sub    rsp,0x418
    6454:	ff 15 86 1b 02 00    	call   QWORD PTR [rip+0x21b86]        # 27fe0 <mcount@GLIBC_2.2.5>
    645a:	48 8d 35 ea 12 01 00 	lea    rsi,[rip+0x112ea]        # 1774b <_IO_stdin_used+0x74b>
    6461:	48 8d 3d 9c 0b 01 00 	lea    rdi,[rip+0x10b9c]        # 17004 <_IO_stdin_used+0x4>
    6468:	64 48 8b 04 25 28 00 	mov    rax,QWORD PTR fs:0x28
    646f:	00 00 
    6471:	48 89 45 c8          	mov    QWORD PTR [rbp-0x38],rax
    6475:	31 c0                	xor    eax,eax
    6477:	e8 94 cf ff ff       	call   3410 <fopen64@plt>
    647c:	49 89 c4             	mov    r12,rax
    647f:	48 85 c0             	test   rax,rax
    6482:	0f 84 fe 00 00 00    	je     6586 <get_runnable_processes+0x146>
    6488:	31 db                	xor    ebx,ebx
    648a:	4c 8d b5 c0 fb ff ff 	lea    r14,[rbp-0x440]
    6491:	49 bd 70 72 6f 63 73 	movabs r13,0x75725f73636f7270
    6498:	5f 72 75 
    649b:	4c 8d bd ce fb ff ff 	lea    r15,[rbp-0x432]
    64a2:	66 0f 1f 44 00 00    	nop    WORD PTR [rax+rax*1+0x0]
    64a8:	4c 89 e2             	mov    rdx,r12
    64ab:	be 00 04 00 00       	mov    esi,0x400
    64b0:	4c 89 f7             	mov    rdi,r14
    64b3:	e8 d8 ce ff ff       	call   3390 <fgets@plt>
    64b8:	48 85 c0             	test   rax,rax
    64bb:	74 5b                	je     6518 <get_runnable_processes+0xd8>
    64bd:	4d 39 2e             	cmp    QWORD PTR [r14],r13
    64c0:	74 3e                	je     6500 <get_runnable_processes+0xc0>
    64c2:	48 b8 70 72 6f 63 73 	movabs rax,0x6c625f73636f7270
    64c9:	5f 62 6c 
    64cc:	49 39 06             	cmp    QWORD PTR [r14],rax
    64cf:	75 d7                	jne    64a8 <get_runnable_processes+0x68>
    64d1:	41 81 7e 08 6f 63 6b 	cmp    DWORD PTR [r14+0x8],0x656b636f
    64d8:	65 
    64d9:	75 cd                	jne    64a8 <get_runnable_processes+0x68>
    64db:	66 41 81 7e 0c 64 20 	cmp    WORD PTR [r14+0xc],0x2064
    64e2:	75 c4                	jne    64a8 <get_runnable_processes+0x68>
    64e4:	ba 0a 00 00 00       	mov    edx,0xa
    64e9:	31 f6                	xor    esi,esi
    64eb:	4c 89 ff             	mov    rdi,r15
    64ee:	e8 2d cf ff ff       	call   3420 <strtol@plt>
    64f3:	01 c3                	add    ebx,eax
    64f5:	eb b1                	jmp    64a8 <get_runnable_processes+0x68>
    64f7:	66 0f 1f 84 00 00 00 	nop    WORD PTR [rax+rax*1+0x0]
    64fe:	00 00 
    6500:	41 81 7e 08 6e 6e 69 	cmp    DWORD PTR [r14+0x8],0x6e696e6e
    6507:	6e 
    6508:	75 b8                	jne    64c2 <get_runnable_processes+0x82>
    650a:	66 41 81 7e 0c 67 20 	cmp    WORD PTR [r14+0xc],0x2067
    6511:	75 af                	jne    64c2 <get_runnable_processes+0x82>
    6513:	eb cf                	jmp    64e4 <get_runnable_processes+0xa4>
    6515:	0f 1f 00             	nop    DWORD PTR [rax]
    6518:	4c 89 e7             	mov    rdi,r12
    651b:	e8 e0 cc ff ff       	call   3200 <fclose@plt>
    6520:	c5 fb 10 0d c0 60 03 	vmovsd xmm1,QWORD PTR [rip+0x360c0]        # 3c5e8 <res.78>
    6527:	00 
    6528:	c5 f8 57 c0          	vxorps xmm0,xmm0,xmm0
    652c:	c5 f9 2e 0d b4 87 01 	vucomisd xmm1,QWORD PTR [rip+0x187b4]        # 1ece8 <interesting_16+0x168>
    6533:	00 
    6534:	c4 e1 fb 2a c3       	vcvtsi2sd xmm0,xmm0,rbx
    6539:	7a 35                	jp     6570 <get_runnable_processes+0x130>
    653b:	75 33                	jne    6570 <get_runnable_processes+0x130>
    653d:	c5 fb 11 05 a3 60 03 	vmovsd QWORD PTR [rip+0x360a3],xmm0        # 3c5e8 <res.78>
    6544:	00 
    6545:	48 8b 45 c8          	mov    rax,QWORD PTR [rbp-0x38]
    6549:	64 48 2b 04 25 28 00 	sub    rax,QWORD PTR fs:0x28
    6550:	00 00 
    6552:	75 38                	jne    658c <get_runnable_processes+0x14c>
    6554:	48 81 c4 18 04 00 00 	add    rsp,0x418
    655b:	5b                   	pop    rbx
    655c:	41 5c                	pop    r12
    655e:	41 5d                	pop    r13
    6560:	41 5e                	pop    r14
    6562:	41 5f                	pop    r15
    6564:	5d                   	pop    rbp
    6565:	c3                   	ret    
    6566:	66 2e 0f 1f 84 00 00 	cs nop WORD PTR [rax+rax*1+0x0]
    656d:	00 00 00 
    6570:	c5 fb 59 15 30 86 01 	vmulsd xmm2,xmm0,QWORD PTR [rip+0x18630]        # 1eba8 <interesting_16+0x28>
    6577:	00 
    6578:	c5 f3 59 1d 30 86 01 	vmulsd xmm3,xmm1,QWORD PTR [rip+0x18630]        # 1ebb0 <interesting_16+0x30>
    657f:	00 
    6580:	c5 eb 58 c3          	vaddsd xmm0,xmm2,xmm3
    6584:	eb b7                	jmp    653d <get_runnable_processes+0xfd>
    6586:	c5 f9 57 c0          	vxorpd xmm0,xmm0,xmm0
    658a:	eb b9                	jmp    6545 <get_runnable_processes+0x105>
    658c:	e8 af cc ff ff       	call   3240 <__stack_chk_fail@plt>
    6591:	66 66 2e 0f 1f 84 00 	data16 cs nop WORD PTR [rax+rax*1+0x0]
    6598:	00 00 00 00 
    659c:	0f 1f 40 00          	nop    DWORD PTR [rax+0x0]

00000000000065a0 <remove_shm>:
    65a0:	f3 0f 1e fa          	endbr64 
    65a4:	55                   	push   rbp
    65a5:	48 89 e5             	mov    rbp,rsp
    65a8:	ff 15 32 1a 02 00    	call   QWORD PTR [rip+0x21a32]        # 27fe0 <mcount@GLIBC_2.2.5>
    65ae:	8b 3d cc 63 0d 00    	mov    edi,DWORD PTR [rip+0xd63cc]        # dc980 <shm_id>
    65b4:	31 d2                	xor    edx,edx
    65b6:	31 f6                	xor    esi,esi
    65b8:	5d                   	pop    rbp
    65b9:	e9 42 d0 ff ff       	jmp    3600 <shmctl@plt>
    65be:	66 90                	xchg   ax,ax

00000000000065c0 <has_new_bits>:
    65c0:	55                   	push   rbp
    65c1:	48 89 e5             	mov    rbp,rsp
    65c4:	ff 15 16 1a 02 00    	call   QWORD PTR [rip+0x21a16]        # 27fe0 <mcount@GLIBC_2.2.5>
    65ca:	4c 8b 15 cf 63 10 00 	mov    r10,QWORD PTR [rip+0x1063cf]        # 10c9a0 <trace_bits>
    65d1:	45 31 c0             	xor    r8d,r8d
    65d4:	49 89 f9             	mov    r9,rdi
    65d7:	49 8d ba 00 00 01 00 	lea    rdi,[r10+0x10000]
    65de:	4c 89 ce             	mov    rsi,r9
    65e1:	eb 55                	jmp    6638 <has_new_bits+0x78>
    65e3:	0f 1f 44 00 00       	nop    DWORD PTR [rax+rax*1+0x0]
    65e8:	49 8b 52 08          	mov    rdx,QWORD PTR [r10+0x8]
    65ec:	49 8d 42 08          	lea    rax,[r10+0x8]
    65f0:	48 8d 4e 08          	lea    rcx,[rsi+0x8]
    65f4:	48 85 d2             	test   rdx,rdx
    65f7:	0f 85 a3 02 00 00    	jne    68a0 <has_new_bits+0x2e0>
    65fd:	48 8b 50 08          	mov    rdx,QWORD PTR [rax+0x8]
    6601:	48 8d 70 08          	lea    rsi,[rax+0x8]
    6605:	4c 8d 51 08          	lea    r10,[rcx+0x8]
    6609:	48 85 d2             	test   rdx,rdx
    660c:	0f 85 ce 01 00 00    	jne    67e0 <has_new_bits+0x220>
    6612:	48 8b 50 10          	mov    rdx,QWORD PTR [rax+0x10]
    6616:	48 8d 70 10          	lea    rsi,[rax+0x10]
    661a:	4c 8d 51 10          	lea    r10,[rcx+0x10]
    661e:	48 85 d2             	test   rdx,rdx
    6621:	0f 85 d1 00 00 00    	jne    66f8 <has_new_bits+0x138>
    6627:	4c 8d 50 18          	lea    r10,[rax+0x18]
    662b:	48 8d 71 18          	lea    rsi,[rcx+0x18]
    662f:	49 39 fa             	cmp    r10,rdi
    6632:	0f 84 87 01 00 00    	je     67bf <has_new_bits+0x1ff>
    6638:	49 8b 02             	mov    rax,QWORD PTR [r10]
    663b:	48 85 c0             	test   rax,rax
    663e:	74 a8                	je     65e8 <has_new_bits+0x28>
    6640:	48 8b 0e             	mov    rcx,QWORD PTR [rsi]
    6643:	48 85 c8             	test   rax,rcx
    6646:	74 a0                	je     65e8 <has_new_bits+0x28>
    6648:	41 80 f8 02          	cmp    r8b,0x2
    664c:	0f 84 95 00 00 00    	je     66e7 <has_new_bits+0x127>
    6652:	41 80 3a 00          	cmp    BYTE PTR [r10],0x0
    6656:	0f 85 17 03 00 00    	jne    6973 <has_new_bits+0x3b3>
    665c:	41 80 7a 01 00       	cmp    BYTE PTR [r10+0x1],0x0
    6661:	74 0c                	je     666f <has_new_bits+0xaf>
    6663:	80 7e 01 ff          	cmp    BYTE PTR [rsi+0x1],0xff
    6667:	41 b8 02 00 00 00    	mov    r8d,0x2
    666d:	74 78                	je     66e7 <has_new_bits+0x127>
    666f:	41 80 7a 02 00       	cmp    BYTE PTR [r10+0x2],0x0
    6674:	74 0c                	je     6682 <has_new_bits+0xc2>
    6676:	80 7e 02 ff          	cmp    BYTE PTR [rsi+0x2],0xff
    667a:	41 b8 02 00 00 00    	mov    r8d,0x2
    6680:	74 65                	je     66e7 <has_new_bits+0x127>
    6682:	41 80 7a 03 00       	cmp    BYTE PTR [r10+0x3],0x0
    6687:	74 0c                	je     6695 <has_new_bits+0xd5>
    6689:	80 7e 03 ff          	cmp    BYTE PTR [rsi+0x3],0xff
    668d:	41 b8 02 00 00 00    	mov    r8d,0x2
    6693:	74 52                	je     66e7 <has_new_bits+0x127>
    6695:	41 80 7a 04 00       	cmp    BYTE PTR [r10+0x4],0x0
    669a:	74 0c                	je     66a8 <has_new_bits+0xe8>
    669c:	80 7e 04 ff          	cmp    BYTE PTR [rsi+0x4],0xff
    66a0:	41 b8 02 00 00 00    	mov    r8d,0x2
    66a6:	74 3f                	je     66e7 <has_new_bits+0x127>
    66a8:	41 80 7a 05 00       	cmp    BYTE PTR [r10+0x5],0x0
    66ad:	74 0c                	je     66bb <has_new_bits+0xfb>
    66af:	80 7e 05 ff          	cmp    BYTE PTR [rsi+0x5],0xff
    66b3:	41 b8 02 00 00 00    	mov    r8d,0x2
    66b9:	74 2c                	je     66e7 <has_new_bits+0x127>
    66bb:	41 80 7a 06 00       	cmp    BYTE PTR [r10+0x6],0x0
    66c0:	74 0c                	je     66ce <has_new_bits+0x10e>
    66c2:	80 7e 06 ff          	cmp    BYTE PTR [rsi+0x6],0xff
    66c6:	41 b8 02 00 00 00    	mov    r8d,0x2
    66cc:	74 19                	je     66e7 <has_new_bits+0x127>
    66ce:	41 80 7a 07 00       	cmp    BYTE PTR [r10+0x7],0x0
    66d3:	41 b8 01 00 00 00    	mov    r8d,0x1
    66d9:	74 0c                	je     66e7 <has_new_bits+0x127>
    66db:	80 7e 07 ff          	cmp    BYTE PTR [rsi+0x7],0xff
    66df:	41 0f 94 c0          	sete   r8b
    66e3:	41 83 c0 01          	add    r8d,0x1
    66e7:	48 f7 d0             	not    rax
    66ea:	48 21 c8             	and    rax,rcx
    66ed:	48 89 06             	mov    QWORD PTR [rsi],rax
    66f0:	e9 f3 fe ff ff       	jmp    65e8 <has_new_bits+0x28>
    66f5:	0f 1f 00             	nop    DWORD PTR [rax]
    66f8:	4c 8b 59 10          	mov    r11,QWORD PTR [rcx+0x10]
    66fc:	4c 85 da             	test   rdx,r11
    66ff:	0f 84 22 ff ff ff    	je     6627 <has_new_bits+0x67>
    6705:	41 80 f8 02          	cmp    r8b,0x2
    6709:	0f 84 95 00 00 00    	je     67a4 <has_new_bits+0x1e4>
    670f:	80 78 10 00          	cmp    BYTE PTR [rax+0x10],0x0
    6713:	0f 85 45 02 00 00    	jne    695e <has_new_bits+0x39e>
    6719:	80 7e 01 00          	cmp    BYTE PTR [rsi+0x1],0x0
    671d:	74 0d                	je     672c <has_new_bits+0x16c>
    671f:	41 80 7a 01 ff       	cmp    BYTE PTR [r10+0x1],0xff
    6724:	41 b8 02 00 00 00    	mov    r8d,0x2
    672a:	74 78                	je     67a4 <has_new_bits+0x1e4>
    672c:	80 7e 02 00          	cmp    BYTE PTR [rsi+0x2],0x0
    6730:	74 0d                	je     673f <has_new_bits+0x17f>
    6732:	41 80 7a 02 ff       	cmp    BYTE PTR [r10+0x2],0xff
    6737:	41 b8 02 00 00 00    	mov    r8d,0x2
    673d:	74 65                	je     67a4 <has_new_bits+0x1e4>
    673f:	80 7e 03 00          	cmp    BYTE PTR [rsi+0x3],0x0
    6743:	74 0d                	je     6752 <has_new_bits+0x192>
    6745:	41 80 7a 03 ff       	cmp    BYTE PTR [r10+0x3],0xff
    674a:	41 b8 02 00 00 00    	mov    r8d,0x2
    6750:	74 52                	je     67a4 <has_new_bits+0x1e4>
    6752:	80 7e 04 00          	cmp    BYTE PTR [rsi+0x4],0x0
    6756:	74 0d                	je     6765 <has_new_bits+0x1a5>
    6758:	41 80 7a 04 ff       	cmp    BYTE PTR [r10+0x4],0xff
    675d:	41 b8 02 00 00 00    	mov    r8d,0x2
    6763:	74 3f                	je     67a4 <has_new_bits+0x1e4>
    6765:	80 7e 05 00          	cmp    BYTE PTR [rsi+0x5],0x0
    6769:	74 0d                	je     6778 <has_new_bits+0x1b8>
    676b:	41 80 7a 05 ff       	cmp    BYTE PTR [r10+0x5],0xff
    6770:	41 b8 02 00 00 00    	mov    r8d,0x2
    6776:	74 2c                	je     67a4 <has_new_bits+0x1e4>
    6778:	80 7e 06 00          	cmp    BYTE PTR [rsi+0x6],0x0
    677c:	74 0d                	je     678b <has_new_bits+0x1cb>
    677e:	41 80 7a 06 ff       	cmp    BYTE PTR [r10+0x6],0xff
    6783:	41 b8 02 00 00 00    	mov    r8d,0x2
    6789:	74 19                	je     67a4 <has_new_bits+0x1e4>
    678b:	80 7e 07 00          	cmp    BYTE PTR [rsi+0x7],0x0
    678f:	41 b8 01 00 00 00    	mov    r8d,0x1
    6795:	74 0d                	je     67a4 <has_new_bits+0x1e4>
    6797:	41 80 7a 07 ff       	cmp    BYTE PTR [r10+0x7],0xff
    679c:	41 0f 94 c0          	sete   r8b
    67a0:	41 83 c0 01          	add    r8d,0x1
    67a4:	48 f7 d2             	not    rdx
    67a7:	4c 8d 50 18          	lea    r10,[rax+0x18]
    67ab:	48 8d 71 18          	lea    rsi,[rcx+0x18]
    67af:	4c 21 da             	and    rdx,r11
    67b2:	48 89 51 10          	mov    QWORD PTR [rcx+0x10],rdx
    67b6:	49 39 fa             	cmp    r10,rdi
    67b9:	0f 85 79 fe ff ff    	jne    6638 <has_new_bits+0x78>
    67bf:	45 84 c0             	test   r8b,r8b
    67c2:	74 10                	je     67d4 <has_new_bits+0x214>
    67c4:	48 8d 3d d5 61 0f 00 	lea    rdi,[rip+0xf61d5]        # fc9a0 <virgin_bits>
    67cb:	49 39 f9             	cmp    r9,rdi
    67ce:	0f 84 7e 01 00 00    	je     6952 <has_new_bits+0x392>
    67d4:	44 89 c0             	mov    eax,r8d
    67d7:	5d                   	pop    rbp
    67d8:	c3                   	ret    
    67d9:	0f 1f 80 00 00 00 00 	nop    DWORD PTR [rax+0x0]
    67e0:	4c 8b 59 08          	mov    r11,QWORD PTR [rcx+0x8]
    67e4:	4c 85 da             	test   rdx,r11
    67e7:	0f 84 25 fe ff ff    	je     6612 <has_new_bits+0x52>
    67ed:	41 80 f8 02          	cmp    r8b,0x2
    67f1:	0f 84 95 00 00 00    	je     688c <has_new_bits+0x2cc>
    67f7:	80 78 08 00          	cmp    BYTE PTR [rax+0x8],0x0
    67fb:	0f 85 86 01 00 00    	jne    6987 <has_new_bits+0x3c7>
    6801:	80 7e 01 00          	cmp    BYTE PTR [rsi+0x1],0x0
    6805:	74 0d                	je     6814 <has_new_bits+0x254>
    6807:	41 80 7a 01 ff       	cmp    BYTE PTR [r10+0x1],0xff
    680c:	41 b8 02 00 00 00    	mov    r8d,0x2
    6812:	74 78                	je     688c <has_new_bits+0x2cc>
    6814:	80 7e 02 00          	cmp    BYTE PTR [rsi+0x2],0x0
    6818:	74 0d                	je     6827 <has_new_bits+0x267>
    681a:	41 80 7a 02 ff       	cmp    BYTE PTR [r10+0x2],0xff
    681f:	41 b8 02 00 00 00    	mov    r8d,0x2
    6825:	74 65                	je     688c <has_new_bits+0x2cc>
    6827:	80 7e 03 00          	cmp    BYTE PTR [rsi+0x3],0x0
    682b:	74 0d                	je     683a <has_new_bits+0x27a>
    682d:	41 80 7a 03 ff       	cmp    BYTE PTR [r10+0x3],0xff
    6832:	41 b8 02 00 00 00    	mov    r8d,0x2
    6838:	74 52                	je     688c <has_new_bits+0x2cc>
    683a:	80 7e 04 00          	cmp    BYTE PTR [rsi+0x4],0x0
    683e:	74 0d                	je     684d <has_new_bits+0x28d>
    6840:	41 80 7a 04 ff       	cmp    BYTE PTR [r10+0x4],0xff
    6845:	41 b8 02 00 00 00    	mov    r8d,0x2
    684b:	74 3f                	je     688c <has_new_bits+0x2cc>
    684d:	80 7e 05 00          	cmp    BYTE PTR [rsi+0x5],0x0
    6851:	74 0d                	je     6860 <has_new_bits+0x2a0>
    6853:	41 80 7a 05 ff       	cmp    BYTE PTR [r10+0x5],0xff
    6858:	41 b8 02 00 00 00    	mov    r8d,0x2
    685e:	74 2c                	je     688c <has_new_bits+0x2cc>
    6860:	80 7e 06 00          	cmp    BYTE PTR [rsi+0x6],0x0
    6864:	74 0d                	je     6873 <has_new_bits+0x2b3>
    6866:	41 80 7a 06 ff       	cmp    BYTE PTR [r10+0x6],0xff
    686b:	41 b8 02 00 00 00    	mov    r8d,0x2
    6871:	74 19                	je     688c <has_new_bits+0x2cc>
    6873:	80 7e 07 00          	cmp    BYTE PTR [rsi+0x7],0x0
    6877:	41 b8 01 00 00 00    	mov    r8d,0x1
    687d:	74 0d                	je     688c <has_new_bits+0x2cc>
    687f:	41 80 7a 07 ff       	cmp    BYTE PTR [r10+0x7],0xff
    6884:	41 0f 94 c0          	sete   r8b
    6888:	41 83 c0 01          	add    r8d,0x1
    688c:	48 f7 d2             	not    rdx
    688f:	4c 21 da             	and    rdx,r11
    6892:	48 89 51 08          	mov    QWORD PTR [rcx+0x8],rdx
    6896:	e9 77 fd ff ff       	jmp    6612 <has_new_bits+0x52>
    689b:	0f 1f 44 00 00       	nop    DWORD PTR [rax+rax*1+0x0]
    68a0:	48 8b 76 08          	mov    rsi,QWORD PTR [rsi+0x8]
    68a4:	48 85 f2             	test   rdx,rsi
    68a7:	0f 84 50 fd ff ff    	je     65fd <has_new_bits+0x3d>
    68ad:	41 80 f8 02          	cmp    r8b,0x2
    68b1:	0f 84 8d 00 00 00    	je     6944 <has_new_bits+0x384>
    68b7:	80 38 00             	cmp    BYTE PTR [rax],0x0
    68ba:	0f 85 dc 00 00 00    	jne    699c <has_new_bits+0x3dc>
    68c0:	80 78 01 00          	cmp    BYTE PTR [rax+0x1],0x0
    68c4:	74 0c                	je     68d2 <has_new_bits+0x312>
    68c6:	80 79 01 ff          	cmp    BYTE PTR [rcx+0x1],0xff
    68ca:	41 b8 02 00 00 00    	mov    r8d,0x2
    68d0:	74 72                	je     6944 <has_new_bits+0x384>
    68d2:	80 78 02 00          	cmp    BYTE PTR [rax+0x2],0x0
    68d6:	74 0c                	je     68e4 <has_new_bits+0x324>
    68d8:	80 79 02 ff          	cmp    BYTE PTR [rcx+0x2],0xff
    68dc:	41 b8 02 00 00 00    	mov    r8d,0x2
    68e2:	74 60                	je     6944 <has_new_bits+0x384>
    68e4:	80 78 03 00          	cmp    BYTE PTR [rax+0x3],0x0
    68e8:	74 0c                	je     68f6 <has_new_bits+0x336>
    68ea:	80 79 03 ff          	cmp    BYTE PTR [rcx+0x3],0xff
    68ee:	41 b8 02 00 00 00    	mov    r8d,0x2
    68f4:	74 4e                	je     6944 <has_new_bits+0x384>
    68f6:	80 78 04 00          	cmp    BYTE PTR [rax+0x4],0x0
    68fa:	74 0c                	je     6908 <has_new_bits+0x348>
    68fc:	80 79 04 ff          	cmp    BYTE PTR [rcx+0x4],0xff
    6900:	41 b8 02 00 00 00    	mov    r8d,0x2
    6906:	74 3c                	je     6944 <has_new_bits+0x384>
    6908:	80 78 05 00          	cmp    BYTE PTR [rax+0x5],0x0
    690c:	74 0c                	je     691a <has_new_bits+0x35a>
    690e:	80 79 05 ff          	cmp    BYTE PTR [rcx+0x5],0xff
    6912:	41 b8 02 00 00 00    	mov    r8d,0x2
    6918:	74 2a                	je     6944 <has_new_bits+0x384>
    691a:	80 78 06 00          	cmp    BYTE PTR [rax+0x6],0x0
    691e:	74 0c                	je     692c <has_new_bits+0x36c>
    6920:	80 79 06 ff          	cmp    BYTE PTR [rcx+0x6],0xff
    6924:	41 b8 02 00 00 00    	mov    r8d,0x2
    692a:	74 18                	je     6944 <has_new_bits+0x384>
    692c:	80 78 07 00          	cmp    BYTE PTR [rax+0x7],0x0
    6930:	41 b8 01 00 00 00    	mov    r8d,0x1
    6936:	74 0c                	je     6944 <has_new_bits+0x384>
    6938:	80 79 07 ff          	cmp    BYTE PTR [rcx+0x7],0xff
    693c:	41 0f 94 c0          	sete   r8b
    6940:	41 83 c0 01          	add    r8d,0x1
    6944:	48 f7 d2             	not    rdx
    6947:	48 21 f2             	and    rdx,rsi
    694a:	48 89 11             	mov    QWORD PTR [rcx],rdx
    694d:	e9 ab fc ff ff       	jmp    65fd <has_new_bits+0x3d>
    6952:	44 89 c0             	mov    eax,r8d
    6955:	c6 05 d1 16 02 00 01 	mov    BYTE PTR [rip+0x216d1],0x1        # 2802d <bitmap_changed>
    695c:	5d                   	pop    rbp
    695d:	c3                   	ret    
    695e:	80 79 10 ff          	cmp    BYTE PTR [rcx+0x10],0xff
    6962:	41 b8 02 00 00 00    	mov    r8d,0x2
    6968:	0f 85 ab fd ff ff    	jne    6719 <has_new_bits+0x159>
    696e:	e9 31 fe ff ff       	jmp    67a4 <has_new_bits+0x1e4>
    6973:	80 3e ff             	cmp    BYTE PTR [rsi],0xff
    6976:	41 b8 02 00 00 00    	mov    r8d,0x2
    697c:	0f 85 da fc ff ff    	jne    665c <has_new_bits+0x9c>
    6982:	e9 60 fd ff ff       	jmp    66e7 <has_new_bits+0x127>
    6987:	80 79 08 ff          	cmp    BYTE PTR [rcx+0x8],0xff
    698b:	41 b8 02 00 00 00    	mov    r8d,0x2
    6991:	0f 85 6a fe ff ff    	jne    6801 <has_new_bits+0x241>
    6997:	e9 f0 fe ff ff       	jmp    688c <has_new_bits+0x2cc>
    699c:	80 39 ff             	cmp    BYTE PTR [rcx],0xff
    699f:	41 b8 02 00 00 00    	mov    r8d,0x2
    69a5:	0f 85 15 ff ff ff    	jne    68c0 <has_new_bits+0x300>
    69ab:	eb 97                	jmp    6944 <has_new_bits+0x384>
    69ad:	0f 1f 00             	nop    DWORD PTR [rax]

00000000000069b0 <simplify_trace>:
    69b0:	55                   	push   rbp
    69b1:	48 89 e5             	mov    rbp,rsp
    69b4:	41 56                	push   r14
    69b6:	41 55                	push   r13
    69b8:	41 54                	push   r12
    69ba:	53                   	push   rbx
    69bb:	ff 15 1f 16 02 00    	call   QWORD PTR [rip+0x2161f]        # 27fe0 <mcount@GLIBC_2.2.5>
    69c1:	48 8d 35 38 80 01 00 	lea    rsi,[rip+0x18038]        # 1ea00 <simplify_lookup>
    69c8:	48 b9 01 01 01 01 01 	movabs rcx,0x101010101010101
    69cf:	01 01 01 
    69d2:	48 89 fa             	mov    rdx,rdi
    69d5:	48 8d bf 00 00 01 00 	lea    rdi,[rdi+0x10000]
    69dc:	eb 4b                	jmp    6a29 <simplify_trace+0x79>
    69de:	66 90                	xchg   ax,ax
    69e0:	48 83 7a 08 00       	cmp    QWORD PTR [rdx+0x8],0x0
    69e5:	48 89 0a             	mov    QWORD PTR [rdx],rcx
    69e8:	48 8d 42 08          	lea    rax,[rdx+0x8]
    69ec:	0f 85 ce 00 00 00    	jne    6ac0 <simplify_trace+0x110>
    69f2:	48 89 4a 08          	mov    QWORD PTR [rdx+0x8],rcx
    69f6:	48 83 78 08 00       	cmp    QWORD PTR [rax+0x8],0x0
    69fb:	48 8d 50 08          	lea    rdx,[rax+0x8]
    69ff:	0f 85 53 01 00 00    	jne    6b58 <simplify_trace+0x1a8>
    6a05:	48 83 78 10 00       	cmp    QWORD PTR [rax+0x10],0x0
    6a0a:	48 89 48 08          	mov    QWORD PTR [rax+0x8],rcx
    6a0e:	48 8d 50 10          	lea    rdx,[rax+0x10]
    6a12:	0f 85 d8 01 00 00    	jne    6bf0 <simplify_trace+0x240>
    6a18:	48 8d 50 18          	lea    rdx,[rax+0x18]
    6a1c:	48 89 48 10          	mov    QWORD PTR [rax+0x10],rcx
    6a20:	48 39 d7             	cmp    rdi,rdx
    6a23:	0f 84 57 02 00 00    	je     6c80 <simplify_trace+0x2d0>
    6a29:	48 83 3a 00          	cmp    QWORD PTR [rdx],0x0
    6a2d:	74 b1                	je     69e0 <simplify_trace+0x30>
    6a2f:	0f b6 42 07          	movzx  eax,BYTE PTR [rdx+0x7]
    6a33:	44 0f b6 6a 06       	movzx  r13d,BYTE PTR [rdx+0x6]
    6a38:	44 0f b6 62 05       	movzx  r12d,BYTE PTR [rdx+0x5]
    6a3d:	0f b6 5a 04          	movzx  ebx,BYTE PTR [rdx+0x4]
    6a41:	44 0f b6 34 06       	movzx  r14d,BYTE PTR [rsi+rax*1]
    6a46:	46 0f b6 2c 2e       	movzx  r13d,BYTE PTR [rsi+r13*1]
    6a4b:	48 8d 42 08          	lea    rax,[rdx+0x8]
    6a4f:	46 0f b6 24 26       	movzx  r12d,BYTE PTR [rsi+r12*1]
    6a54:	44 0f b6 5a 03       	movzx  r11d,BYTE PTR [rdx+0x3]
    6a59:	49 c1 e6 08          	shl    r14,0x8
    6a5d:	0f b6 1c 1e          	movzx  ebx,BYTE PTR [rsi+rbx*1]
    6a61:	44 0f b6 52 02       	movzx  r10d,BYTE PTR [rdx+0x2]
    6a66:	4d 09 ee             	or     r14,r13
    6a69:	46 0f b6 1c 1e       	movzx  r11d,BYTE PTR [rsi+r11*1]
    6a6e:	44 0f b6 4a 01       	movzx  r9d,BYTE PTR [rdx+0x1]
    6a73:	49 c1 e6 08          	shl    r14,0x8
    6a77:	46 0f b6 14 16       	movzx  r10d,BYTE PTR [rsi+r10*1]
    6a7c:	44 0f b6 02          	movzx  r8d,BYTE PTR [rdx]
    6a80:	4d 09 e6             	or     r14,r12
    6a83:	46 0f b6 0c 0e       	movzx  r9d,BYTE PTR [rsi+r9*1]
    6a88:	49 c1 e6 08          	shl    r14,0x8
    6a8c:	46 0f b6 04 06       	movzx  r8d,BYTE PTR [rsi+r8*1]
    6a91:	49 09 de             	or     r14,rbx
    6a94:	49 c1 e6 08          	shl    r14,0x8
    6a98:	4d 09 de             	or     r14,r11
    6a9b:	49 c1 e6 08          	shl    r14,0x8
    6a9f:	4d 09 d6             	or     r14,r10
    6aa2:	49 c1 e6 08          	shl    r14,0x8
    6aa6:	4d 09 ce             	or     r14,r9
    6aa9:	49 c1 e6 08          	shl    r14,0x8
    6aad:	4d 09 c6             	or     r14,r8
    6ab0:	48 83 7a 08 00       	cmp    QWORD PTR [rdx+0x8],0x0
    6ab5:	4c 89 32             	mov    QWORD PTR [rdx],r14
    6ab8:	0f 84 34 ff ff ff    	je     69f2 <simplify_trace+0x42>
    6abe:	66 90                	xchg   ax,ax
    6ac0:	44 0f b6 40 07       	movzx  r8d,BYTE PTR [rax+0x7]
    6ac5:	44 0f b6 70 06       	movzx  r14d,BYTE PTR [rax+0x6]
    6aca:	44 0f b6 68 05       	movzx  r13d,BYTE PTR [rax+0x5]
    6acf:	44 0f b6 60 04       	movzx  r12d,BYTE PTR [rax+0x4]
    6ad4:	46 0f b6 04 06       	movzx  r8d,BYTE PTR [rsi+r8*1]
    6ad9:	46 0f b6 34 36       	movzx  r14d,BYTE PTR [rsi+r14*1]
    6ade:	46 0f b6 2c 2e       	movzx  r13d,BYTE PTR [rsi+r13*1]
    6ae3:	0f b6 58 03          	movzx  ebx,BYTE PTR [rax+0x3]
    6ae7:	49 c1 e0 08          	shl    r8,0x8
    6aeb:	46 0f b6 24 26       	movzx  r12d,BYTE PTR [rsi+r12*1]
    6af0:	44 0f b6 58 02       	movzx  r11d,BYTE PTR [rax+0x2]
    6af5:	4d 09 f0             	or     r8,r14
    6af8:	0f b6 1c 1e          	movzx  ebx,BYTE PTR [rsi+rbx*1]
    6afc:	44 0f b6 50 01       	movzx  r10d,BYTE PTR [rax+0x1]
    6b01:	49 c1 e0 08          	shl    r8,0x8
    6b05:	46 0f b6 1c 1e       	movzx  r11d,BYTE PTR [rsi+r11*1]
    6b0a:	44 0f b6 4a 08       	movzx  r9d,BYTE PTR [rdx+0x8]
    6b0f:	4d 09 e8             	or     r8,r13
    6b12:	46 0f b6 14 16       	movzx  r10d,BYTE PTR [rsi+r10*1]
    6b17:	49 c1 e0 08          	shl    r8,0x8
    6b1b:	46 0f b6 0c 0e       	movzx  r9d,BYTE PTR [rsi+r9*1]
    6b20:	4d 09 e0             	or     r8,r12
    6b23:	49 c1 e0 08          	shl    r8,0x8
    6b27:	49 09 d8             	or     r8,rbx
    6b2a:	49 c1 e0 08          	shl    r8,0x8
    6b2e:	4d 09 d8             	or     r8,r11
    6b31:	49 c1 e0 08          	shl    r8,0x8
    6b35:	4d 09 d0             	or     r8,r10
    6b38:	49 c1 e0 08          	shl    r8,0x8
    6b3c:	4d 09 c8             	or     r8,r9
    6b3f:	4c 89 42 08          	mov    QWORD PTR [rdx+0x8],r8
    6b43:	48 83 78 08 00       	cmp    QWORD PTR [rax+0x8],0x0
    6b48:	48 8d 50 08          	lea    rdx,[rax+0x8]
    6b4c:	0f 84 b3 fe ff ff    	je     6a05 <simplify_trace+0x55>
    6b52:	66 0f 1f 44 00 00    	nop    WORD PTR [rax+rax*1+0x0]
    6b58:	44 0f b6 4a 07       	movzx  r9d,BYTE PTR [rdx+0x7]
    6b5d:	44 0f b6 6a 06       	movzx  r13d,BYTE PTR [rdx+0x6]
    6b62:	44 0f b6 72 01       	movzx  r14d,BYTE PTR [rdx+0x1]
    6b67:	44 0f b6 52 02       	movzx  r10d,BYTE PTR [rdx+0x2]
    6b6c:	44 0f b6 5a 03       	movzx  r11d,BYTE PTR [rdx+0x3]
    6b71:	0f b6 5a 04          	movzx  ebx,BYTE PTR [rdx+0x4]
    6b75:	44 0f b6 62 05       	movzx  r12d,BYTE PTR [rdx+0x5]
    6b7a:	42 0f b6 14 0e       	movzx  edx,BYTE PTR [rsi+r9*1]
    6b7f:	46 0f b6 2c 2e       	movzx  r13d,BYTE PTR [rsi+r13*1]
    6b84:	0f b6 1c 1e          	movzx  ebx,BYTE PTR [rsi+rbx*1]
    6b88:	48 c1 e2 08          	shl    rdx,0x8
    6b8c:	46 0f b6 24 26       	movzx  r12d,BYTE PTR [rsi+r12*1]
    6b91:	46 0f b6 1c 1e       	movzx  r11d,BYTE PTR [rsi+r11*1]
    6b96:	4c 09 ea             	or     rdx,r13
    6b99:	46 0f b6 14 16       	movzx  r10d,BYTE PTR [rsi+r10*1]
    6b9e:	44 0f b6 40 08       	movzx  r8d,BYTE PTR [rax+0x8]
    6ba3:	48 c1 e2 08          	shl    rdx,0x8
    6ba7:	46 0f b6 34 36       	movzx  r14d,BYTE PTR [rsi+r14*1]
    6bac:	4c 09 e2             	or     rdx,r12
    6baf:	46 0f b6 04 06       	movzx  r8d,BYTE PTR [rsi+r8*1]
    6bb4:	48 c1 e2 08          	shl    rdx,0x8
    6bb8:	48 09 da             	or     rdx,rbx
    6bbb:	48 c1 e2 08          	shl    rdx,0x8
    6bbf:	4c 09 da             	or     rdx,r11
    6bc2:	48 c1 e2 08          	shl    rdx,0x8
    6bc6:	4c 09 d2             	or     rdx,r10
    6bc9:	48 c1 e2 08          	shl    rdx,0x8
    6bcd:	4c 09 f2             	or     rdx,r14
    6bd0:	48 c1 e2 08          	shl    rdx,0x8
    6bd4:	4c 09 c2             	or     rdx,r8
    6bd7:	48 83 78 10 00       	cmp    QWORD PTR [rax+0x10],0x0
    6bdc:	48 89 50 08          	mov    QWORD PTR [rax+0x8],rdx
    6be0:	48 8d 50 10          	lea    rdx,[rax+0x10]
    6be4:	0f 84 2e fe ff ff    	je     6a18 <simplify_trace+0x68>
    6bea:	66 0f 1f 44 00 00    	nop    WORD PTR [rax+rax*1+0x0]
    6bf0:	44 0f b6 42 07       	movzx  r8d,BYTE PTR [rdx+0x7]
    6bf5:	44 0f b6 6a 06       	movzx  r13d,BYTE PTR [rdx+0x6]
    6bfa:	44 0f b6 4a 01       	movzx  r9d,BYTE PTR [rdx+0x1]
    6bff:	44 0f b6 52 02       	movzx  r10d,BYTE PTR [rdx+0x2]
    6c04:	44 0f b6 5a 03       	movzx  r11d,BYTE PTR [rdx+0x3]
    6c09:	0f b6 5a 04          	movzx  ebx,BYTE PTR [rdx+0x4]
    6c0d:	44 0f b6 62 05       	movzx  r12d,BYTE PTR [rdx+0x5]
    6c12:	42 0f b6 14 06       	movzx  edx,BYTE PTR [rsi+r8*1]
    6c17:	46 0f b6 2c 2e       	movzx  r13d,BYTE PTR [rsi+r13*1]
    6c1c:	0f b6 1c 1e          	movzx  ebx,BYTE PTR [rsi+rbx*1]
    6c20:	48 c1 e2 08          	shl    rdx,0x8
    6c24:	46 0f b6 24 26       	movzx  r12d,BYTE PTR [rsi+r12*1]
    6c29:	46 0f b6 1c 1e       	movzx  r11d,BYTE PTR [rsi+r11*1]
    6c2e:	4c 09 ea             	or     rdx,r13
    6c31:	46 0f b6 14 16       	movzx  r10d,BYTE PTR [rsi+r10*1]
    6c36:	44 0f b6 70 10       	movzx  r14d,BYTE PTR [rax+0x10]
    6c3b:	48 c1 e2 08          	shl    rdx,0x8
    6c3f:	46 0f b6 0c 0e       	movzx  r9d,BYTE PTR [rsi+r9*1]
    6c44:	4c 09 e2             	or     rdx,r12
    6c47:	46 0f b6 34 36       	movzx  r14d,BYTE PTR [rsi+r14*1]
    6c4c:	48 c1 e2 08          	shl    rdx,0x8
    6c50:	48 09 da             	or     rdx,rbx
    6c53:	48 c1 e2 08          	shl    rdx,0x8
    6c57:	4c 09 da             	or     rdx,r11
    6c5a:	48 c1 e2 08          	shl    rdx,0x8
    6c5e:	4c 09 d2             	or     rdx,r10
    6c61:	48 c1 e2 08          	shl    rdx,0x8
    6c65:	4c 09 ca             	or     rdx,r9
    6c68:	48 c1 e2 08          	shl    rdx,0x8
    6c6c:	4c 09 f2             	or     rdx,r14
    6c6f:	48 89 50 10          	mov    QWORD PTR [rax+0x10],rdx
    6c73:	48 8d 50 18          	lea    rdx,[rax+0x18]
    6c77:	48 39 d7             	cmp    rdi,rdx
    6c7a:	0f 85 a9 fd ff ff    	jne    6a29 <simplify_trace+0x79>
    6c80:	5b                   	pop    rbx
    6c81:	41 5c                	pop    r12
    6c83:	41 5d                	pop    r13
    6c85:	41 5e                	pop    r14
    6c87:	5d                   	pop    rbp
    6c88:	c3                   	ret    
    6c89:	0f 1f 80 00 00 00 00 	nop    DWORD PTR [rax+0x0]

0000000000006c90 <DI>:
    6c90:	55                   	push   rbp
    6c91:	48 89 e5             	mov    rbp,rsp
    6c94:	53                   	push   rbx
    6c95:	48 83 ec 08          	sub    rsp,0x8
    6c99:	ff 15 41 13 02 00    	call   QWORD PTR [rip+0x21341]        # 27fe0 <mcount@GLIBC_2.2.5>
    6c9f:	ba ab aa aa aa       	mov    edx,0xaaaaaaab
    6ca4:	49 89 f8             	mov    r8,rdi
    6ca7:	0f b6 3d f2 47 03 00 	movzx  edi,BYTE PTR [rip+0x347f2]        # 3b4a0 <cur.39>
    6cae:	8d 47 01             	lea    eax,[rdi+0x1]
    6cb1:	48 89 c1             	mov    rcx,rax
    6cb4:	48 0f af c2          	imul   rax,rdx
    6cb8:	48 c1 e8 23          	shr    rax,0x23
    6cbc:	8d 1c 40             	lea    ebx,[rax+rax*2]
    6cbf:	c1 e3 02             	shl    ebx,0x2
    6cc2:	29 d9                	sub    ecx,ebx
    6cc4:	48 8d 1d 15 47 03 00 	lea    rbx,[rip+0x34715]        # 3b3e0 <tmp.38>
    6ccb:	48 63 f9             	movsxd rdi,ecx
    6cce:	88 0d cc 47 03 00    	mov    BYTE PTR [rip+0x347cc],cl        # 3b4a0 <cur.39>
    6cd4:	48 8d 0d 52 03 01 00 	lea    rcx,[rip+0x10352]        # 1702d <_IO_stdin_used+0x2d>
    6cdb:	48 c1 e7 04          	shl    rdi,0x4
    6cdf:	48 01 df             	add    rdi,rbx
    6ce2:	49 81 f8 0f 27 00 00 	cmp    r8,0x270f
    6ce9:	0f 86 63 01 00 00    	jbe    6e52 <DI+0x1c2>
    6cef:	c5 f8 57 c0          	vxorps xmm0,xmm0,xmm0
    6cf3:	4d 85 c0             	test   r8,r8
    6cf6:	0f 88 cc 00 00 00    	js     6dc8 <DI+0x138>
    6cfc:	c4 c1 fb 2a d0       	vcvtsi2sd xmm2,xmm0,r8
    6d01:	c5 fb 10 1d af 7e 01 	vmovsd xmm3,QWORD PTR [rip+0x17eaf]        # 1ebb8 <interesting_16+0x38>
    6d08:	00 
    6d09:	c5 f9 2f da          	vcomisd xmm3,xmm2
    6d0d:	0f 87 e0 00 00 00    	ja     6df3 <DI+0x163>
    6d13:	49 81 f8 3f 42 0f 00 	cmp    r8,0xf423f
    6d1a:	0f 86 10 01 00 00    	jbe    6e30 <DI+0x1a0>
    6d20:	c5 fb 10 25 a0 7e 01 	vmovsd xmm4,QWORD PTR [rip+0x17ea0]        # 1ebc8 <interesting_16+0x48>
    6d27:	00 
    6d28:	c5 f9 2f e2          	vcomisd xmm4,xmm2
    6d2c:	0f 87 4e 01 00 00    	ja     6e80 <DI+0x1f0>
    6d32:	c5 fb 10 2d 9e 7e 01 	vmovsd xmm5,QWORD PTR [rip+0x17e9e]        # 1ebd8 <interesting_16+0x58>
    6d39:	00 
    6d3a:	c5 f9 2f ea          	vcomisd xmm5,xmm2
    6d3e:	0f 87 54 01 00 00    	ja     6e98 <DI+0x208>
    6d44:	49 81 f8 ff c9 9a 3b 	cmp    r8,0x3b9ac9ff
    6d4b:	0f 86 5f 01 00 00    	jbe    6eb0 <DI+0x220>
    6d51:	c5 fb 10 35 87 7e 01 	vmovsd xmm6,QWORD PTR [rip+0x17e87]        # 1ebe0 <interesting_16+0x60>
    6d58:	00 
    6d59:	c5 f9 2f f2          	vcomisd xmm6,xmm2
    6d5d:	0f 87 6d 01 00 00    	ja     6ed0 <DI+0x240>
    6d63:	c5 fb 10 3d 85 7e 01 	vmovsd xmm7,QWORD PTR [rip+0x17e85]        # 1ebf0 <interesting_16+0x70>
    6d6a:	00 
    6d6b:	c5 f9 2f fa          	vcomisd xmm7,xmm2
    6d6f:	0f 87 73 01 00 00    	ja     6ee8 <DI+0x258>
    6d75:	49 ba ff 0f a5 d4 e8 	movabs r10,0xe8d4a50fff
    6d7c:	00 00 00 
    6d7f:	4d 39 d0             	cmp    r8,r10
    6d82:	0f 86 90 01 00 00    	jbe    6f18 <DI+0x288>
    6d88:	c5 7b 10 05 68 7e 01 	vmovsd xmm8,QWORD PTR [rip+0x17e68]        # 1ebf8 <interesting_16+0x78>
    6d8f:	00 
    6d90:	c5 79 2f c2          	vcomisd xmm8,xmm2
    6d94:	0f 87 a6 01 00 00    	ja     6f40 <DI+0x2b0>
    6d9a:	c5 7b 10 0d 66 7e 01 	vmovsd xmm9,QWORD PTR [rip+0x17e66]        # 1ec08 <interesting_16+0x88>
    6da1:	00 
    6da2:	c5 79 2f ca          	vcomisd xmm9,xmm2
    6da6:	0f 87 54 01 00 00    	ja     6f00 <DI+0x270>
    6dac:	41 b8 79 00 00 00    	mov    r8d,0x79
    6db2:	c7 07 69 6e 66 74    	mov    DWORD PTR [rdi],0x74666e69
    6db8:	66 44 89 47 04       	mov    WORD PTR [rdi+0x4],r8w
    6dbd:	e9 b1 00 00 00       	jmp    6e73 <DI+0x1e3>
    6dc2:	66 0f 1f 44 00 00    	nop    WORD PTR [rax+rax*1+0x0]
    6dc8:	4c 89 c6             	mov    rsi,r8
    6dcb:	4d 89 c1             	mov    r9,r8
    6dce:	c5 fb 10 1d e2 7d 01 	vmovsd xmm3,QWORD PTR [rip+0x17de2]        # 1ebb8 <interesting_16+0x38>
    6dd5:	00 
    6dd6:	48 d1 ee             	shr    rsi,1
    6dd9:	41 83 e1 01          	and    r9d,0x1
    6ddd:	4c 09 ce             	or     rsi,r9
    6de0:	c4 e1 fb 2a ce       	vcvtsi2sd xmm1,xmm0,rsi
    6de5:	c5 f3 58 d1          	vaddsd xmm2,xmm1,xmm1
    6de9:	c5 f9 2f da          	vcomisd xmm3,xmm2
    6ded:	0f 86 20 ff ff ff    	jbe    6d13 <DI+0x83>
    6df3:	48 8d 0d 38 02 01 00 	lea    rcx,[rip+0x10238]        # 17032 <_IO_stdin_used+0x32>
    6dfa:	c5 eb 5e 05 be 7d 01 	vdivsd xmm0,xmm2,QWORD PTR [rip+0x17dbe]        # 1ebc0 <interesting_16+0x40>
    6e01:	00 
    6e02:	48 c7 c2 ff ff ff ff 	mov    rdx,0xffffffffffffffff
    6e09:	be 01 00 00 00       	mov    esi,0x1
    6e0e:	b8 01 00 00 00       	mov    eax,0x1
    6e13:	e8 08 ca ff ff       	call   3820 <__sprintf_chk@plt>
    6e18:	0f b6 3d 81 46 03 00 	movzx  edi,BYTE PTR [rip+0x34681]        # 3b4a0 <cur.39>
    6e1f:	48 c1 e7 04          	shl    rdi,0x4
    6e23:	48 01 df             	add    rdi,rbx
    6e26:	48 8b 5d f8          	mov    rbx,QWORD PTR [rbp-0x8]
    6e2a:	c9                   	leave  
    6e2b:	48 89 f8             	mov    rax,rdi
    6e2e:	c3                   	ret    
    6e2f:	90                   	nop
    6e30:	49 c1 e8 03          	shr    r8,0x3
    6e34:	48 8d 0d ff 01 01 00 	lea    rcx,[rip+0x101ff]        # 1703a <_IO_stdin_used+0x3a>
    6e3b:	48 be cf f7 53 e3 a5 	movabs rsi,0x20c49ba5e353f7cf
    6e42:	9b c4 20 
    6e45:	4c 89 c0             	mov    rax,r8
    6e48:	48 f7 e6             	mul    rsi
    6e4b:	49 89 d0             	mov    r8,rdx
    6e4e:	49 c1 e8 04          	shr    r8,0x4
    6e52:	48 c7 c2 ff ff ff ff 	mov    rdx,0xffffffffffffffff
    6e59:	be 01 00 00 00       	mov    esi,0x1
    6e5e:	31 c0                	xor    eax,eax
    6e60:	e8 bb c9 ff ff       	call   3820 <__sprintf_chk@plt>
    6e65:	0f b6 3d 34 46 03 00 	movzx  edi,BYTE PTR [rip+0x34634]        # 3b4a0 <cur.39>
    6e6c:	48 c1 e7 04          	shl    rdi,0x4
    6e70:	48 01 df             	add    rdi,rbx
    6e73:	48 8b 5d f8          	mov    rbx,QWORD PTR [rbp-0x8]
    6e77:	48 89 f8             	mov    rax,rdi
    6e7a:	c9                   	leave  
    6e7b:	c3                   	ret    
    6e7c:	0f 1f 40 00          	nop    DWORD PTR [rax+0x0]
    6e80:	48 8d 0d b9 01 01 00 	lea    rcx,[rip+0x101b9]        # 17040 <_IO_stdin_used+0x40>
    6e87:	c5 eb 5e 05 41 7d 01 	vdivsd xmm0,xmm2,QWORD PTR [rip+0x17d41]        # 1ebd0 <interesting_16+0x50>
    6e8e:	00 
    6e8f:	e9 6e ff ff ff       	jmp    6e02 <DI+0x172>
    6e94:	0f 1f 40 00          	nop    DWORD PTR [rax+0x0]
    6e98:	48 8d 0d a9 01 01 00 	lea    rcx,[rip+0x101a9]        # 17048 <_IO_stdin_used+0x48>
    6e9f:	c5 eb 5e 05 29 7d 01 	vdivsd xmm0,xmm2,QWORD PTR [rip+0x17d29]        # 1ebd0 <interesting_16+0x50>
    6ea6:	00 
    6ea7:	e9 56 ff ff ff       	jmp    6e02 <DI+0x172>
    6eac:	0f 1f 40 00          	nop    DWORD PTR [rax+0x0]
    6eb0:	48 b9 db 34 b6 d7 82 	movabs rcx,0x431bde82d7b634db
    6eb7:	de 1b 43 
    6eba:	4c 89 c0             	mov    rax,r8
    6ebd:	48 f7 e1             	mul    rcx
    6ec0:	48 8d 0d 89 01 01 00 	lea    rcx,[rip+0x10189]        # 17050 <_IO_stdin_used+0x50>
    6ec7:	48 c1 ea 12          	shr    rdx,0x12
    6ecb:	49 89 d0             	mov    r8,rdx
    6ece:	eb 82                	jmp    6e52 <DI+0x1c2>
    6ed0:	48 8d 0d 7f 01 01 00 	lea    rcx,[rip+0x1017f]        # 17056 <_IO_stdin_used+0x56>
    6ed7:	c5 eb 5e 05 09 7d 01 	vdivsd xmm0,xmm2,QWORD PTR [rip+0x17d09]        # 1ebe8 <interesting_16+0x68>
    6ede:	00 
    6edf:	e9 1e ff ff ff       	jmp    6e02 <DI+0x172>
    6ee4:	0f 1f 40 00          	nop    DWORD PTR [rax+0x0]
    6ee8:	48 8d 0d 6f 01 01 00 	lea    rcx,[rip+0x1016f]        # 1705e <_IO_stdin_used+0x5e>
    6eef:	c5 eb 5e 05 f1 7c 01 	vdivsd xmm0,xmm2,QWORD PTR [rip+0x17cf1]        # 1ebe8 <interesting_16+0x68>
    6ef6:	00 
    6ef7:	e9 06 ff ff ff       	jmp    6e02 <DI+0x172>
    6efc:	0f 1f 40 00          	nop    DWORD PTR [rax+0x0]
    6f00:	48 8d 0d 6d 01 01 00 	lea    rcx,[rip+0x1016d]        # 17074 <_IO_stdin_used+0x74>
    6f07:	c5 eb 5e 05 f1 7c 01 	vdivsd xmm0,xmm2,QWORD PTR [rip+0x17cf1]        # 1ec00 <interesting_16+0x80>
    6f0e:	00 
    6f0f:	e9 ee fe ff ff       	jmp    6e02 <DI+0x172>
    6f14:	0f 1f 40 00          	nop    DWORD PTR [rax+0x0]
    6f18:	49 c1 e8 09          	shr    r8,0x9
    6f1c:	48 8d 0d 43 01 01 00 	lea    rcx,[rip+0x10143]        # 17066 <_IO_stdin_used+0x66>
    6f23:	49 bb 53 5a 9b a0 2f 	movabs r11,0x44b82fa09b5a53
    6f2a:	b8 44 00 
    6f2d:	4c 89 c0             	mov    rax,r8
    6f30:	49 f7 e3             	mul    r11
    6f33:	49 89 d0             	mov    r8,rdx
    6f36:	49 c1 e8 0b          	shr    r8,0xb
    6f3a:	e9 13 ff ff ff       	jmp    6e52 <DI+0x1c2>
    6f3f:	90                   	nop
    6f40:	48 8d 0d 25 01 01 00 	lea    rcx,[rip+0x10125]        # 1706c <_IO_stdin_used+0x6c>
    6f47:	c5 eb 5e 05 b1 7c 01 	vdivsd xmm0,xmm2,QWORD PTR [rip+0x17cb1]        # 1ec00 <interesting_16+0x80>
    6f4e:	00 
    6f4f:	e9 ae fe ff ff       	jmp    6e02 <DI+0x172>
    6f54:	66 66 2e 0f 1f 84 00 	data16 cs nop WORD PTR [rax+rax*1+0x0]
    6f5b:	00 00 00 00 
    6f5f:	90                   	nop

0000000000006f60 <DMS>:
    6f60:	55                   	push   rbp
    6f61:	48 89 e5             	mov    rbp,rsp
    6f64:	53                   	push   rbx
    6f65:	48 83 ec 08          	sub    rsp,0x8
    6f69:	ff 15 71 10 02 00    	call   QWORD PTR [rip+0x21071]        # 27fe0 <mcount@GLIBC_2.2.5>
    6f6f:	0f b6 05 6a 56 03 00 	movzx  eax,BYTE PTR [rip+0x3566a]        # 3c5e0 <cur.67>
    6f76:	b9 ab aa aa aa       	mov    ecx,0xaaaaaaab
    6f7b:	8d 50 01             	lea    edx,[rax+0x1]
    6f7e:	48 89 d0             	mov    rax,rdx
    6f81:	48 0f af d1          	imul   rdx,rcx
    6f85:	48 8d 0d f0 00 01 00 	lea    rcx,[rip+0x100f0]        # 1707c <_IO_stdin_used+0x7c>
    6f8c:	48 c1 ea 23          	shr    rdx,0x23
    6f90:	49 89 f8             	mov    r8,rdi
    6f93:	8d 1c 52             	lea    ebx,[rdx+rdx*2]
    6f96:	c1 e3 02             	shl    ebx,0x2
    6f99:	29 d8                	sub    eax,ebx
    6f9b:	48 8d 1d 7e 55 03 00 	lea    rbx,[rip+0x3557e]        # 3c520 <tmp.66>
    6fa2:	88 05 38 56 03 00    	mov    BYTE PTR [rip+0x35638],al        # 3c5e0 <cur.67>
    6fa8:	48 98                	cdqe   
    6faa:	48 c1 e0 04          	shl    rax,0x4
    6fae:	48 01 d8             	add    rax,rbx
    6fb1:	48 81 ff 0f 27 00 00 	cmp    rdi,0x270f
    6fb8:	0f 86 48 01 00 00    	jbe    7106 <DMS+0x1a6>
    6fbe:	c5 f8 57 c0          	vxorps xmm0,xmm0,xmm0
    6fc2:	48 85 ff             	test   rdi,rdi
    6fc5:	0f 88 c5 00 00 00    	js     7090 <DMS+0x130>
    6fcb:	c4 e1 fb 2a d7       	vcvtsi2sd xmm2,xmm0,rdi
    6fd0:	c5 fb 10 1d 38 7c 01 	vmovsd xmm3,QWORD PTR [rip+0x17c38]        # 1ec10 <interesting_16+0x90>
    6fd7:	00 
    6fd8:	c5 f9 2f da          	vcomisd xmm3,xmm2
    6fdc:	0f 87 d6 00 00 00    	ja     70b8 <DMS+0x158>
    6fe2:	48 81 ff ff 9f 0f 00 	cmp    rdi,0xf9fff
    6fe9:	0f 86 09 01 00 00    	jbe    70f8 <DMS+0x198>
    6fef:	c5 fb 10 25 29 7c 01 	vmovsd xmm4,QWORD PTR [rip+0x17c29]        # 1ec20 <interesting_16+0xa0>
    6ff6:	00 
    6ff7:	c5 f9 2f e2          	vcomisd xmm4,xmm2
    6ffb:	0f 87 2f 01 00 00    	ja     7130 <DMS+0x1d0>
    7001:	c5 fb 10 2d 27 7c 01 	vmovsd xmm5,QWORD PTR [rip+0x17c27]        # 1ec30 <interesting_16+0xb0>
    7008:	00 
    7009:	c5 f9 2f ea          	vcomisd xmm5,xmm2
    700d:	0f 87 35 01 00 00    	ja     7148 <DMS+0x1e8>
    7013:	48 81 ff ff ff 7f 3e 	cmp    rdi,0x3e7fffff
    701a:	0f 86 40 01 00 00    	jbe    7160 <DMS+0x200>
    7020:	c5 fb 10 35 10 7c 01 	vmovsd xmm6,QWORD PTR [rip+0x17c10]        # 1ec38 <interesting_16+0xb8>
    7027:	00 
    7028:	c5 f9 2f f2          	vcomisd xmm6,xmm2
    702c:	0f 87 3e 01 00 00    	ja     7170 <DMS+0x210>
    7032:	c5 fb 10 3d 0e 7c 01 	vmovsd xmm7,QWORD PTR [rip+0x17c0e]        # 1ec48 <interesting_16+0xc8>
    7039:	00 
    703a:	c5 f9 2f fa          	vcomisd xmm7,xmm2
    703e:	0f 87 44 01 00 00    	ja     7188 <DMS+0x228>
    7044:	49 b9 ff ff ff ff f9 	movabs r9,0xf9ffffffff
    704b:	00 00 00 
    704e:	4c 39 cf             	cmp    rdi,r9
    7051:	0f 86 61 01 00 00    	jbe    71b8 <DMS+0x258>
    7057:	c5 7b 10 05 f1 7b 01 	vmovsd xmm8,QWORD PTR [rip+0x17bf1]        # 1ec50 <interesting_16+0xd0>
    705e:	00 
    705f:	c5 79 2f c2          	vcomisd xmm8,xmm2
    7063:	0f 87 67 01 00 00    	ja     71d0 <DMS+0x270>
    7069:	c5 7b 10 0d ef 7b 01 	vmovsd xmm9,QWORD PTR [rip+0x17bef]        # 1ec60 <interesting_16+0xe0>
    7070:	00 
    7071:	c5 79 2f ca          	vcomisd xmm9,xmm2
    7075:	0f 87 25 01 00 00    	ja     71a0 <DMS+0x240>
    707b:	bf 79 00 00 00       	mov    edi,0x79
    7080:	c7 00 69 6e 66 74    	mov    DWORD PTR [rax],0x74666e69
    7086:	66 89 78 04          	mov    WORD PTR [rax+0x4],di
    708a:	e9 9b 00 00 00       	jmp    712a <DMS+0x1ca>
    708f:	90                   	nop
    7090:	48 89 fe             	mov    rsi,rdi
    7093:	41 83 e0 01          	and    r8d,0x1
    7097:	c5 fb 10 1d 71 7b 01 	vmovsd xmm3,QWORD PTR [rip+0x17b71]        # 1ec10 <interesting_16+0x90>
    709e:	00 
    709f:	48 d1 ee             	shr    rsi,1
    70a2:	4c 09 c6             	or     rsi,r8
    70a5:	c4 e1 fb 2a ce       	vcvtsi2sd xmm1,xmm0,rsi
    70aa:	c5 f3 58 d1          	vaddsd xmm2,xmm1,xmm1
    70ae:	c5 f9 2f da          	vcomisd xmm3,xmm2
    70b2:	0f 86 2a ff ff ff    	jbe    6fe2 <DMS+0x82>
    70b8:	c5 eb 59 05 58 7b 01 	vmulsd xmm0,xmm2,QWORD PTR [rip+0x17b58]        # 1ec18 <interesting_16+0x98>
    70bf:	00 
    70c0:	48 8d 0d bc ff 00 00 	lea    rcx,[rip+0xffbc]        # 17083 <_IO_stdin_used+0x83>
    70c7:	48 89 c7             	mov    rdi,rax
    70ca:	48 c7 c2 ff ff ff ff 	mov    rdx,0xffffffffffffffff
    70d1:	be 01 00 00 00       	mov    esi,0x1
    70d6:	b8 01 00 00 00       	mov    eax,0x1
    70db:	e8 40 c7 ff ff       	call   3820 <__sprintf_chk@plt>
    70e0:	0f b6 05 f9 54 03 00 	movzx  eax,BYTE PTR [rip+0x354f9]        # 3c5e0 <cur.67>
    70e7:	48 c1 e0 04          	shl    rax,0x4
    70eb:	48 01 d8             	add    rax,rbx
    70ee:	48 8b 5d f8          	mov    rbx,QWORD PTR [rbp-0x8]
    70f2:	c9                   	leave  
    70f3:	c3                   	ret    
    70f4:	0f 1f 40 00          	nop    DWORD PTR [rax+0x0]
    70f8:	48 c1 ef 0a          	shr    rdi,0xa
    70fc:	48 8d 0d 8a ff 00 00 	lea    rcx,[rip+0xff8a]        # 1708d <_IO_stdin_used+0x8d>
    7103:	49 89 f8             	mov    r8,rdi
    7106:	48 89 c7             	mov    rdi,rax
    7109:	48 c7 c2 ff ff ff ff 	mov    rdx,0xffffffffffffffff
    7110:	be 01 00 00 00       	mov    esi,0x1
    7115:	31 c0                	xor    eax,eax
    7117:	e8 04 c7 ff ff       	call   3820 <__sprintf_chk@plt>
    711c:	0f b6 05 bd 54 03 00 	movzx  eax,BYTE PTR [rip+0x354bd]        # 3c5e0 <cur.67>
    7123:	48 c1 e0 04          	shl    rax,0x4
    7127:	48 01 d8             	add    rax,rbx
    712a:	48 8b 5d f8          	mov    rbx,QWORD PTR [rbp-0x8]
    712e:	c9                   	leave  
    712f:	c3                   	ret    
    7130:	c5 eb 59 05 f0 7a 01 	vmulsd xmm0,xmm2,QWORD PTR [rip+0x17af0]        # 1ec28 <interesting_16+0xa8>
    7137:	00 
    7138:	48 8d 0d 56 ff 00 00 	lea    rcx,[rip+0xff56]        # 17095 <_IO_stdin_used+0x95>
    713f:	eb 86                	jmp    70c7 <DMS+0x167>
    7141:	0f 1f 80 00 00 00 00 	nop    DWORD PTR [rax+0x0]
    7148:	c5 eb 59 05 d8 7a 01 	vmulsd xmm0,xmm2,QWORD PTR [rip+0x17ad8]        # 1ec28 <interesting_16+0xa8>
    714f:	00 
    7150:	48 8d 0d 48 ff 00 00 	lea    rcx,[rip+0xff48]        # 1709f <_IO_stdin_used+0x9f>
    7157:	e9 6b ff ff ff       	jmp    70c7 <DMS+0x167>
    715c:	0f 1f 40 00          	nop    DWORD PTR [rax+0x0]
    7160:	48 c1 ef 14          	shr    rdi,0x14
    7164:	48 8d 0d 3e ff 00 00 	lea    rcx,[rip+0xff3e]        # 170a9 <_IO_stdin_used+0xa9>
    716b:	49 89 f8             	mov    r8,rdi
    716e:	eb 96                	jmp    7106 <DMS+0x1a6>
    7170:	c5 eb 59 05 c8 7a 01 	vmulsd xmm0,xmm2,QWORD PTR [rip+0x17ac8]        # 1ec40 <interesting_16+0xc0>
    7177:	00 
    7178:	48 8d 0d 32 ff 00 00 	lea    rcx,[rip+0xff32]        # 170b1 <_IO_stdin_used+0xb1>
    717f:	e9 43 ff ff ff       	jmp    70c7 <DMS+0x167>
    7184:	0f 1f 40 00          	nop    DWORD PTR [rax+0x0]
    7188:	c5 eb 59 05 b0 7a 01 	vmulsd xmm0,xmm2,QWORD PTR [rip+0x17ab0]        # 1ec40 <interesting_16+0xc0>
    718f:	00 
    7190:	48 8d 0d 24 ff 00 00 	lea    rcx,[rip+0xff24]        # 170bb <_IO_stdin_used+0xbb>
    7197:	e9 2b ff ff ff       	jmp    70c7 <DMS+0x167>
    719c:	0f 1f 40 00          	nop    DWORD PTR [rax+0x0]
    71a0:	c5 eb 59 05 b0 7a 01 	vmulsd xmm0,xmm2,QWORD PTR [rip+0x17ab0]        # 1ec58 <interesting_16+0xd8>
    71a7:	00 
    71a8:	48 8d 0d 28 ff 00 00 	lea    rcx,[rip+0xff28]        # 170d7 <_IO_stdin_used+0xd7>
    71af:	e9 13 ff ff ff       	jmp    70c7 <DMS+0x167>
    71b4:	0f 1f 40 00          	nop    DWORD PTR [rax+0x0]
    71b8:	48 c1 ef 1e          	shr    rdi,0x1e
    71bc:	48 8d 0d 02 ff 00 00 	lea    rcx,[rip+0xff02]        # 170c5 <_IO_stdin_used+0xc5>
    71c3:	49 89 f8             	mov    r8,rdi
    71c6:	e9 3b ff ff ff       	jmp    7106 <DMS+0x1a6>
    71cb:	0f 1f 44 00 00       	nop    DWORD PTR [rax+rax*1+0x0]
    71d0:	c5 eb 59 05 80 7a 01 	vmulsd xmm0,xmm2,QWORD PTR [rip+0x17a80]        # 1ec58 <interesting_16+0xd8>
    71d7:	00 
    71d8:	48 8d 0d ee fe 00 00 	lea    rcx,[rip+0xfeee]        # 170cd <_IO_stdin_used+0xcd>
    71df:	e9 e3 fe ff ff       	jmp    70c7 <DMS+0x167>
    71e4:	66 66 2e 0f 1f 84 00 	data16 cs nop WORD PTR [rax+rax*1+0x0]
    71eb:	00 00 00 00 
    71ef:	90                   	nop

00000000000071f0 <describe_op>:
    71f0:	55                   	push   rbp
    71f1:	48 89 e5             	mov    rbp,rsp
    71f4:	41 55                	push   r13
    71f6:	41 54                	push   r12
    71f8:	53                   	push   rbx
    71f9:	48 83 ec 08          	sub    rsp,0x8
    71fd:	ff 15 dd 0d 02 00    	call   QWORD PTR [rip+0x20ddd]        # 27fe0 <mcount@GLIBC_2.2.5>
    7203:	4c 8b 05 96 56 0d 00 	mov    r8,QWORD PTR [rip+0xd5696]        # dc8a0 <syncing_party>
    720a:	89 fb                	mov    ebx,edi
    720c:	4d 85 c0             	test   r8,r8
    720f:	74 47                	je     7258 <describe_op+0x68>
    7211:	4c 8d 25 88 10 02 00 	lea    r12,[rip+0x21088]        # 282a0 <ret.25>
    7218:	44 8b 0d 6d 56 0d 00 	mov    r9d,DWORD PTR [rip+0xd566d]        # dc88c <syncing_case>
    721f:	ba 00 01 00 00       	mov    edx,0x100
    7224:	31 c0                	xor    eax,eax
    7226:	48 8d 0d b8 fe 00 00 	lea    rcx,[rip+0xfeb8]        # 170e5 <_IO_stdin_used+0xe5>
    722d:	be 01 00 00 00       	mov    esi,0x1
    7232:	4c 89 e7             	mov    rdi,r12
    7235:	e8 e6 c5 ff ff       	call   3820 <__sprintf_chk@plt>
    723a:	80 fb 02             	cmp    bl,0x2
    723d:	0f 84 0d 01 00 00    	je     7350 <describe_op+0x160>
    7243:	48 83 c4 08          	add    rsp,0x8
    7247:	4c 89 e0             	mov    rax,r12
    724a:	5b                   	pop    rbx
    724b:	41 5c                	pop    r12
    724d:	41 5d                	pop    r13
    724f:	5d                   	pop    rbp
    7250:	c3                   	ret    
    7251:	0f 1f 80 00 00 00 00 	nop    DWORD PTR [rax+0x0]
    7258:	44 8b 05 f1 56 0d 00 	mov    r8d,DWORD PTR [rip+0xd56f1]        # dc950 <current_entry>
    725f:	4c 8d 25 3a 10 02 00 	lea    r12,[rip+0x2103a]        # 282a0 <ret.25>
    7266:	ba 00 01 00 00       	mov    edx,0x100
    726b:	31 c0                	xor    eax,eax
    726d:	48 8d 0d 79 fe 00 00 	lea    rcx,[rip+0xfe79]        # 170ed <_IO_stdin_used+0xed>
    7274:	be 01 00 00 00       	mov    esi,0x1
    7279:	4c 89 e7             	mov    rdi,r12
    727c:	e8 9f c5 ff ff       	call   3820 <__sprintf_chk@plt>
    7281:	44 8b 2d 8c 0d 02 00 	mov    r13d,DWORD PTR [rip+0x20d8c]        # 28014 <splicing_with>
    7288:	45 85 ed             	test   r13d,r13d
    728b:	0f 89 e7 00 00 00    	jns    7378 <describe_op+0x188>
    7291:	4c 89 e7             	mov    rdi,r12
    7294:	e8 97 bf ff ff       	call   3230 <strlen@plt>
    7299:	4c 8b 05 08 56 0d 00 	mov    r8,QWORD PTR [rip+0xd5608]        # dc8a8 <stage_short>
    72a0:	be 01 00 00 00       	mov    esi,0x1
    72a5:	48 8d 0d 50 fe 00 00 	lea    rcx,[rip+0xfe50]        # 170fc <_IO_stdin_used+0xfc>
    72ac:	49 8d 3c 04          	lea    rdi,[r12+rax*1]
    72b0:	48 c7 c2 ff ff ff ff 	mov    rdx,0xffffffffffffffff
    72b7:	31 c0                	xor    eax,eax
    72b9:	e8 62 c5 ff ff       	call   3820 <__sprintf_chk@plt>
    72be:	44 8b 2d c3 55 0d 00 	mov    r13d,DWORD PTR [rip+0xd55c3]        # dc888 <stage_cur_byte>
    72c5:	4c 89 e7             	mov    rdi,r12
    72c8:	45 85 ed             	test   r13d,r13d
    72cb:	0f 88 df 00 00 00    	js     73b0 <describe_op+0x1c0>
    72d1:	e8 5a bf ff ff       	call   3230 <strlen@plt>
    72d6:	45 89 e8             	mov    r8d,r13d
    72d9:	be 01 00 00 00       	mov    esi,0x1
    72de:	48 8d 0d 1e fe 00 00 	lea    rcx,[rip+0xfe1e]        # 17103 <_IO_stdin_used+0x103>
    72e5:	49 8d 3c 04          	lea    rdi,[r12+rax*1]
    72e9:	48 c7 c2 ff ff ff ff 	mov    rdx,0xffffffffffffffff
    72f0:	31 c0                	xor    eax,eax
    72f2:	e8 29 c5 ff ff       	call   3820 <__sprintf_chk@plt>
    72f7:	0f b6 05 82 55 0d 00 	movzx  eax,BYTE PTR [rip+0xd5582]        # dc880 <stage_val_type>
    72fe:	84 c0                	test   al,al
    7300:	0f 84 34 ff ff ff    	je     723a <describe_op+0x4a>
    7306:	3c 02                	cmp    al,0x2
    7308:	48 8d 15 0e 00 01 00 	lea    rdx,[rip+0x1000e]        # 1731d <_IO_stdin_used+0x31d>
    730f:	4c 8d 2d cb fd 00 00 	lea    r13,[rip+0xfdcb]        # 170e1 <_IO_stdin_used+0xe1>
    7316:	4c 89 e7             	mov    rdi,r12
    7319:	4c 0f 45 ea          	cmovne r13,rdx
    731d:	e8 0e bf ff ff       	call   3230 <strlen@plt>
    7322:	44 8b 0d 5b 55 0d 00 	mov    r9d,DWORD PTR [rip+0xd555b]        # dc884 <stage_cur_val>
    7329:	be 01 00 00 00       	mov    esi,0x1
    732e:	48 8d 0d d6 fd 00 00 	lea    rcx,[rip+0xfdd6]        # 1710b <_IO_stdin_used+0x10b>
    7335:	49 8d 3c 04          	lea    rdi,[r12+rax*1]
    7339:	4d 89 e8             	mov    r8,r13
    733c:	48 c7 c2 ff ff ff ff 	mov    rdx,0xffffffffffffffff
    7343:	31 c0                	xor    eax,eax
    7345:	e8 d6 c4 ff ff       	call   3820 <__sprintf_chk@plt>
    734a:	e9 eb fe ff ff       	jmp    723a <describe_op+0x4a>
    734f:	90                   	nop
    7350:	4c 89 e7             	mov    rdi,r12
    7353:	ba 00 01 00 00       	mov    edx,0x100
    7358:	48 8d 35 bf fd 00 00 	lea    rsi,[rip+0xfdbf]        # 1711e <_IO_stdin_used+0x11e>
    735f:	e8 cc bc ff ff       	call   3030 <__strcat_chk@plt>
    7364:	48 83 c4 08          	add    rsp,0x8
    7368:	4c 89 e0             	mov    rax,r12
    736b:	5b                   	pop    rbx
    736c:	41 5c                	pop    r12
    736e:	41 5d                	pop    r13
    7370:	5d                   	pop    rbp
    7371:	c3                   	ret    
    7372:	66 0f 1f 44 00 00    	nop    WORD PTR [rax+rax*1+0x0]
    7378:	4c 89 e7             	mov    rdi,r12
    737b:	e8 b0 be ff ff       	call   3230 <strlen@plt>
    7380:	45 89 e8             	mov    r8d,r13d
    7383:	be 01 00 00 00       	mov    esi,0x1
    7388:	48 8d 0d 67 fd 00 00 	lea    rcx,[rip+0xfd67]        # 170f6 <_IO_stdin_used+0xf6>
    738f:	49 8d 3c 04          	lea    rdi,[r12+rax*1]
    7393:	48 c7 c2 ff ff ff ff 	mov    rdx,0xffffffffffffffff
    739a:	31 c0                	xor    eax,eax
    739c:	e8 7f c4 ff ff       	call   3820 <__sprintf_chk@plt>
    73a1:	e9 eb fe ff ff       	jmp    7291 <describe_op+0xa1>
    73a6:	66 2e 0f 1f 84 00 00 	cs nop WORD PTR [rax+rax*1+0x0]
    73ad:	00 00 00 
    73b0:	e8 7b be ff ff       	call   3230 <strlen@plt>
    73b5:	44 8b 05 c8 54 0d 00 	mov    r8d,DWORD PTR [rip+0xd54c8]        # dc884 <stage_cur_val>
    73bc:	be 01 00 00 00       	mov    esi,0x1
    73c1:	48 8d 0d 4e fd 00 00 	lea    rcx,[rip+0xfd4e]        # 17116 <_IO_stdin_used+0x116>
    73c8:	49 8d 3c 04          	lea    rdi,[r12+rax*1]
    73cc:	48 c7 c2 ff ff ff ff 	mov    rdx,0xffffffffffffffff
    73d3:	31 c0                	xor    eax,eax
    73d5:	e8 46 c4 ff ff       	call   3820 <__sprintf_chk@plt>
    73da:	e9 5b fe ff ff       	jmp    723a <describe_op+0x4a>
    73df:	90                   	nop

00000000000073e0 <usage>:
    73e0:	55                   	push   rbp
    73e1:	48 89 e5             	mov    rbp,rsp
    73e4:	ff 15 f6 0b 02 00    	call   QWORD PTR [rip+0x20bf6]        # 27fe0 <mcount@GLIBC_2.2.5>
    73ea:	4c 8b 0d f7 55 10 00 	mov    r9,QWORD PTR [rip+0x1055f7]        # 10c9e8 <doc_path>
    73f1:	41 b8 32 00 00 00    	mov    r8d,0x32
    73f7:	31 c0                	xor    eax,eax
    73f9:	b9 e8 03 00 00       	mov    ecx,0x3e8
    73fe:	48 8d 35 73 05 01 00 	lea    rsi,[rip+0x10573]        # 17978 <_IO_stdin_used+0x978>
    7405:	48 89 fa             	mov    rdx,rdi
    7408:	bf 01 00 00 00       	mov    edi,0x1
    740d:	e8 5e c1 ff ff       	call   3570 <__printf_chk@plt>
    7412:	bf 01 00 00 00       	mov    edi,0x1
    7417:	e8 c4 c2 ff ff       	call   36e0 <exit@plt>
    741c:	0f 1f 40 00          	nop    DWORD PTR [rax+0x0]

0000000000007420 <DFL_ck_strdup>:
    7420:	55                   	push   rbp
    7421:	48 89 e5             	mov    rbp,rsp
    7424:	41 55                	push   r13
    7426:	41 54                	push   r12
    7428:	ff 15 b2 0b 02 00    	call   QWORD PTR [rip+0x20bb2]        # 27fe0 <mcount@GLIBC_2.2.5>
    742e:	49 89 fd             	mov    r13,rdi
    7431:	48 85 ff             	test   rdi,rdi
    7434:	74 4a                	je     7480 <DFL_ck_strdup+0x60>
    7436:	e8 f5 bd ff ff       	call   3230 <strlen@plt>
    743b:	44 8d 60 01          	lea    r12d,[rax+0x1]
    743f:	41 81 fc 00 00 00 40 	cmp    r12d,0x40000000
    7446:	77 40                	ja     7488 <DFL_ck_strdup+0x68>
    7448:	8d 78 0a             	lea    edi,[rax+0xa]
    744b:	e8 90 c0 ff ff       	call   34e0 <malloc@plt>
    7450:	48 85 c0             	test   rax,rax
    7453:	74 75                	je     74ca <DFL_ck_strdup+0xaa>
    7455:	44 89 e2             	mov    edx,r12d
    7458:	c7 00 00 ff 00 ff    	mov    DWORD PTR [rax],0xff00ff00
    745e:	4c 89 ee             	mov    rsi,r13
    7461:	48 8d 78 08          	lea    rdi,[rax+0x8]
    7465:	44 89 60 04          	mov    DWORD PTR [rax+0x4],r12d
    7469:	c6 44 10 08 f0       	mov    BYTE PTR [rax+rdx*1+0x8],0xf0
    746e:	41 5c                	pop    r12
    7470:	41 5d                	pop    r13
    7472:	5d                   	pop    rbp
    7473:	e9 c8 bf ff ff       	jmp    3440 <memcpy@plt>
    7478:	0f 1f 84 00 00 00 00 	nop    DWORD PTR [rax+rax*1+0x0]
    747f:	00 
    7480:	41 5c                	pop    r12
    7482:	31 c0                	xor    eax,eax
    7484:	41 5d                	pop    r13
    7486:	5d                   	pop    rbp
    7487:	c3                   	ret    
    7488:	44 89 e2             	mov    edx,r12d
    748b:	48 8d 35 ee 08 01 00 	lea    rsi,[rip+0x108ee]        # 17d80 <_IO_stdin_used+0xd80>
    7492:	bf 01 00 00 00       	mov    edi,0x1
    7497:	31 c0                	xor    eax,eax
    7499:	e8 d2 c0 ff ff       	call   3570 <__printf_chk@plt>
    749e:	41 b8 12 01 00 00    	mov    r8d,0x112
    74a4:	48 8d 0d 79 fc 00 00 	lea    rcx,[rip+0xfc79]        # 17124 <_IO_stdin_used+0x124>
    74ab:	48 8d 15 2e 74 01 00 	lea    rdx,[rip+0x1742e]        # 1e8e0 <__FUNCTION__.83>
    74b2:	bf 01 00 00 00       	mov    edi,0x1
    74b7:	31 c0                	xor    eax,eax
    74b9:	48 8d 35 10 09 01 00 	lea    rsi,[rip+0x10910]        # 17dd0 <_IO_stdin_used+0xdd0>
    74c0:	e8 ab c0 ff ff       	call   3570 <__printf_chk@plt>
    74c5:	e8 e6 bb ff ff       	call   30b0 <abort@plt>
    74ca:	44 89 e2             	mov    edx,r12d
    74cd:	48 8d 35 2c 09 01 00 	lea    rsi,[rip+0x1092c]        # 17e00 <_IO_stdin_used+0xe00>
    74d4:	bf 01 00 00 00       	mov    edi,0x1
    74d9:	e8 92 c0 ff ff       	call   3570 <__printf_chk@plt>
    74de:	41 b8 14 01 00 00    	mov    r8d,0x114
    74e4:	eb be                	jmp    74a4 <DFL_ck_strdup+0x84>
    74e6:	66 2e 0f 1f 84 00 00 	cs nop WORD PTR [rax+rax*1+0x0]
    74ed:	00 00 00 

00000000000074f0 <UR>:
    74f0:	55                   	push   rbp
    74f1:	48 89 e5             	mov    rbp,rsp
    74f4:	53                   	push   rbx
    74f5:	48 83 ec 18          	sub    rsp,0x18
    74f9:	ff 15 e1 0a 02 00    	call   QWORD PTR [rip+0x20ae1]        # 27fe0 <mcount@GLIBC_2.2.5>
    74ff:	64 48 8b 04 25 28 00 	mov    rax,QWORD PTR fs:0x28
    7506:	00 00 
    7508:	48 89 45 e8          	mov    QWORD PTR [rbp-0x18],rax
    750c:	8b 05 5a 51 0d 00    	mov    eax,DWORD PTR [rip+0xd515a]        # dc66c <rand_cnt>
    7512:	89 fb                	mov    ebx,edi
    7514:	8d 50 ff             	lea    edx,[rax-0x1]
    7517:	89 15 4f 51 0d 00    	mov    DWORD PTR [rip+0xd514f],edx        # dc66c <rand_cnt>
    751d:	85 c0                	test   eax,eax
    751f:	74 2f                	je     7550 <UR+0x60>
    7521:	e8 7a bf ff ff       	call   34a0 <random@plt>
    7526:	41 89 d9             	mov    r9d,ebx
    7529:	48 99                	cqo    
    752b:	49 f7 f9             	idiv   r9
    752e:	89 d0                	mov    eax,edx
    7530:	48 8b 55 e8          	mov    rdx,QWORD PTR [rbp-0x18]
    7534:	64 48 2b 14 25 28 00 	sub    rdx,QWORD PTR fs:0x28
    753b:	00 00 
    753d:	0f 85 33 01 00 00    	jne    7676 <UR+0x186>
    7543:	48 8b 5d f8          	mov    rbx,QWORD PTR [rbp-0x8]
    7547:	c9                   	leave  
    7548:	c3                   	ret    
    7549:	0f 1f 80 00 00 00 00 	nop    DWORD PTR [rax+0x0]
    7550:	8b 3d d2 0a 02 00    	mov    edi,DWORD PTR [rip+0x20ad2]        # 28028 <dev_urandom_fd>
    7556:	48 8d 75 e0          	lea    rsi,[rbp-0x20]
    755a:	ba 08 00 00 00       	mov    edx,0x8
    755f:	e8 0c be ff ff       	call   3370 <read@plt>
    7564:	83 f8 08             	cmp    eax,0x8
    7567:	0f 84 d3 00 00 00    	je     7640 <UR+0x150>
    756d:	85 c0                	test   eax,eax
    756f:	78 4f                	js     75c0 <UR+0xd0>
    7571:	48 8d 15 b8 fb 00 00 	lea    rdx,[rip+0xfbb8]        # 17130 <_IO_stdin_used+0x130>
    7578:	48 8d 35 79 09 01 00 	lea    rsi,[rip+0x10979]        # 17ef8 <_IO_stdin_used+0xef8>
    757f:	bf 01 00 00 00       	mov    edi,0x1
    7584:	31 c0                	xor    eax,eax
    7586:	e8 e5 bf ff ff       	call   3570 <__printf_chk@plt>
    758b:	bf 01 00 00 00       	mov    edi,0x1
    7590:	31 c0                	xor    eax,eax
    7592:	41 b8 85 01 00 00    	mov    r8d,0x185
    7598:	48 8d 0d 9e fb 00 00 	lea    rcx,[rip+0xfb9e]        # 1713d <_IO_stdin_used+0x13d>
    759f:	48 8d 15 0c 72 01 00 	lea    rdx,[rip+0x1720c]        # 1e7b2 <__FUNCTION__.68>
    75a6:	48 8d 35 93 09 01 00 	lea    rsi,[rip+0x10993]        # 17f40 <_IO_stdin_used+0xf40>
    75ad:	e8 be bf ff ff       	call   3570 <__printf_chk@plt>
    75b2:	bf 01 00 00 00       	mov    edi,0x1
    75b7:	e8 24 c1 ff ff       	call   36e0 <exit@plt>
    75bc:	0f 1f 40 00          	nop    DWORD PTR [rax+0x0]
    75c0:	48 8b 3d b9 0a 02 00 	mov    rdi,QWORD PTR [rip+0x20ab9]        # 28080 <stdout@GLIBC_2.2.5>
    75c7:	e8 24 bf ff ff       	call   34f0 <fflush@plt>
    75cc:	48 8d 15 5d fb 00 00 	lea    rdx,[rip+0xfb5d]        # 17130 <_IO_stdin_used+0x130>
    75d3:	48 8d 35 7e 08 01 00 	lea    rsi,[rip+0x1087e]        # 17e58 <_IO_stdin_used+0xe58>
    75da:	31 c0                	xor    eax,eax
    75dc:	bf 01 00 00 00       	mov    edi,0x1
    75e1:	e8 8a bf ff ff       	call   3570 <__printf_chk@plt>
    75e6:	41 b8 85 01 00 00    	mov    r8d,0x185
    75ec:	31 c0                	xor    eax,eax
    75ee:	48 8d 0d 48 fb 00 00 	lea    rcx,[rip+0xfb48]        # 1713d <_IO_stdin_used+0x13d>
    75f5:	48 8d 15 b6 71 01 00 	lea    rdx,[rip+0x171b6]        # 1e7b2 <__FUNCTION__.68>
    75fc:	48 8d 35 9d 08 01 00 	lea    rsi,[rip+0x1089d]        # 17ea0 <_IO_stdin_used+0xea0>
    7603:	bf 01 00 00 00       	mov    edi,0x1
    7608:	e8 63 bf ff ff       	call   3570 <__printf_chk@plt>
    760d:	e8 ae ba ff ff       	call   30c0 <__errno_location@plt>
    7612:	8b 38                	mov    edi,DWORD PTR [rax]
    7614:	e8 37 c1 ff ff       	call   3750 <strerror@plt>
    7619:	bf 01 00 00 00       	mov    edi,0x1
    761e:	48 8d 35 ab 08 01 00 	lea    rsi,[rip+0x108ab]        # 17ed0 <_IO_stdin_used+0xed0>
    7625:	48 89 c2             	mov    rdx,rax
    7628:	31 c0                	xor    eax,eax
    762a:	e8 41 bf ff ff       	call   3570 <__printf_chk@plt>
    762f:	bf 01 00 00 00       	mov    edi,0x1
    7634:	e8 a7 c0 ff ff       	call   36e0 <exit@plt>
    7639:	0f 1f 80 00 00 00 00 	nop    DWORD PTR [rax+0x0]
    7640:	8b 7d e0             	mov    edi,DWORD PTR [rbp-0x20]
    7643:	e8 88 ba ff ff       	call   30d0 <srandom@plt>
    7648:	8b 75 e4             	mov    esi,DWORD PTR [rbp-0x1c]
    764b:	b9 59 17 b7 d1       	mov    ecx,0xd1b71759
    7650:	48 89 f7             	mov    rdi,rsi
    7653:	48 0f af f1          	imul   rsi,rcx
    7657:	48 c1 ee 2d          	shr    rsi,0x2d
    765b:	44 69 c6 10 27 00 00 	imul   r8d,esi,0x2710
    7662:	44 29 c7             	sub    edi,r8d
    7665:	81 c7 88 13 00 00    	add    edi,0x1388
    766b:	89 3d fb 4f 0d 00    	mov    DWORD PTR [rip+0xd4ffb],edi        # dc66c <rand_cnt>
    7671:	e9 ab fe ff ff       	jmp    7521 <UR+0x31>
    7676:	e8 c5 bb ff ff       	call   3240 <__stack_chk_fail@plt>
    767b:	0f 1f 44 00 00       	nop    DWORD PTR [rax+rax*1+0x0]

0000000000007680 <write_to_testcase>:
    7680:	55                   	push   rbp
    7681:	48 89 e5             	mov    rbp,rsp
    7684:	41 56                	push   r14
    7686:	41 55                	push   r13
    7688:	41 54                	push   r12
    768a:	53                   	push   rbx
    768b:	ff 15 4f 09 02 00    	call   QWORD PTR [rip+0x2094f]        # 27fe0 <mcount@GLIBC_2.2.5>
    7691:	4c 8b 35 80 53 10 00 	mov    r14,QWORD PTR [rip+0x105380]        # 10ca18 <out_file>
    7698:	44 8b 25 15 53 10 00 	mov    r12d,DWORD PTR [rip+0x105315]        # 10c9b4 <out_fd>
    769f:	49 89 fd             	mov    r13,rdi
    76a2:	89 f3                	mov    ebx,esi
    76a4:	4d 85 f6             	test   r14,r14
    76a7:	0f 84 33 01 00 00    	je     77e0 <write_to_testcase+0x160>
    76ad:	4c 89 f7             	mov    rdi,r14
    76b0:	e8 2b ba ff ff       	call   30e0 <unlink@plt>
    76b5:	ba 80 01 00 00       	mov    edx,0x180
    76ba:	4c 89 f7             	mov    rdi,r14
    76bd:	31 c0                	xor    eax,eax
    76bf:	be c1 00 00 00       	mov    esi,0xc1
    76c4:	e8 c7 be ff ff       	call   3590 <open64@plt>
    76c9:	41 89 c4             	mov    r12d,eax
    76cc:	85 c0                	test   eax,eax
    76ce:	0f 88 47 01 00 00    	js     781b <write_to_testcase+0x19b>
    76d4:	41 89 de             	mov    r14d,ebx
    76d7:	4c 89 ee             	mov    rsi,r13
    76da:	44 89 e7             	mov    edi,r12d
    76dd:	4c 89 f2             	mov    rdx,r14
    76e0:	e8 cb ba ff ff       	call   31b0 <write@plt>
    76e5:	39 c3                	cmp    ebx,eax
    76e7:	0f 84 d3 00 00 00    	je     77c0 <write_to_testcase+0x140>
    76ed:	85 c0                	test   eax,eax
    76ef:	78 4f                	js     7740 <write_to_testcase+0xc0>
    76f1:	48 8b 15 20 53 10 00 	mov    rdx,QWORD PTR [rip+0x105320]        # 10ca18 <out_file>
    76f8:	48 8d 35 01 09 01 00 	lea    rsi,[rip+0x10901]        # 18000 <_IO_stdin_used+0x1000>
    76ff:	bf 01 00 00 00       	mov    edi,0x1
    7704:	31 c0                	xor    eax,eax
    7706:	e8 65 be ff ff       	call   3570 <__printf_chk@plt>
    770b:	bf 01 00 00 00       	mov    edi,0x1
    7710:	31 c0                	xor    eax,eax
    7712:	41 b8 af 09 00 00    	mov    r8d,0x9af
    7718:	48 8d 0d 1e fa 00 00 	lea    rcx,[rip+0xfa1e]        # 1713d <_IO_stdin_used+0x13d>
    771f:	48 8d 15 1a 6f 01 00 	lea    rdx,[rip+0x16f1a]        # 1e640 <__FUNCTION__.45>
    7726:	48 8d 35 13 08 01 00 	lea    rsi,[rip+0x10813]        # 17f40 <_IO_stdin_used+0xf40>
    772d:	e8 3e be ff ff       	call   3570 <__printf_chk@plt>
    7732:	bf 01 00 00 00       	mov    edi,0x1
    7737:	e8 a4 bf ff ff       	call   36e0 <exit@plt>
    773c:	0f 1f 40 00          	nop    DWORD PTR [rax+0x0]
    7740:	48 8b 3d 39 09 02 00 	mov    rdi,QWORD PTR [rip+0x20939]        # 28080 <stdout@GLIBC_2.2.5>
    7747:	e8 a4 bd ff ff       	call   34f0 <fflush@plt>
    774c:	48 8b 15 c5 52 10 00 	mov    rdx,QWORD PTR [rip+0x1052c5]        # 10ca18 <out_file>
    7753:	48 8d 35 5e 08 01 00 	lea    rsi,[rip+0x1085e]        # 17fb8 <_IO_stdin_used+0xfb8>
    775a:	31 c0                	xor    eax,eax
    775c:	bf 01 00 00 00       	mov    edi,0x1
    7761:	e8 0a be ff ff       	call   3570 <__printf_chk@plt>
    7766:	41 b8 af 09 00 00    	mov    r8d,0x9af
    776c:	48 8d 0d ca f9 00 00 	lea    rcx,[rip+0xf9ca]        # 1713d <_IO_stdin_used+0x13d>
    7773:	48 8d 15 c6 6e 01 00 	lea    rdx,[rip+0x16ec6]        # 1e640 <__FUNCTION__.45>
    777a:	bf 01 00 00 00       	mov    edi,0x1
    777f:	31 c0                	xor    eax,eax
    7781:	48 8d 35 18 07 01 00 	lea    rsi,[rip+0x10718]        # 17ea0 <_IO_stdin_used+0xea0>
    7788:	e8 e3 bd ff ff       	call   3570 <__printf_chk@plt>
    778d:	e8 2e b9 ff ff       	call   30c0 <__errno_location@plt>
    7792:	8b 38                	mov    edi,DWORD PTR [rax]
    7794:	e8 b7 bf ff ff       	call   3750 <strerror@plt>
    7799:	bf 01 00 00 00       	mov    edi,0x1
    779e:	48 8d 35 2b 07 01 00 	lea    rsi,[rip+0x1072b]        # 17ed0 <_IO_stdin_used+0xed0>
    77a5:	48 89 c2             	mov    rdx,rax
    77a8:	31 c0                	xor    eax,eax
    77aa:	e8 c1 bd ff ff       	call   3570 <__printf_chk@plt>
    77af:	bf 01 00 00 00       	mov    edi,0x1
    77b4:	e8 27 bf ff ff       	call   36e0 <exit@plt>
    77b9:	0f 1f 80 00 00 00 00 	nop    DWORD PTR [rax+0x0]
    77c0:	48 83 3d 50 52 10 00 	cmp    QWORD PTR [rip+0x105250],0x0        # 10ca18 <out_file>
    77c7:	00 
    77c8:	74 2e                	je     77f8 <write_to_testcase+0x178>
    77ca:	5b                   	pop    rbx
    77cb:	44 89 e7             	mov    edi,r12d
    77ce:	41 5c                	pop    r12
    77d0:	41 5d                	pop    r13
    77d2:	41 5e                	pop    r14
    77d4:	5d                   	pop    rbp
    77d5:	e9 46 bb ff ff       	jmp    3320 <close@plt>
    77da:	66 0f 1f 44 00 00    	nop    WORD PTR [rax+rax*1+0x0]
    77e0:	31 d2                	xor    edx,edx
    77e2:	31 f6                	xor    esi,esi
    77e4:	44 89 e7             	mov    edi,r12d
    77e7:	e8 14 bf ff ff       	call   3700 <lseek64@plt>
    77ec:	e9 e3 fe ff ff       	jmp    76d4 <write_to_testcase+0x54>
    77f1:	0f 1f 80 00 00 00 00 	nop    DWORD PTR [rax+0x0]
    77f8:	4c 89 f6             	mov    rsi,r14
    77fb:	44 89 e7             	mov    edi,r12d
    77fe:	e8 5d bd ff ff       	call   3560 <ftruncate64@plt>
    7803:	85 c0                	test   eax,eax
    7805:	75 45                	jne    784c <write_to_testcase+0x1cc>
    7807:	5b                   	pop    rbx
    7808:	44 89 e7             	mov    edi,r12d
    780b:	31 d2                	xor    edx,edx
    780d:	41 5c                	pop    r12
    780f:	31 f6                	xor    esi,esi
    7811:	41 5d                	pop    r13
    7813:	41 5e                	pop    r14
    7815:	5d                   	pop    rbp
    7816:	e9 e5 be ff ff       	jmp    3700 <lseek64@plt>
    781b:	48 8b 3d 5e 08 02 00 	mov    rdi,QWORD PTR [rip+0x2085e]        # 28080 <stdout@GLIBC_2.2.5>
    7822:	e8 c9 bc ff ff       	call   34f0 <fflush@plt>
    7827:	48 8b 15 ea 51 10 00 	mov    rdx,QWORD PTR [rip+0x1051ea]        # 10ca18 <out_file>
    782e:	48 8d 35 3b 07 01 00 	lea    rsi,[rip+0x1073b]        # 17f70 <_IO_stdin_used+0xf70>
    7835:	31 c0                	xor    eax,eax
    7837:	bf 01 00 00 00       	mov    edi,0x1
    783c:	e8 2f bd ff ff       	call   3570 <__printf_chk@plt>
    7841:	41 b8 ab 09 00 00    	mov    r8d,0x9ab
    7847:	e9 20 ff ff ff       	jmp    776c <write_to_testcase+0xec>
    784c:	48 8b 3d 2d 08 02 00 	mov    rdi,QWORD PTR [rip+0x2082d]        # 28080 <stdout@GLIBC_2.2.5>
    7853:	e8 98 bc ff ff       	call   34f0 <fflush@plt>
    7858:	48 8d 35 e9 07 01 00 	lea    rsi,[rip+0x107e9]        # 18048 <_IO_stdin_used+0x1048>
    785f:	bf 01 00 00 00       	mov    edi,0x1
    7864:	31 c0                	xor    eax,eax
    7866:	e8 05 bd ff ff       	call   3570 <__printf_chk@plt>
    786b:	41 b8 b3 09 00 00    	mov    r8d,0x9b3
    7871:	e9 f6 fe ff ff       	jmp    776c <write_to_testcase+0xec>
    7876:	66 2e 0f 1f 84 00 00 	cs nop WORD PTR [rax+rax*1+0x0]
    787d:	00 00 00 

0000000000007880 <run_target>:
    7880:	55                   	push   rbp
    7881:	48 89 e5             	mov    rbp,rsp
    7884:	41 55                	push   r13
    7886:	41 54                	push   r12
    7888:	53                   	push   rbx
    7889:	48 83 ec 38          	sub    rsp,0x38
    788d:	ff 15 4d 07 02 00    	call   QWORD PTR [rip+0x2074d]        # 27fe0 <mcount@GLIBC_2.2.5>
    7893:	ba 00 00 01 00       	mov    edx,0x10000
    7898:	64 48 8b 04 25 28 00 	mov    rax,QWORD PTR fs:0x28
    789f:	00 00 
    78a1:	48 89 45 d8          	mov    QWORD PTR [rbp-0x28],rax
    78a5:	31 c0                	xor    eax,eax
    78a7:	49 89 fc             	mov    r12,rdi
    78aa:	48 8b 3d ef 50 10 00 	mov    rdi,QWORD PTR [rip+0x1050ef]        # 10c9a0 <trace_bits>
    78b1:	89 f3                	mov    ebx,esi
    78b3:	31 f6                	xor    esi,esi
    78b5:	c7 45 bc 00 00 00 00 	mov    DWORD PTR [rbp-0x44],0x0
    78bc:	c6 05 b9 50 0d 00 00 	mov    BYTE PTR [rip+0xd50b9],0x0        # dc97c <child_timed_out>
    78c3:	e8 28 ba ff ff       	call   32f0 <memset@plt>
    78c8:	80 3d fe 50 10 00 01 	cmp    BYTE PTR [rip+0x1050fe],0x1        # 10c9cd <dumb_mode>
    78cf:	74 0d                	je     78de <run_target+0x5e>
    78d1:	80 3d ec 50 10 00 00 	cmp    BYTE PTR [rip+0x1050ec],0x0        # 10c9c4 <no_forkserver>
    78d8:	0f 84 a0 05 00 00    	je     7e7e <run_target+0x5fe>
    78de:	e8 ad be ff ff       	call   3790 <fork@plt>
    78e3:	89 05 37 07 02 00    	mov    DWORD PTR [rip+0x20737],eax        # 28020 <child_pid>
    78e9:	85 c0                	test   eax,eax
    78eb:	0f 88 13 08 00 00    	js     8104 <run_target+0x884>
    78f1:	0f 84 e1 03 00 00    	je     7cd8 <run_target+0x458>
    78f7:	41 89 dc             	mov    r12d,ebx
    78fa:	41 89 d8             	mov    r8d,ebx
    78fd:	4c 8d 2d bc 3b 03 00 	lea    r13,[rip+0x33bbc]        # 3b4c0 <it.42>
    7904:	31 d2                	xor    edx,edx
    7906:	49 69 f4 d3 4d 62 10 	imul   rsi,r12,0x10624dd3
    790d:	48 c1 ee 26          	shr    rsi,0x26
    7911:	69 fe e8 03 00 00    	imul   edi,esi,0x3e8
    7917:	c5 f9 6e ce          	vmovd  xmm1,esi
    791b:	4c 89 ee             	mov    rsi,r13
    791e:	41 29 f8             	sub    r8d,edi
    7921:	31 ff                	xor    edi,edi
    7923:	45 69 c8 e8 03 00 00 	imul   r9d,r8d,0x3e8
    792a:	c4 c3 71 22 c1 01    	vpinsrd xmm0,xmm1,r9d,0x1
    7930:	c4 e2 79 35 d0       	vpmovzxdq xmm2,xmm0
    7935:	c5 f9 7f 15 93 3b 03 	vmovdqa XMMWORD PTR [rip+0x33b93],xmm2        # 3b4d0 <it.42+0x10>
    793c:	00 
    793d:	e8 fe bb ff ff       	call   3540 <setitimer@plt>
    7942:	80 3d 84 50 10 00 01 	cmp    BYTE PTR [rip+0x105084],0x1        # 10c9cd <dumb_mode>
    7949:	48 8d 75 bc          	lea    rsi,[rbp-0x44]
    794d:	74 0d                	je     795c <run_target+0xdc>
    794f:	80 3d 6e 50 10 00 00 	cmp    BYTE PTR [rip+0x10506e],0x0        # 10c9c4 <no_forkserver>
    7956:	0f 84 e1 05 00 00    	je     7f3d <run_target+0x6bd>
    795c:	8b 3d be 06 02 00    	mov    edi,DWORD PTR [rip+0x206be]        # 28020 <child_pid>
    7962:	31 d2                	xor    edx,edx
    7964:	e8 67 bc ff ff       	call   35d0 <waitpid@plt>
    7969:	85 c0                	test   eax,eax
    796b:	0f 8e bd 07 00 00    	jle    812e <run_target+0x8ae>
    7971:	80 7d bc 7f          	cmp    BYTE PTR [rbp-0x44],0x7f
    7975:	74 0a                	je     7981 <run_target+0x101>
    7977:	c7 05 9f 06 02 00 00 	mov    DWORD PTR [rip+0x2069f],0x0        # 28020 <child_pid>
    797e:	00 00 00 
    7981:	4c 89 ee             	mov    rsi,r13
    7984:	31 ff                	xor    edi,edi
    7986:	e8 b5 bc ff ff       	call   3640 <getitimer@plt>
    798b:	c5 e1 ef db          	vpxor  xmm3,xmm3,xmm3
    798f:	4c 89 ee             	mov    rsi,r13
    7992:	31 ff                	xor    edi,edi
    7994:	48 8b 0d 3d 3b 03 00 	mov    rcx,QWORD PTR [rip+0x33b3d]        # 3b4d8 <it.42+0x18>
    799b:	48 ba cf f7 53 e3 a5 	movabs rdx,0x20c49ba5e353f7cf
    79a2:	9b c4 20 
    79a5:	4c 69 1d 20 3b 03 00 	imul   r11,QWORD PTR [rip+0x33b20],0x3e8        # 3b4d0 <it.42+0x10>
    79ac:	e8 03 00 00 
    79b0:	c5 f9 7f 1d 18 3b 03 	vmovdqa XMMWORD PTR [rip+0x33b18],xmm3        # 3b4d0 <it.42+0x10>
    79b7:	00 
    79b8:	48 89 c8             	mov    rax,rcx
    79bb:	48 c1 f9 3f          	sar    rcx,0x3f
    79bf:	48 f7 ea             	imul   rdx
    79c2:	48 c1 fa 07          	sar    rdx,0x7
    79c6:	48 29 ca             	sub    rdx,rcx
    79c9:	49 01 d3             	add    r11,rdx
    79cc:	31 d2                	xor    edx,edx
    79ce:	4d 29 dc             	sub    r12,r11
    79d1:	4c 89 25 d0 3a 03 00 	mov    QWORD PTR [rip+0x33ad0],r12        # 3b4a8 <exec_ms.41>
    79d8:	e8 63 bb ff ff       	call   3540 <setitimer@plt>
    79dd:	48 83 05 3b 4f 0d 00 	add    QWORD PTR [rip+0xd4f3b],0x1        # dc920 <total_execs>
    79e4:	01 
    79e5:	48 8b 15 b4 4f 10 00 	mov    rdx,QWORD PTR [rip+0x104fb4]        # 10c9a0 <trace_bits>
    79ec:	48 8d 35 0d 4c 03 00 	lea    rsi,[rip+0x34c0d]        # 3c600 <count_class_lookup16>
    79f3:	44 8b 2a             	mov    r13d,DWORD PTR [rdx]
    79f6:	4c 8d a2 00 00 01 00 	lea    r12,[rdx+0x10000]
    79fd:	eb 5f                	jmp    7a5e <run_target+0x1de>
    79ff:	90                   	nop
    7a00:	48 83 7a 08 00       	cmp    QWORD PTR [rdx+0x8],0x0
    7a05:	48 8d 4a 08          	lea    rcx,[rdx+0x8]
    7a09:	0f 85 a1 00 00 00    	jne    7ab0 <run_target+0x230>
    7a0f:	48 83 79 08 00       	cmp    QWORD PTR [rcx+0x8],0x0
    7a14:	0f 85 e6 00 00 00    	jne    7b00 <run_target+0x280>
    7a1a:	48 83 79 10 00       	cmp    QWORD PTR [rcx+0x10],0x0
    7a1f:	0f 85 2b 01 00 00    	jne    7b50 <run_target+0x2d0>
    7a25:	48 83 79 18 00       	cmp    QWORD PTR [rcx+0x18],0x0
    7a2a:	0f 85 70 01 00 00    	jne    7ba0 <run_target+0x320>
    7a30:	48 83 79 20 00       	cmp    QWORD PTR [rcx+0x20],0x0
    7a35:	0f 85 b5 01 00 00    	jne    7bf0 <run_target+0x370>
    7a3b:	48 83 79 28 00       	cmp    QWORD PTR [rcx+0x28],0x0
    7a40:	0f 85 fa 01 00 00    	jne    7c40 <run_target+0x3c0>
    7a46:	48 83 79 30 00       	cmp    QWORD PTR [rcx+0x30],0x0
    7a4b:	0f 85 3f 02 00 00    	jne    7c90 <run_target+0x410>
    7a51:	48 8d 51 38          	lea    rdx,[rcx+0x38]
    7a55:	4c 39 e2             	cmp    rdx,r12
    7a58:	0f 84 5c 03 00 00    	je     7dba <run_target+0x53a>
    7a5e:	48 83 3a 00          	cmp    QWORD PTR [rdx],0x0
    7a62:	74 9c                	je     7a00 <run_target+0x180>
    7a64:	44 0f b7 52 06       	movzx  r10d,WORD PTR [rdx+0x6]
    7a69:	44 0f b7 4a 04       	movzx  r9d,WORD PTR [rdx+0x4]
    7a6e:	44 0f b7 42 02       	movzx  r8d,WORD PTR [rdx+0x2]
    7a73:	0f b7 3a             	movzx  edi,WORD PTR [rdx]
    7a76:	46 0f b7 1c 56       	movzx  r11d,WORD PTR [rsi+r10*2]
    7a7b:	42 0f b7 0c 4e       	movzx  ecx,WORD PTR [rsi+r9*2]
    7a80:	42 0f b7 04 46       	movzx  eax,WORD PTR [rsi+r8*2]
    7a85:	0f b7 3c 7e          	movzx  edi,WORD PTR [rsi+rdi*2]
    7a89:	49 c1 e3 10          	shl    r11,0x10
    7a8d:	49 09 cb             	or     r11,rcx
    7a90:	48 8d 4a 08          	lea    rcx,[rdx+0x8]
    7a94:	49 c1 e3 10          	shl    r11,0x10
    7a98:	49 09 c3             	or     r11,rax
    7a9b:	49 c1 e3 10          	shl    r11,0x10
    7a9f:	49 09 fb             	or     r11,rdi
    7aa2:	48 83 7a 08 00       	cmp    QWORD PTR [rdx+0x8],0x0
    7aa7:	4c 89 1a             	mov    QWORD PTR [rdx],r11
    7aaa:	0f 84 5f ff ff ff    	je     7a0f <run_target+0x18f>
    7ab0:	44 0f b7 41 06       	movzx  r8d,WORD PTR [rcx+0x6]
    7ab5:	44 0f b7 59 04       	movzx  r11d,WORD PTR [rcx+0x4]
    7aba:	44 0f b7 51 02       	movzx  r10d,WORD PTR [rcx+0x2]
    7abf:	44 0f b7 4a 08       	movzx  r9d,WORD PTR [rdx+0x8]
    7ac4:	42 0f b7 04 46       	movzx  eax,WORD PTR [rsi+r8*2]
    7ac9:	42 0f b7 3c 5e       	movzx  edi,WORD PTR [rsi+r11*2]
    7ace:	46 0f b7 14 56       	movzx  r10d,WORD PTR [rsi+r10*2]
    7ad3:	46 0f b7 0c 4e       	movzx  r9d,WORD PTR [rsi+r9*2]
    7ad8:	48 c1 e0 10          	shl    rax,0x10
    7adc:	48 09 f8             	or     rax,rdi
    7adf:	48 c1 e0 10          	shl    rax,0x10
    7ae3:	4c 09 d0             	or     rax,r10
    7ae6:	48 c1 e0 10          	shl    rax,0x10
    7aea:	4c 09 c8             	or     rax,r9
    7aed:	48 83 79 08 00       	cmp    QWORD PTR [rcx+0x8],0x0
    7af2:	48 89 42 08          	mov    QWORD PTR [rdx+0x8],rax
    7af6:	0f 84 1e ff ff ff    	je     7a1a <run_target+0x19a>
    7afc:	0f 1f 40 00          	nop    DWORD PTR [rax+0x0]
    7b00:	0f b7 51 0e          	movzx  edx,WORD PTR [rcx+0xe]
    7b04:	0f b7 41 0c          	movzx  eax,WORD PTR [rcx+0xc]
    7b08:	44 0f b7 41 0a       	movzx  r8d,WORD PTR [rcx+0xa]
    7b0d:	44 0f b7 59 08       	movzx  r11d,WORD PTR [rcx+0x8]
    7b12:	0f b7 3c 56          	movzx  edi,WORD PTR [rsi+rdx*2]
    7b16:	44 0f b7 14 46       	movzx  r10d,WORD PTR [rsi+rax*2]
    7b1b:	46 0f b7 0c 46       	movzx  r9d,WORD PTR [rsi+r8*2]
    7b20:	46 0f b7 1c 5e       	movzx  r11d,WORD PTR [rsi+r11*2]
    7b25:	48 c1 e7 10          	shl    rdi,0x10
    7b29:	4c 09 d7             	or     rdi,r10
    7b2c:	48 c1 e7 10          	shl    rdi,0x10
    7b30:	4c 09 cf             	or     rdi,r9
    7b33:	48 c1 e7 10          	shl    rdi,0x10
    7b37:	4c 09 df             	or     rdi,r11
    7b3a:	48 83 79 10 00       	cmp    QWORD PTR [rcx+0x10],0x0
    7b3f:	48 89 79 08          	mov    QWORD PTR [rcx+0x8],rdi
    7b43:	0f 84 dc fe ff ff    	je     7a25 <run_target+0x1a5>
    7b49:	0f 1f 80 00 00 00 00 	nop    DWORD PTR [rax+0x0]
    7b50:	0f b7 51 16          	movzx  edx,WORD PTR [rcx+0x16]
    7b54:	0f b7 79 14          	movzx  edi,WORD PTR [rcx+0x14]
    7b58:	0f b7 41 12          	movzx  eax,WORD PTR [rcx+0x12]
    7b5c:	44 0f b7 41 10       	movzx  r8d,WORD PTR [rcx+0x10]
    7b61:	44 0f b7 1c 56       	movzx  r11d,WORD PTR [rsi+rdx*2]
    7b66:	44 0f b7 14 7e       	movzx  r10d,WORD PTR [rsi+rdi*2]
    7b6b:	44 0f b7 0c 46       	movzx  r9d,WORD PTR [rsi+rax*2]
    7b70:	46 0f b7 04 46       	movzx  r8d,WORD PTR [rsi+r8*2]
    7b75:	49 c1 e3 10          	shl    r11,0x10
    7b79:	4d 09 d3             	or     r11,r10
    7b7c:	49 c1 e3 10          	shl    r11,0x10
    7b80:	4d 09 cb             	or     r11,r9
    7b83:	49 c1 e3 10          	shl    r11,0x10
    7b87:	4d 09 c3             	or     r11,r8
    7b8a:	48 83 79 18 00       	cmp    QWORD PTR [rcx+0x18],0x0
    7b8f:	4c 89 59 10          	mov    QWORD PTR [rcx+0x10],r11
    7b93:	0f 84 97 fe ff ff    	je     7a30 <run_target+0x1b0>
    7b99:	0f 1f 80 00 00 00 00 	nop    DWORD PTR [rax+0x0]
    7ba0:	0f b7 51 1e          	movzx  edx,WORD PTR [rcx+0x1e]
    7ba4:	44 0f b7 59 1c       	movzx  r11d,WORD PTR [rcx+0x1c]
    7ba9:	0f b7 79 1a          	movzx  edi,WORD PTR [rcx+0x1a]
    7bad:	0f b7 41 18          	movzx  eax,WORD PTR [rcx+0x18]
    7bb1:	0f b7 14 56          	movzx  edx,WORD PTR [rsi+rdx*2]
    7bb5:	46 0f b7 14 5e       	movzx  r10d,WORD PTR [rsi+r11*2]
    7bba:	44 0f b7 0c 7e       	movzx  r9d,WORD PTR [rsi+rdi*2]
    7bbf:	44 0f b7 04 46       	movzx  r8d,WORD PTR [rsi+rax*2]
    7bc4:	48 c1 e2 10          	shl    rdx,0x10
    7bc8:	4c 09 d2             	or     rdx,r10
    7bcb:	48 c1 e2 10          	shl    rdx,0x10
    7bcf:	4c 09 ca             	or     rdx,r9
    7bd2:	48 c1 e2 10          	shl    rdx,0x10
    7bd6:	4c 09 c2             	or     rdx,r8
    7bd9:	48 83 79 20 00       	cmp    QWORD PTR [rcx+0x20],0x0
    7bde:	48 89 51 18          	mov    QWORD PTR [rcx+0x18],rdx
    7be2:	0f 84 53 fe ff ff    	je     7a3b <run_target+0x1bb>
    7be8:	0f 1f 84 00 00 00 00 	nop    DWORD PTR [rax+rax*1+0x0]
    7bef:	00 
    7bf0:	0f b7 51 26          	movzx  edx,WORD PTR [rcx+0x26]
    7bf4:	44 0f b7 59 24       	movzx  r11d,WORD PTR [rcx+0x24]
    7bf9:	0f b7 79 22          	movzx  edi,WORD PTR [rcx+0x22]
    7bfd:	0f b7 41 20          	movzx  eax,WORD PTR [rcx+0x20]
    7c01:	0f b7 14 56          	movzx  edx,WORD PTR [rsi+rdx*2]
    7c05:	46 0f b7 14 5e       	movzx  r10d,WORD PTR [rsi+r11*2]
    7c0a:	44 0f b7 0c 7e       	movzx  r9d,WORD PTR [rsi+rdi*2]
    7c0f:	44 0f b7 04 46       	movzx  r8d,WORD PTR [rsi+rax*2]
    7c14:	48 c1 e2 10          	shl    rdx,0x10
    7c18:	4c 09 d2             	or     rdx,r10
    7c1b:	48 c1 e2 10          	shl    rdx,0x10
    7c1f:	4c 09 ca             	or     rdx,r9
    7c22:	48 c1 e2 10          	shl    rdx,0x10
    7c26:	4c 09 c2             	or     rdx,r8
    7c29:	48 83 79 28 00       	cmp    QWORD PTR [rcx+0x28],0x0
    7c2e:	48 89 51 20          	mov    QWORD PTR [rcx+0x20],rdx
    7c32:	0f 84 0e fe ff ff    	je     7a46 <run_target+0x1c6>
    7c38:	0f 1f 84 00 00 00 00 	nop    DWORD PTR [rax+rax*1+0x0]
    7c3f:	00 
    7c40:	0f b7 51 2e          	movzx  edx,WORD PTR [rcx+0x2e]
    7c44:	44 0f b7 59 2c       	movzx  r11d,WORD PTR [rcx+0x2c]
    7c49:	0f b7 79 2a          	movzx  edi,WORD PTR [rcx+0x2a]
    7c4d:	0f b7 41 28          	movzx  eax,WORD PTR [rcx+0x28]
    7c51:	0f b7 14 56          	movzx  edx,WORD PTR [rsi+rdx*2]
    7c55:	46 0f b7 14 5e       	movzx  r10d,WORD PTR [rsi+r11*2]
    7c5a:	44 0f b7 0c 7e       	movzx  r9d,WORD PTR [rsi+rdi*2]
    7c5f:	44 0f b7 04 46       	movzx  r8d,WORD PTR [rsi+rax*2]
    7c64:	48 c1 e2 10          	shl    rdx,0x10
    7c68:	4c 09 d2             	or     rdx,r10
    7c6b:	48 c1 e2 10          	shl    rdx,0x10
    7c6f:	4c 09 ca             	or     rdx,r9
    7c72:	48 c1 e2 10          	shl    rdx,0x10
    7c76:	4c 09 c2             	or     rdx,r8
    7c79:	48 83 79 30 00       	cmp    QWORD PTR [rcx+0x30],0x0
    7c7e:	48 89 51 28          	mov    QWORD PTR [rcx+0x28],rdx
    7c82:	0f 84 c9 fd ff ff    	je     7a51 <run_target+0x1d1>
    7c88:	0f 1f 84 00 00 00 00 	nop    DWORD PTR [rax+rax*1+0x0]
    7c8f:	00 
    7c90:	0f b7 51 36          	movzx  edx,WORD PTR [rcx+0x36]
    7c94:	44 0f b7 59 34       	movzx  r11d,WORD PTR [rcx+0x34]
    7c99:	0f b7 79 32          	movzx  edi,WORD PTR [rcx+0x32]
    7c9d:	0f b7 41 30          	movzx  eax,WORD PTR [rcx+0x30]
    7ca1:	0f b7 14 56          	movzx  edx,WORD PTR [rsi+rdx*2]
    7ca5:	46 0f b7 14 5e       	movzx  r10d,WORD PTR [rsi+r11*2]
    7caa:	44 0f b7 0c 7e       	movzx  r9d,WORD PTR [rsi+rdi*2]
    7caf:	44 0f b7 04 46       	movzx  r8d,WORD PTR [rsi+rax*2]
    7cb4:	48 c1 e2 10          	shl    rdx,0x10
    7cb8:	4c 09 d2             	or     rdx,r10
    7cbb:	48 c1 e2 10          	shl    rdx,0x10
    7cbf:	4c 09 ca             	or     rdx,r9
    7cc2:	48 c1 e2 10          	shl    rdx,0x10
    7cc6:	4c 09 c2             	or     rdx,r8
    7cc9:	48 89 51 30          	mov    QWORD PTR [rcx+0x30],rdx
    7ccd:	e9 7f fd ff ff       	jmp    7a51 <run_target+0x1d1>
    7cd2:	66 0f 1f 44 00 00    	nop    WORD PTR [rax+rax*1+0x0]
    7cd8:	4c 8b 0d 59 03 02 00 	mov    r9,QWORD PTR [rip+0x20359]        # 28038 <mem_limit>
    7cdf:	48 8d 5d c0          	lea    rbx,[rbp-0x40]
    7ce3:	4d 85 c9             	test   r9,r9
    7ce6:	0f 85 09 02 00 00    	jne    7ef5 <run_target+0x675>
    7cec:	c5 c9 ef f6          	vpxor  xmm6,xmm6,xmm6
    7cf0:	48 89 de             	mov    rsi,rbx
    7cf3:	bf 04 00 00 00       	mov    edi,0x4
    7cf8:	c5 f9 7f 75 c0       	vmovdqa XMMWORD PTR [rbp-0x40],xmm6
    7cfd:	e8 be b5 ff ff       	call   32c0 <setrlimit64@plt>
    7d02:	e8 39 b6 ff ff       	call   3340 <setsid@plt>
    7d07:	8b 1d 17 03 02 00    	mov    ebx,DWORD PTR [rip+0x20317]        # 28024 <dev_null_fd>
    7d0d:	be 01 00 00 00       	mov    esi,0x1
    7d12:	89 df                	mov    edi,ebx
    7d14:	e8 37 b5 ff ff       	call   3250 <dup2@plt>
    7d19:	be 02 00 00 00       	mov    esi,0x2
    7d1e:	89 df                	mov    edi,ebx
    7d20:	e8 2b b5 ff ff       	call   3250 <dup2@plt>
    7d25:	48 83 3d eb 4c 10 00 	cmp    QWORD PTR [rip+0x104ceb],0x0        # 10ca18 <out_file>
    7d2c:	00 
    7d2d:	0f 84 e6 01 00 00    	je     7f19 <run_target+0x699>
    7d33:	31 f6                	xor    esi,esi
    7d35:	89 df                	mov    edi,ebx
    7d37:	e8 14 b5 ff ff       	call   3250 <dup2@plt>
    7d3c:	89 df                	mov    edi,ebx
    7d3e:	e8 dd b5 ff ff       	call   3320 <close@plt>
    7d43:	8b 3d d3 02 02 00    	mov    edi,DWORD PTR [rip+0x202d3]        # 2801c <out_dir_fd>
    7d49:	e8 d2 b5 ff ff       	call   3320 <close@plt>
    7d4e:	8b 3d d4 02 02 00    	mov    edi,DWORD PTR [rip+0x202d4]        # 28028 <dev_urandom_fd>
    7d54:	e8 c7 b5 ff ff       	call   3320 <close@plt>
    7d59:	48 8b 3d 00 49 0d 00 	mov    rdi,QWORD PTR [rip+0xd4900]        # dc660 <plot_file>
    7d60:	e8 0b b7 ff ff       	call   3470 <fileno@plt>
    7d65:	89 c7                	mov    edi,eax
    7d67:	e8 b4 b5 ff ff       	call   3320 <close@plt>
    7d6c:	31 d2                	xor    edx,edx
    7d6e:	48 8d 35 5b 03 01 00 	lea    rsi,[rip+0x1035b]        # 180d0 <_IO_stdin_used+0x10d0>
    7d75:	48 8d 3d cc f3 00 00 	lea    rdi,[rip+0xf3cc]        # 17148 <_IO_stdin_used+0x148>
    7d7c:	e8 0f b4 ff ff       	call   3190 <setenv@plt>
    7d81:	31 d2                	xor    edx,edx
    7d83:	48 8d 35 8e 03 01 00 	lea    rsi,[rip+0x1038e]        # 18118 <_IO_stdin_used+0x1118>
    7d8a:	48 8d 3d c4 f3 00 00 	lea    rdi,[rip+0xf3c4]        # 17155 <_IO_stdin_used+0x155>
    7d91:	e8 fa b3 ff ff       	call   3190 <setenv@plt>
    7d96:	48 8b 3d 43 4c 10 00 	mov    rdi,QWORD PTR [rip+0x104c43]        # 10c9e0 <target_path>
    7d9d:	4c 89 e6             	mov    rsi,r12
    7da0:	e8 db b9 ff ff       	call   3780 <execv@plt>
    7da5:	4c 8b 05 f4 4b 10 00 	mov    r8,QWORD PTR [rip+0x104bf4]        # 10c9a0 <trace_bits>
    7dac:	31 ff                	xor    edi,edi
    7dae:	41 c7 00 ad de e1 fe 	mov    DWORD PTR [r8],0xfee1dead
    7db5:	e8 26 b9 ff ff       	call   36e0 <exit@plt>
    7dba:	8b 45 bc             	mov    eax,DWORD PTR [rbp-0x44]
    7dbd:	44 0f b6 25 b7 4b 0d 	movzx  r12d,BYTE PTR [rip+0xd4bb7]        # dc97c <child_timed_out>
    7dc4:	00 
    7dc5:	89 c2                	mov    edx,eax
    7dc7:	44 89 25 12 37 03 00 	mov    DWORD PTR [rip+0x33712],r12d        # 3b4e0 <prev_timed_out.43>
    7dce:	83 e2 7f             	and    edx,0x7f
    7dd1:	8d 72 01             	lea    esi,[rdx+0x1]
    7dd4:	40 80 fe 01          	cmp    sil,0x1
    7dd8:	7e 34                	jle    7e0e <run_target+0x58e>
    7dda:	0f b6 0d 9c 4b 0d 00 	movzx  ecx,BYTE PTR [rip+0xd4b9c]        # dc97d <stop_soon>
    7de1:	84 c9                	test   cl,cl
    7de3:	75 29                	jne    7e0e <run_target+0x58e>
    7de5:	44 0f b6 2d 8f 4b 0d 	movzx  r13d,BYTE PTR [rip+0xd4b8f]        # dc97c <child_timed_out>
    7dec:	00 
    7ded:	80 fa 09             	cmp    dl,0x9
    7df0:	b8 02 00 00 00       	mov    eax,0x2
    7df5:	88 15 d0 4b 10 00    	mov    BYTE PTR [rip+0x104bd0],dl        # 10c9cb <kill_signal>
    7dfb:	41 0f 94 c3          	sete   r11b
    7dff:	45 84 ed             	test   r13b,r13b
    7e02:	41 0f 95 c2          	setne  r10b
    7e06:	45 21 d3             	and    r11d,r10d
    7e09:	44 29 d8             	sub    eax,r11d
    7e0c:	eb 52                	jmp    7e60 <run_target+0x5e0>
    7e0e:	80 3d b0 4b 10 00 00 	cmp    BYTE PTR [rip+0x104bb0],0x0        # 10c9c5 <uses_asan>
    7e15:	74 0c                	je     7e23 <run_target+0x5a3>
    7e17:	0f b6 fc             	movzx  edi,ah
    7e1a:	83 ff 56             	cmp    edi,0x56
    7e1d:	0f 84 6d 02 00 00    	je     8090 <run_target+0x810>
    7e23:	80 3d a3 4b 10 00 01 	cmp    BYTE PTR [rip+0x104ba3],0x1        # 10c9cd <dumb_mode>
    7e2a:	74 09                	je     7e35 <run_target+0x5b5>
    7e2c:	80 3d 91 4b 10 00 00 	cmp    BYTE PTR [rip+0x104b91],0x0        # 10c9c4 <no_forkserver>
    7e33:	74 0d                	je     7e42 <run_target+0x5c2>
    7e35:	41 81 fd ad de e1 fe 	cmp    r13d,0xfee1dead
    7e3c:	0f 84 89 02 00 00    	je     80cb <run_target+0x84b>
    7e42:	39 1d fc 01 02 00    	cmp    DWORD PTR [rip+0x201fc],ebx        # 28044 <exec_tmout>
    7e48:	72 14                	jb     7e5e <run_target+0x5de>
    7e4a:	48 8b 1d 57 36 03 00 	mov    rbx,QWORD PTR [rip+0x33657]        # 3b4a8 <exec_ms.41>
    7e51:	48 39 1d c0 4a 0d 00 	cmp    QWORD PTR [rip+0xd4ac0],rbx        # dc918 <slowest_exec_ms>
    7e58:	0f 82 f2 01 00 00    	jb     8050 <run_target+0x7d0>
    7e5e:	31 c0                	xor    eax,eax
    7e60:	48 8b 55 d8          	mov    rdx,QWORD PTR [rbp-0x28]
    7e64:	64 48 2b 14 25 28 00 	sub    rdx,QWORD PTR fs:0x28
    7e6b:	00 00 
    7e6d:	0f 85 8c 02 00 00    	jne    80ff <run_target+0x87f>
    7e73:	48 83 c4 38          	add    rsp,0x38
    7e77:	5b                   	pop    rbx
    7e78:	41 5c                	pop    r12
    7e7a:	41 5d                	pop    r13
    7e7c:	5d                   	pop    rbp
    7e7d:	c3                   	ret    
    7e7e:	8b 3d 2c 4b 10 00    	mov    edi,DWORD PTR [rip+0x104b2c]        # 10c9b0 <fsrv_ctl_fd>
    7e84:	ba 04 00 00 00       	mov    edx,0x4
    7e89:	48 8d 35 50 36 03 00 	lea    rsi,[rip+0x33650]        # 3b4e0 <prev_timed_out.43>
    7e90:	e8 1b b3 ff ff       	call   31b0 <write@plt>
    7e95:	83 f8 04             	cmp    eax,0x4
    7e98:	0f 84 61 01 00 00    	je     7fff <run_target+0x77f>
    7e9e:	0f b6 0d d8 4a 0d 00 	movzx  ecx,BYTE PTR [rip+0xd4ad8]        # dc97d <stop_soon>
    7ea5:	84 c9                	test   cl,cl
    7ea7:	75 b5                	jne    7e5e <run_target+0x5de>
    7ea9:	85 c0                	test   eax,eax
    7eab:	0f 88 dc 00 00 00    	js     7f8d <run_target+0x70d>
    7eb1:	48 8d 35 f8 02 01 00 	lea    rsi,[rip+0x102f8]        # 181b0 <_IO_stdin_used+0x11b0>
    7eb8:	bf 01 00 00 00       	mov    edi,0x1
    7ebd:	31 c0                	xor    eax,eax
    7ebf:	e8 ac b6 ff ff       	call   3570 <__printf_chk@plt>
    7ec4:	41 b8 35 09 00 00    	mov    r8d,0x935
    7eca:	bf 01 00 00 00       	mov    edi,0x1
    7ecf:	48 8d 0d 67 f2 00 00 	lea    rcx,[rip+0xf267]        # 1713d <_IO_stdin_used+0x13d>
    7ed6:	48 8d 15 4b 67 01 00 	lea    rdx,[rip+0x1674b]        # 1e628 <__FUNCTION__.44>
    7edd:	31 c0                	xor    eax,eax
    7edf:	48 8d 35 5a 00 01 00 	lea    rsi,[rip+0x1005a]        # 17f40 <_IO_stdin_used+0xf40>
    7ee6:	e8 85 b6 ff ff       	call   3570 <__printf_chk@plt>
    7eeb:	bf 01 00 00 00       	mov    edi,0x1
    7ef0:	e8 eb b7 ff ff       	call   36e0 <exit@plt>
    7ef5:	49 c1 e1 14          	shl    r9,0x14
    7ef9:	48 89 de             	mov    rsi,rbx
    7efc:	bf 09 00 00 00       	mov    edi,0x9
    7f01:	c4 c1 f9 6e e1       	vmovq  xmm4,r9
    7f06:	c5 d9 6c ec          	vpunpcklqdq xmm5,xmm4,xmm4
    7f0a:	c5 f9 7f 6d c0       	vmovdqa XMMWORD PTR [rbp-0x40],xmm5
    7f0f:	e8 ac b3 ff ff       	call   32c0 <setrlimit64@plt>
    7f14:	e9 d3 fd ff ff       	jmp    7cec <run_target+0x46c>
    7f19:	44 8b 2d 94 4a 10 00 	mov    r13d,DWORD PTR [rip+0x104a94]        # 10c9b4 <out_fd>
    7f20:	31 f6                	xor    esi,esi
    7f22:	44 89 ef             	mov    edi,r13d
    7f25:	e8 26 b3 ff ff       	call   3250 <dup2@plt>
    7f2a:	44 89 ef             	mov    edi,r13d
    7f2d:	e8 ee b3 ff ff       	call   3320 <close@plt>
    7f32:	8b 1d ec 00 02 00    	mov    ebx,DWORD PTR [rip+0x200ec]        # 28024 <dev_null_fd>
    7f38:	e9 ff fd ff ff       	jmp    7d3c <run_target+0x4bc>
    7f3d:	8b 3d 69 4a 10 00    	mov    edi,DWORD PTR [rip+0x104a69]        # 10c9ac <fsrv_st_fd>
    7f43:	ba 04 00 00 00       	mov    edx,0x4
    7f48:	e8 23 b4 ff ff       	call   3370 <read@plt>
    7f4d:	83 f8 04             	cmp    eax,0x4
    7f50:	0f 84 1b fa ff ff    	je     7971 <run_target+0xf1>
    7f56:	44 0f b6 15 1f 4a 0d 	movzx  r10d,BYTE PTR [rip+0xd4a1f]        # dc97d <stop_soon>
    7f5d:	00 
    7f5e:	45 84 d2             	test   r10b,r10b
    7f61:	0f 85 f7 fe ff ff    	jne    7e5e <run_target+0x5de>
    7f67:	85 c0                	test   eax,eax
    7f69:	0f 88 32 01 00 00    	js     80a1 <run_target+0x821>
    7f6f:	48 8d 35 a2 03 01 00 	lea    rsi,[rip+0x103a2]        # 18318 <_IO_stdin_used+0x1318>
    7f76:	bf 01 00 00 00       	mov    edi,0x1
    7f7b:	31 c0                	xor    eax,eax
    7f7d:	e8 ee b5 ff ff       	call   3570 <__printf_chk@plt>
    7f82:	41 b8 58 09 00 00    	mov    r8d,0x958
    7f88:	e9 3d ff ff ff       	jmp    7eca <run_target+0x64a>
    7f8d:	48 8b 3d ec 00 02 00 	mov    rdi,QWORD PTR [rip+0x200ec]        # 28080 <stdout@GLIBC_2.2.5>
    7f94:	e8 57 b5 ff ff       	call   34f0 <fflush@plt>
    7f99:	48 8d 35 a8 01 01 00 	lea    rsi,[rip+0x101a8]        # 18148 <_IO_stdin_used+0x1148>
    7fa0:	bf 01 00 00 00       	mov    edi,0x1
    7fa5:	31 c0                	xor    eax,eax
    7fa7:	e8 c4 b5 ff ff       	call   3570 <__printf_chk@plt>
    7fac:	41 b8 35 09 00 00    	mov    r8d,0x935
    7fb2:	48 8d 0d 84 f1 00 00 	lea    rcx,[rip+0xf184]        # 1713d <_IO_stdin_used+0x13d>
    7fb9:	48 8d 15 68 66 01 00 	lea    rdx,[rip+0x16668]        # 1e628 <__FUNCTION__.44>
    7fc0:	bf 01 00 00 00       	mov    edi,0x1
    7fc5:	31 c0                	xor    eax,eax
    7fc7:	48 8d 35 d2 fe 00 00 	lea    rsi,[rip+0xfed2]        # 17ea0 <_IO_stdin_used+0xea0>
    7fce:	e8 9d b5 ff ff       	call   3570 <__printf_chk@plt>
    7fd3:	e8 e8 b0 ff ff       	call   30c0 <__errno_location@plt>
    7fd8:	8b 38                	mov    edi,DWORD PTR [rax]
    7fda:	e8 71 b7 ff ff       	call   3750 <strerror@plt>
    7fdf:	bf 01 00 00 00       	mov    edi,0x1
    7fe4:	48 8d 35 e5 fe 00 00 	lea    rsi,[rip+0xfee5]        # 17ed0 <_IO_stdin_used+0xed0>
    7feb:	48 89 c2             	mov    rdx,rax
    7fee:	31 c0                	xor    eax,eax
    7ff0:	e8 7b b5 ff ff       	call   3570 <__printf_chk@plt>
    7ff5:	bf 01 00 00 00       	mov    edi,0x1
    7ffa:	e8 e1 b6 ff ff       	call   36e0 <exit@plt>
    7fff:	8b 3d a7 49 10 00    	mov    edi,DWORD PTR [rip+0x1049a7]        # 10c9ac <fsrv_st_fd>
    8005:	ba 04 00 00 00       	mov    edx,0x4
    800a:	48 8d 35 0f 00 02 00 	lea    rsi,[rip+0x2000f]        # 28020 <child_pid>
    8011:	e8 5a b3 ff ff       	call   3370 <read@plt>
    8016:	83 f8 04             	cmp    eax,0x4
    8019:	74 41                	je     805c <run_target+0x7dc>
    801b:	0f b6 15 5b 49 0d 00 	movzx  edx,BYTE PTR [rip+0xd495b]        # dc97d <stop_soon>
    8022:	84 d2                	test   dl,dl
    8024:	0f 85 34 fe ff ff    	jne    7e5e <run_target+0x5de>
    802a:	85 c0                	test   eax,eax
    802c:	0f 88 a3 00 00 00    	js     80d5 <run_target+0x855>
    8032:	48 8d 35 77 01 01 00 	lea    rsi,[rip+0x10177]        # 181b0 <_IO_stdin_used+0x11b0>
    8039:	bf 01 00 00 00       	mov    edi,0x1
    803e:	31 c0                	xor    eax,eax
    8040:	e8 2b b5 ff ff       	call   3570 <__printf_chk@plt>
    8045:	41 b8 3c 09 00 00    	mov    r8d,0x93c
    804b:	e9 7a fe ff ff       	jmp    7eca <run_target+0x64a>
    8050:	48 89 1d c1 48 0d 00 	mov    QWORD PTR [rip+0xd48c1],rbx        # dc918 <slowest_exec_ms>
    8057:	e9 02 fe ff ff       	jmp    7e5e <run_target+0x5de>
    805c:	8b 05 be ff 01 00    	mov    eax,DWORD PTR [rip+0x1ffbe]        # 28020 <child_pid>
    8062:	85 c0                	test   eax,eax
    8064:	0f 8f 8d f8 ff ff    	jg     78f7 <run_target+0x77>
    806a:	48 8d 35 a7 01 01 00 	lea    rsi,[rip+0x101a7]        # 18218 <_IO_stdin_used+0x1218>
    8071:	bf 01 00 00 00       	mov    edi,0x1
    8076:	31 c0                	xor    eax,eax
    8078:	e8 f3 b4 ff ff       	call   3570 <__printf_chk@plt>
    807d:	41 b8 40 09 00 00    	mov    r8d,0x940
    8083:	e9 42 fe ff ff       	jmp    7eca <run_target+0x64a>
    8088:	0f 1f 84 00 00 00 00 	nop    DWORD PTR [rax+rax*1+0x0]
    808f:	00 
    8090:	c6 05 34 49 10 00 00 	mov    BYTE PTR [rip+0x104934],0x0        # 10c9cb <kill_signal>
    8097:	b8 02 00 00 00       	mov    eax,0x2
    809c:	e9 bf fd ff ff       	jmp    7e60 <run_target+0x5e0>
    80a1:	48 8b 3d d8 ff 01 00 	mov    rdi,QWORD PTR [rip+0x1ffd8]        # 28080 <stdout@GLIBC_2.2.5>
    80a8:	e8 43 b4 ff ff       	call   34f0 <fflush@plt>
    80ad:	48 8d 35 04 02 01 00 	lea    rsi,[rip+0x10204]        # 182b8 <_IO_stdin_used+0x12b8>
    80b4:	bf 01 00 00 00       	mov    edi,0x1
    80b9:	31 c0                	xor    eax,eax
    80bb:	e8 b0 b4 ff ff       	call   3570 <__printf_chk@plt>
    80c0:	41 b8 58 09 00 00    	mov    r8d,0x958
    80c6:	e9 e7 fe ff ff       	jmp    7fb2 <run_target+0x732>
    80cb:	b8 03 00 00 00       	mov    eax,0x3
    80d0:	e9 8b fd ff ff       	jmp    7e60 <run_target+0x5e0>
    80d5:	48 8b 3d a4 ff 01 00 	mov    rdi,QWORD PTR [rip+0x1ffa4]        # 28080 <stdout@GLIBC_2.2.5>
    80dc:	e8 0f b4 ff ff       	call   34f0 <fflush@plt>
    80e1:	48 8d 35 60 00 01 00 	lea    rsi,[rip+0x10060]        # 18148 <_IO_stdin_used+0x1148>
    80e8:	bf 01 00 00 00       	mov    edi,0x1
    80ed:	31 c0                	xor    eax,eax
    80ef:	e8 7c b4 ff ff       	call   3570 <__printf_chk@plt>
    80f4:	41 b8 3c 09 00 00    	mov    r8d,0x93c
    80fa:	e9 b3 fe ff ff       	jmp    7fb2 <run_target+0x732>
    80ff:	e8 3c b1 ff ff       	call   3240 <__stack_chk_fail@plt>
    8104:	48 8b 3d 75 ff 01 00 	mov    rdi,QWORD PTR [rip+0x1ff75]        # 28080 <stdout@GLIBC_2.2.5>
    810b:	e8 e0 b3 ff ff       	call   34f0 <fflush@plt>
    8110:	48 8d 35 79 ff 00 00 	lea    rsi,[rip+0xff79]        # 18090 <_IO_stdin_used+0x1090>
    8117:	bf 01 00 00 00       	mov    edi,0x1
    811c:	31 c0                	xor    eax,eax
    811e:	e8 4d b4 ff ff       	call   3570 <__printf_chk@plt>
    8123:	41 b8 e2 08 00 00    	mov    r8d,0x8e2
    8129:	e9 84 fe ff ff       	jmp    7fb2 <run_target+0x732>
    812e:	48 8b 3d 4b ff 01 00 	mov    rdi,QWORD PTR [rip+0x1ff4b]        # 28080 <stdout@GLIBC_2.2.5>
    8135:	e8 b6 b3 ff ff       	call   34f0 <fflush@plt>
    813a:	48 8d 35 2f 01 01 00 	lea    rsi,[rip+0x1012f]        # 18270 <_IO_stdin_used+0x1270>
    8141:	bf 01 00 00 00       	mov    edi,0x1
    8146:	31 c0                	xor    eax,eax
    8148:	e8 23 b4 ff ff       	call   3570 <__printf_chk@plt>
    814d:	41 b8 4f 09 00 00    	mov    r8d,0x94f
    8153:	e9 5a fe ff ff       	jmp    7fb2 <run_target+0x732>
    8158:	0f 1f 84 00 00 00 00 	nop    DWORD PTR [rax+rax*1+0x0]
    815f:	00 

0000000000008160 <handle_timeout>:
    8160:	f3 0f 1e fa          	endbr64 
    8164:	55                   	push   rbp
    8165:	48 89 e5             	mov    rbp,rsp
    8168:	ff 15 72 fe 01 00    	call   QWORD PTR [rip+0x1fe72]        # 27fe0 <mcount@GLIBC_2.2.5>
    816e:	8b 3d ac fe 01 00    	mov    edi,DWORD PTR [rip+0x1feac]        # 28020 <child_pid>
    8174:	85 ff                	test   edi,edi
    8176:	7f 12                	jg     818a <handle_timeout+0x2a>
    8178:	83 ff ff             	cmp    edi,0xffffffff
    817b:	74 03                	je     8180 <handle_timeout+0x20>
    817d:	5d                   	pop    rbp
    817e:	c3                   	ret    
    817f:	90                   	nop
    8180:	8b 3d 22 48 10 00    	mov    edi,DWORD PTR [rip+0x104822]        # 10c9a8 <forksrv_pid>
    8186:	85 ff                	test   edi,edi
    8188:	7e f3                	jle    817d <handle_timeout+0x1d>
