
afl-fuzz:     file format elf64-x86-64


Disassembly of section .text:

0000000000003860 <main>:
    3860:	f3 0f 1e fa          	endbr64 
    3864:	55                   	push   rbp
    3865:	48 89 e5             	mov    rbp,rsp
    3868:	41 57                	push   r15
    386a:	41 56                	push   r14
    386c:	41 55                	push   r13
    386e:	41 54                	push   r12
    3870:	53                   	push   rbx
    3871:	48 81 ec a8 01 00 00 	sub    rsp,0x1a8
    3878:	ff 15 62 d7 02 00    	call   QWORD PTR [rip+0x2d762]        # 30fe0 <mcount@GLIBC_2.2.5>
    387e:	48 8d 1d 5b bf 01 00 	lea    rbx,[rip+0x1bf5b]        # 1f7e0 <_IO_stdin_used+0x7e0>
    3885:	64 48 8b 04 25 28 00 	mov    rax,QWORD PTR fs:0x28
    388c:	00 00 
    388e:	48 89 45 c8          	mov    QWORD PTR [rbp-0x38],rax
    3892:	31 c0                	xor    eax,eax
    3894:	41 89 ff             	mov    r15d,edi
    3897:	48 8d 3d 74 bf 01 00 	lea    rdi,[rip+0x1bf74]        # 1f812 <_IO_stdin_used+0x812>
    389e:	49 89 f6             	mov    r14,rsi
    38a1:	e8 9a f7 ff ff       	call   3040 <getenv@plt>
    38a6:	48 89 85 60 fe ff ff 	mov    QWORD PTR [rbp-0x1a0],rax
    38ad:	31 c0                	xor    eax,eax
    38af:	e8 5b a9 01 00       	call   1e20f <setup_device_memory>
    38b4:	48 8d 3d 1d 1f 02 00 	lea    rdi,[rip+0x21f1d]        # 257d8 <_IO_stdin_used+0x67d8>
    38bb:	e8 90 f8 ff ff       	call   3150 <puts@plt>
    38c0:	31 f6                	xor    esi,esi
    38c2:	48 89 df             	mov    rdi,rbx
    38c5:	e8 46 fd ff ff       	call   3610 <access@plt>
    38ca:	48 8d b5 70 fe ff ff 	lea    rsi,[rbp-0x190]
    38d1:	48 8d bd 80 fe ff ff 	lea    rdi,[rbp-0x180]
    38d8:	85 c0                	test   eax,eax
    38da:	48 8d 05 fa be 01 00 	lea    rax,[rip+0x1befa]        # 1f7db <_IO_stdin_used+0x7db>
    38e1:	48 0f 44 c3          	cmove  rax,rbx
    38e5:	45 31 ed             	xor    r13d,r13d
    38e8:	48 8d 1d 11 3b 02 00 	lea    rbx,[rip+0x23b11]        # 27400 <_IO_stdin_used+0x8400>
    38ef:	48 89 05 32 81 3d 00 	mov    QWORD PTR [rip+0x3d8132],rax        # 3dba28 <doc_path>
    38f6:	e8 e5 f9 ff ff       	call   32e0 <gettimeofday@plt>
    38fb:	4c 8b a5 88 fe ff ff 	mov    r12,QWORD PTR [rbp-0x178]
    3902:	44 33 a5 80 fe ff ff 	xor    r12d,DWORD PTR [rbp-0x180]
    3909:	e8 b2 f8 ff ff       	call   31c0 <getpid@plt>
    390e:	41 31 c4             	xor    r12d,eax
    3911:	44 89 e7             	mov    edi,r12d
    3914:	4c 8d 25 32 bf 01 00 	lea    r12,[rip+0x1bf32]        # 1f84d <_IO_stdin_used+0x84d>
    391b:	e8 b0 f7 ff ff       	call   30d0 <srandom@plt>
    3920:	48 c7 85 68 fe ff ff 	mov    QWORD PTR [rbp-0x198],0x0
    3927:	00 00 00 00 
    392b:	4c 89 e2             	mov    rdx,r12
    392e:	4c 89 f6             	mov    rsi,r14
    3931:	44 89 ff             	mov    edi,r15d
    3934:	e8 47 fd ff ff       	call   3680 <getopt@plt>
    3939:	85 c0                	test   eax,eax
    393b:	7e 12                	jle    394f <main+0xef>
    393d:	83 e8 42             	sub    eax,0x42
    3940:	83 f8 36             	cmp    eax,0x36
    3943:	77 2d                	ja     3972 <main+0x112>
    3945:	48 63 04 83          	movsxd rax,DWORD PTR [rbx+rax*4]
    3949:	48 01 d8             	add    rax,rbx
    394c:	3e ff e0             	notrack jmp rax
    394f:	44 39 3d 32 d7 02 00 	cmp    DWORD PTR [rip+0x2d732],r15d        # 31088 <optind@GLIBC_2.2.5>
    3956:	74 1a                	je     3972 <main+0x112>
    3958:	48 83 3d 00 81 3d 00 	cmp    QWORD PTR [rip+0x3d8100],0x0        # 3dba60 <in_dir>
    395f:	00 
    3960:	74 10                	je     3972 <main+0x112>
    3962:	48 8b 1d e7 80 3d 00 	mov    rbx,QWORD PTR [rip+0x3d80e7]        # 3dba50 <out_dir>
    3969:	48 85 db             	test   rbx,rbx
    396c:	0f 85 62 05 00 00    	jne    3ed4 <main+0x674>
    3972:	49 8b 3e             	mov    rdi,QWORD PTR [r14]
    3975:	e8 e6 3f 00 00       	call   7960 <usage>
    397a:	48 83 bd 68 fe ff ff 	cmp    QWORD PTR [rbp-0x198],0x0
    3981:	00 
    3982:	0f 85 d5 0a 00 00    	jne    445d <main+0xbfd>
    3988:	48 8b 35 11 d7 02 00 	mov    rsi,QWORD PTR [rip+0x2d711]        # 310a0 <optarg@GLIBC_2.2.5>
    398f:	48 89 b5 68 fe ff ff 	mov    QWORD PTR [rbp-0x198],rsi
    3996:	eb 93                	jmp    392b <main+0xcb>
    3998:	80 3d 6a 80 3d 00 00 	cmp    BYTE PTR [rip+0x3d806a],0x0        # 3dba09 <timeout_given>
    399f:	c6 85 90 fe ff ff 00 	mov    BYTE PTR [rbp-0x170],0x0
    39a6:	0f 85 cf 0a 00 00    	jne    447b <main+0xc1b>
    39ac:	48 8b 3d ed d6 02 00 	mov    rdi,QWORD PTR [rip+0x2d6ed]        # 310a0 <optarg@GLIBC_2.2.5>
    39b3:	31 c0                	xor    eax,eax
    39b5:	48 8d 8d 90 fe ff ff 	lea    rcx,[rbp-0x170]
    39bc:	48 8d 15 81 d6 02 00 	lea    rdx,[rip+0x2d681]        # 31044 <exec_tmout>
    39c3:	48 8d 35 61 be 01 00 	lea    rsi,[rip+0x1be61]        # 1f82b <_IO_stdin_used+0x82b>
    39ca:	e8 51 fb ff ff       	call   3520 <__isoc99_sscanf@plt>
    39cf:	85 c0                	test   eax,eax
    39d1:	0f 8e 98 09 00 00    	jle    436f <main+0xb0f>
    39d7:	48 8b 15 c2 d6 02 00 	mov    rdx,QWORD PTR [rip+0x2d6c2]        # 310a0 <optarg@GLIBC_2.2.5>
    39de:	80 3a 2d             	cmp    BYTE PTR [rdx],0x2d
    39e1:	0f 84 88 09 00 00    	je     436f <main+0xb0f>
    39e7:	83 3d 56 d6 02 00 04 	cmp    DWORD PTR [rip+0x2d656],0x4        # 31044 <exec_tmout>
    39ee:	0f 86 d3 09 00 00    	jbe    43c7 <main+0xb67>
    39f4:	80 bd 90 fe ff ff 2b 	cmp    BYTE PTR [rbp-0x170],0x2b
    39fb:	41 0f 94 c1          	sete   r9b
    39ff:	41 83 c1 01          	add    r9d,0x1
    3a03:	44 88 0d ff 7f 3d 00 	mov    BYTE PTR [rip+0x3d7fff],r9b        # 3dba09 <timeout_given>
    3a0a:	e9 1c ff ff ff       	jmp    392b <main+0xcb>
    3a0f:	48 83 3d 39 80 3d 00 	cmp    QWORD PTR [rip+0x3d8039],0x0        # 3dba50 <out_dir>
    3a16:	00 
    3a17:	0f 85 f4 0a 00 00    	jne    4511 <main+0xcb1>
    3a1d:	4c 8b 15 7c d6 02 00 	mov    r10,QWORD PTR [rip+0x2d67c]        # 310a0 <optarg@GLIBC_2.2.5>
    3a24:	4c 89 15 25 80 3d 00 	mov    QWORD PTR [rip+0x3d8025],r10        # 3dba50 <out_dir>
    3a2b:	e9 fb fe ff ff       	jmp    392b <main+0xcb>
    3a30:	80 3d d6 7f 3d 00 00 	cmp    BYTE PTR [rip+0x3d7fd6],0x0        # 3dba0d <dumb_mode>
    3a37:	0f 85 f2 0a 00 00    	jne    452f <main+0xccf>
    3a3d:	48 8d 3d f8 bd 01 00 	lea    rdi,[rip+0x1bdf8]        # 1f83c <_IO_stdin_used+0x83c>
    3a44:	e8 f7 f5 ff ff       	call   3040 <getenv@plt>
    3a49:	41 bb 01 00 00 00    	mov    r11d,0x1
    3a4f:	48 83 f8 01          	cmp    rax,0x1
    3a53:	41 80 db ff          	sbb    r11b,0xff
    3a57:	44 88 1d af 7f 3d 00 	mov    BYTE PTR [rip+0x3d7faf],r11b        # 3dba0d <dumb_mode>
    3a5e:	e9 c8 fe ff ff       	jmp    392b <main+0xcb>
    3a63:	c6 85 90 fe ff ff 4d 	mov    BYTE PTR [rbp-0x170],0x4d
    3a6a:	45 84 ed             	test   r13b,r13b
    3a6d:	0f 85 44 0a 00 00    	jne    44b7 <main+0xc57>
    3a73:	4c 8b 2d 26 d6 02 00 	mov    r13,QWORD PTR [rip+0x2d626]        # 310a0 <optarg@GLIBC_2.2.5>
    3a7a:	48 8d 35 af bd 01 00 	lea    rsi,[rip+0x1bdaf]        # 1f830 <_IO_stdin_used+0x830>
    3a81:	4c 89 ef             	mov    rdi,r13
    3a84:	e8 47 f9 ff ff       	call   33d0 <strcmp@plt>
    3a89:	85 c0                	test   eax,eax
    3a8b:	0f 85 2b 03 00 00    	jne    3dbc <main+0x55c>
    3a91:	48 c7 05 9c d5 02 00 	mov    QWORD PTR [rip+0x2d59c],0x0        # 31038 <mem_limit>
    3a98:	00 00 00 00 
    3a9c:	41 bd 01 00 00 00    	mov    r13d,0x1
    3aa2:	e9 84 fe ff ff       	jmp    392b <main+0xcb>
    3aa7:	48 83 3d b1 7f 3d 00 	cmp    QWORD PTR [rip+0x3d7fb1],0x0        # 3dba60 <in_dir>
    3aae:	00 
    3aaf:	0f 85 6c 09 00 00    	jne    4421 <main+0xbc1>
    3ab5:	48 8b 3d e4 d5 02 00 	mov    rdi,QWORD PTR [rip+0x2d5e4]        # 310a0 <optarg@GLIBC_2.2.5>
    3abc:	48 8d 35 fe be 01 00 	lea    rsi,[rip+0x1befe]        # 1f9c1 <_IO_stdin_used+0x9c1>
    3ac3:	48 89 3d 96 7f 3d 00 	mov    QWORD PTR [rip+0x3d7f96],rdi        # 3dba60 <in_dir>
    3aca:	e8 01 f9 ff ff       	call   33d0 <strcmp@plt>
    3acf:	85 c0                	test   eax,eax
    3ad1:	0f 85 54 fe ff ff    	jne    392b <main+0xcb>
    3ad7:	c6 05 24 7f 3d 00 01 	mov    BYTE PTR [rip+0x3d7f24],0x1        # 3dba02 <in_place_resume>
    3ade:	e9 48 fe ff ff       	jmp    392b <main+0xcb>
    3ae3:	48 83 3d 6d 7f 3d 00 	cmp    QWORD PTR [rip+0x3d7f6d],0x0        # 3dba58 <out_file>
    3aea:	00 
    3aeb:	0f 85 5c 0a 00 00    	jne    454d <main+0xced>
    3af1:	4c 8b 05 a8 d5 02 00 	mov    r8,QWORD PTR [rip+0x2d5a8]        # 310a0 <optarg@GLIBC_2.2.5>
    3af8:	4c 89 05 59 7f 3d 00 	mov    QWORD PTR [rip+0x3d7f59],r8        # 3dba58 <out_file>
    3aff:	e9 27 fe ff ff       	jmp    392b <main+0xcb>
    3b04:	80 3d 05 7f 3d 00 00 	cmp    BYTE PTR [rip+0x3d7f05],0x0        # 3dba10 <skip_deterministic>
    3b0b:	0f 85 d4 08 00 00    	jne    43e5 <main+0xb85>
    3b11:	c6 05 f8 7e 3d 00 01 	mov    BYTE PTR [rip+0x3d7ef8],0x1        # 3dba10 <skip_deterministic>
    3b18:	c6 05 ef 7e 3d 00 01 	mov    BYTE PTR [rip+0x3d7eef],0x1        # 3dba0e <use_splicing>
    3b1f:	e9 07 fe ff ff       	jmp    392b <main+0xcb>
    3b24:	80 3d dd 7e 3d 00 00 	cmp    BYTE PTR [rip+0x3d7edd],0x0        # 3dba08 <cpu_to_bind_given>
    3b2b:	0f 85 d2 08 00 00    	jne    4403 <main+0xba3>
    3b31:	48 8b 3d 68 d5 02 00 	mov    rdi,QWORD PTR [rip+0x2d568]        # 310a0 <optarg@GLIBC_2.2.5>
    3b38:	31 c0                	xor    eax,eax
    3b3a:	48 8d 15 d3 7e 3d 00 	lea    rdx,[rip+0x3d7ed3]        # 3dba14 <cpu_to_bind>
    3b41:	48 8d 35 40 bb 01 00 	lea    rsi,[rip+0x1bb40]        # 1f688 <_IO_stdin_used+0x688>
    3b48:	c6 05 b9 7e 3d 00 01 	mov    BYTE PTR [rip+0x3d7eb9],0x1        # 3dba08 <cpu_to_bind_given>
    3b4f:	e8 cc f9 ff ff       	call   3520 <__isoc99_sscanf@plt>
    3b54:	85 c0                	test   eax,eax
    3b56:	7e 10                	jle    3b68 <main+0x308>
    3b58:	48 8b 05 41 d5 02 00 	mov    rax,QWORD PTR [rip+0x2d541]        # 310a0 <optarg@GLIBC_2.2.5>
    3b5f:	80 38 2d             	cmp    BYTE PTR [rax],0x2d
    3b62:	0f 85 c3 fd ff ff    	jne    392b <main+0xcb>
    3b68:	48 8d 35 51 21 02 00 	lea    rsi,[rip+0x22151]        # 25cc0 <_IO_stdin_used+0x6cc0>
    3b6f:	bf 01 00 00 00       	mov    edi,0x1
    3b74:	31 c0                	xor    eax,eax
    3b76:	e8 15 fa ff ff       	call   3590 <__printf_chk@plt>
    3b7b:	41 b8 e6 1e 00 00    	mov    r8d,0x1ee6
    3b81:	48 8d 0d bc b5 01 00 	lea    rcx,[rip+0x1b5bc]        # 1f144 <_IO_stdin_used+0x144>
    3b88:	48 8d 15 3f 3d 02 00 	lea    rdx,[rip+0x23d3f]        # 278ce <__FUNCTION__.84>
    3b8f:	e9 0b 02 00 00       	jmp    3d9f <main+0x53f>
    3b94:	e8 87 56 00 00       	call   9220 <DFL_ck_free>
    3b99:	48 8b 3d 80 7e 3d 00 	mov    rdi,QWORD PTR [rip+0x3d7e80]        # 3dba20 <target_path>
    3ba0:	e8 7b 56 00 00       	call   9220 <DFL_ck_free>
    3ba5:	48 8b 3d 94 7e 3d 00 	mov    rdi,QWORD PTR [rip+0x3d7e94]        # 3dba40 <sync_id>
    3bac:	e8 6f 56 00 00       	call   9220 <DFL_ck_free>
    3bb1:	48 8d 3d b0 36 02 00 	lea    rdi,[rip+0x236b0]        # 27268 <_IO_stdin_used+0x8268>
    3bb8:	e8 93 f5 ff ff       	call   3150 <puts@plt>
    3bbd:	48 8b bd 58 fe ff ff 	mov    rdi,QWORD PTR [rbp-0x1a8]
    3bc4:	e8 87 f5 ff ff       	call   3150 <puts@plt>
    3bc9:	31 ff                	xor    edi,edi
    3bcb:	e8 30 fb ff ff       	call   3700 <exit@plt>
    3bd0:	48 83 3d 60 7e 3d 00 	cmp    QWORD PTR [rip+0x3d7e60],0x0        # 3dba38 <use_banner>
    3bd7:	00 
    3bd8:	0f 85 61 08 00 00    	jne    443f <main+0xbdf>
    3bde:	48 8b 35 bb d4 02 00 	mov    rsi,QWORD PTR [rip+0x2d4bb]        # 310a0 <optarg@GLIBC_2.2.5>
    3be5:	48 89 35 4c 7e 3d 00 	mov    QWORD PTR [rip+0x3d7e4c],rsi        # 3dba38 <use_banner>
    3bec:	e9 3a fd ff ff       	jmp    392b <main+0xcb>
    3bf1:	48 83 3d 47 7e 3d 00 	cmp    QWORD PTR [rip+0x3d7e47],0x0        # 3dba40 <sync_id>
    3bf8:	00 
    3bf9:	0f 85 d6 08 00 00    	jne    44d5 <main+0xc75>
    3bff:	48 8b 3d 9a d4 02 00 	mov    rdi,QWORD PTR [rip+0x2d49a]        # 310a0 <optarg@GLIBC_2.2.5>
    3c06:	e8 95 3d 00 00       	call   79a0 <DFL_ck_strdup>
    3c0b:	48 89 05 2e 7e 3d 00 	mov    QWORD PTR [rip+0x3d7e2e],rax        # 3dba40 <sync_id>
    3c12:	e9 14 fd ff ff       	jmp    392b <main+0xcb>
    3c17:	80 3d df 7d 3d 00 00 	cmp    BYTE PTR [rip+0x3d7ddf],0x0        # 3db9fd <qemu_mode>
    3c1e:	0f 85 cf 08 00 00    	jne    44f3 <main+0xc93>
    3c24:	c6 05 d2 7d 3d 00 01 	mov    BYTE PTR [rip+0x3d7dd2],0x1        # 3db9fd <qemu_mode>
    3c2b:	45 84 ed             	test   r13b,r13b
    3c2e:	0f 85 f7 fc ff ff    	jne    392b <main+0xcb>
    3c34:	48 c7 05 f9 d3 02 00 	mov    QWORD PTR [rip+0x2d3f9],0xc8        # 31038 <mem_limit>
    3c3b:	c8 00 00 00 
    3c3f:	e9 e7 fc ff ff       	jmp    392b <main+0xcb>
    3c44:	48 83 3d f4 7d 3d 00 	cmp    QWORD PTR [rip+0x3d7df4],0x0        # 3dba40 <sync_id>
    3c4b:	00 
    3c4c:	0f 85 19 09 00 00    	jne    456b <main+0xd0b>
    3c52:	48 8b 3d 47 d4 02 00 	mov    rdi,QWORD PTR [rip+0x2d447]        # 310a0 <optarg@GLIBC_2.2.5>
    3c59:	e8 42 3d 00 00       	call   79a0 <DFL_ck_strdup>
    3c5e:	be 3a 00 00 00       	mov    esi,0x3a
    3c63:	48 89 c7             	mov    rdi,rax
    3c66:	48 89 05 d3 7d 3d 00 	mov    QWORD PTR [rip+0x3d7dd3],rax        # 3dba40 <sync_id>
    3c6d:	e8 fe f5 ff ff       	call   3270 <strchr@plt>
    3c72:	48 85 c0             	test   rax,rax
    3c75:	74 5b                	je     3cd2 <main+0x472>
    3c77:	c6 00 00             	mov    BYTE PTR [rax],0x0
    3c7a:	48 8d 78 01          	lea    rdi,[rax+0x1]
    3c7e:	31 c0                	xor    eax,eax
    3c80:	48 8d 0d 49 7c 2d 00 	lea    rcx,[rip+0x2d7c49]        # 2db8d0 <master_max>
    3c87:	48 8d 15 46 7c 2d 00 	lea    rdx,[rip+0x2d7c46]        # 2db8d4 <master_id>
    3c8e:	48 8d 35 90 bb 01 00 	lea    rsi,[rip+0x1bb90]        # 1f825 <_IO_stdin_used+0x825>
    3c95:	e8 86 f8 ff ff       	call   3520 <__isoc99_sscanf@plt>
    3c9a:	83 f8 02             	cmp    eax,0x2
    3c9d:	0f 85 02 04 00 00    	jne    40a5 <main+0x845>
    3ca3:	8b 15 2b 7c 2d 00    	mov    edx,DWORD PTR [rip+0x2d7c2b]        # 2db8d4 <master_id>
    3ca9:	85 d2                	test   edx,edx
    3cab:	0f 84 f4 03 00 00    	je     40a5 <main+0x845>
    3cb1:	44 8b 0d 18 7c 2d 00 	mov    r9d,DWORD PTR [rip+0x2d7c18]        # 2db8d0 <master_max>
    3cb8:	45 8d 51 ff          	lea    r10d,[r9-0x1]
    3cbc:	41 81 fa 3f 42 0f 00 	cmp    r10d,0xf423f
    3cc3:	0f 87 dc 03 00 00    	ja     40a5 <main+0x845>
    3cc9:	44 39 ca             	cmp    edx,r9d
    3ccc:	0f 87 d3 03 00 00    	ja     40a5 <main+0x845>
    3cd2:	c6 05 36 7d 3d 00 01 	mov    BYTE PTR [rip+0x3d7d36],0x1        # 3dba0f <force_deterministic>
    3cd9:	e9 4d fc ff ff       	jmp    392b <main+0xcb>
    3cde:	80 3d 1e 7d 3d 00 00 	cmp    BYTE PTR [rip+0x3d7d1e],0x0        # 3dba03 <crash_mode>
    3ce5:	0f 85 ae 07 00 00    	jne    4499 <main+0xc39>
    3ceb:	c6 05 11 7d 3d 00 02 	mov    BYTE PTR [rip+0x3d7d11],0x2        # 3dba03 <crash_mode>
    3cf2:	e9 34 fc ff ff       	jmp    392b <main+0xcb>
    3cf7:	48 83 3d 31 7d 3d 00 	cmp    QWORD PTR [rip+0x3d7d31],0x0        # 3dba30 <in_bitmap>
    3cfe:	00 
    3cff:	0f 85 a4 06 00 00    	jne    43a9 <main+0xb49>
    3d05:	4c 8b 1d 94 d3 02 00 	mov    r11,QWORD PTR [rip+0x2d394]        # 310a0 <optarg@GLIBC_2.2.5>
    3d0c:	31 f6                	xor    esi,esi
    3d0e:	31 c0                	xor    eax,eax
    3d10:	4c 89 df             	mov    rdi,r11
    3d13:	4c 89 1d 16 7d 3d 00 	mov    QWORD PTR [rip+0x3d7d16],r11        # 3dba30 <in_bitmap>
    3d1a:	4c 89 9d 58 fe ff ff 	mov    QWORD PTR [rbp-0x1a8],r11
    3d21:	e8 8a f8 ff ff       	call   35b0 <open64@plt>
    3d26:	48 8b 8d 58 fe ff ff 	mov    rcx,QWORD PTR [rbp-0x1a8]
    3d2d:	85 c0                	test   eax,eax
    3d2f:	89 c7                	mov    edi,eax
    3d31:	0f 88 0c 23 00 00    	js     6043 <main+0x27e3>
    3d37:	ba 00 00 04 00       	mov    edx,0x40000
    3d3c:	48 8d 35 9d 7c 39 00 	lea    rsi,[rip+0x397c9d]        # 39b9e0 <virgin_bits>
    3d43:	48 89 8d 50 fe ff ff 	mov    QWORD PTR [rbp-0x1b0],rcx
    3d4a:	89 85 58 fe ff ff    	mov    DWORD PTR [rbp-0x1a8],eax
    3d50:	e8 3b f6 ff ff       	call   3390 <read@plt>
    3d55:	8b bd 58 fe ff ff    	mov    edi,DWORD PTR [rbp-0x1a8]
    3d5b:	3d 00 00 04 00       	cmp    eax,0x40000
    3d60:	0f 84 64 01 00 00    	je     3eca <main+0x66a>
    3d66:	4c 8b bd 50 fe ff ff 	mov    r15,QWORD PTR [rbp-0x1b0]
    3d6d:	85 c0                	test   eax,eax
    3d6f:	0f 88 bf 00 00 00    	js     3e34 <main+0x5d4>
    3d75:	4c 89 fa             	mov    rdx,r15
    3d78:	48 8d 35 11 cc 01 00 	lea    rsi,[rip+0x1cc11]        # 20990 <_IO_stdin_used+0x1990>
    3d7f:	bf 01 00 00 00       	mov    edi,0x1
    3d84:	31 c0                	xor    eax,eax
    3d86:	e8 05 f8 ff ff       	call   3590 <__printf_chk@plt>
    3d8b:	41 b8 88 03 00 00    	mov    r8d,0x388
    3d91:	48 8d 0d ac b3 01 00 	lea    rcx,[rip+0x1b3ac]        # 1f144 <_IO_stdin_used+0x144>
    3d98:	48 8d 15 11 3b 02 00 	lea    rdx,[rip+0x23b11]        # 278b0 <__FUNCTION__.82>
    3d9f:	bf 01 00 00 00       	mov    edi,0x1
    3da4:	48 8d 35 55 c7 01 00 	lea    rsi,[rip+0x1c755]        # 20500 <_IO_stdin_used+0x1500>
    3dab:	31 c0                	xor    eax,eax
    3dad:	e8 de f7 ff ff       	call   3590 <__printf_chk@plt>
    3db2:	bf 01 00 00 00       	mov    edi,0x1
    3db7:	e8 44 f9 ff ff       	call   3700 <exit@plt>
    3dbc:	31 c0                	xor    eax,eax
    3dbe:	48 8d 8d 90 fe ff ff 	lea    rcx,[rbp-0x170]
    3dc5:	4c 89 ef             	mov    rdi,r13
    3dc8:	48 8d 15 69 d2 02 00 	lea    rdx,[rip+0x2d269]        # 31038 <mem_limit>
    3dcf:	48 8d 35 5f ba 01 00 	lea    rsi,[rip+0x1ba5f]        # 1f835 <_IO_stdin_used+0x835>
    3dd6:	e8 45 f7 ff ff       	call   3520 <__isoc99_sscanf@plt>
    3ddb:	85 c0                	test   eax,eax
    3ddd:	0f 8e f0 07 00 00    	jle    45d3 <main+0xd73>
    3de3:	48 8b 3d b6 d2 02 00 	mov    rdi,QWORD PTR [rip+0x2d2b6]        # 310a0 <optarg@GLIBC_2.2.5>
    3dea:	80 3f 2d             	cmp    BYTE PTR [rdi],0x2d
    3ded:	0f 84 e0 07 00 00    	je     45d3 <main+0xd73>
    3df3:	0f b6 8d 90 fe ff ff 	movzx  ecx,BYTE PTR [rbp-0x170]
    3dfa:	80 f9 54             	cmp    cl,0x54
    3dfd:	0f 84 5f 05 00 00    	je     4362 <main+0xb02>
    3e03:	0f 87 ab 00 00 00    	ja     3eb4 <main+0x654>
    3e09:	80 f9 47             	cmp    cl,0x47
    3e0c:	0f 84 43 05 00 00    	je     4355 <main+0xaf5>
    3e12:	80 f9 4d             	cmp    cl,0x4d
    3e15:	0f 85 1c 05 00 00    	jne    4337 <main+0xad7>
    3e1b:	48 83 3d 15 d2 02 00 	cmp    QWORD PTR [rip+0x2d215],0x4        # 31038 <mem_limit>
    3e22:	04 
    3e23:	0f 86 20 08 00 00    	jbe    4649 <main+0xde9>
    3e29:	41 bd 01 00 00 00    	mov    r13d,0x1
    3e2f:	e9 f7 fa ff ff       	jmp    392b <main+0xcb>
    3e34:	48 8b 3d 45 d2 02 00 	mov    rdi,QWORD PTR [rip+0x2d245]        # 31080 <stdout@GLIBC_2.2.5>
    3e3b:	4c 89 bd 68 fe ff ff 	mov    QWORD PTR [rbp-0x198],r15
    3e42:	e8 c9 f6 ff ff       	call   3510 <fflush@plt>
    3e47:	48 8b 95 68 fe ff ff 	mov    rdx,QWORD PTR [rbp-0x198]
    3e4e:	48 8d 35 f3 ca 01 00 	lea    rsi,[rip+0x1caf3]        # 20948 <_IO_stdin_used+0x1948>
    3e55:	31 c0                	xor    eax,eax
    3e57:	bf 01 00 00 00       	mov    edi,0x1
    3e5c:	e8 2f f7 ff ff       	call   3590 <__printf_chk@plt>
    3e61:	41 b8 88 03 00 00    	mov    r8d,0x388
    3e67:	48 8d 0d d6 b2 01 00 	lea    rcx,[rip+0x1b2d6]        # 1f144 <_IO_stdin_used+0x144>
    3e6e:	48 8d 15 3b 3a 02 00 	lea    rdx,[rip+0x23a3b]        # 278b0 <__FUNCTION__.82>
    3e75:	48 8d 35 9c c5 01 00 	lea    rsi,[rip+0x1c59c]        # 20418 <_IO_stdin_used+0x1418>
    3e7c:	bf 01 00 00 00       	mov    edi,0x1
    3e81:	31 c0                	xor    eax,eax
    3e83:	e8 08 f7 ff ff       	call   3590 <__printf_chk@plt>
    3e88:	e8 33 f2 ff ff       	call   30c0 <__errno_location@plt>
    3e8d:	8b 38                	mov    edi,DWORD PTR [rax]
    3e8f:	e8 dc f8 ff ff       	call   3770 <strerror@plt>
    3e94:	bf 01 00 00 00       	mov    edi,0x1
    3e99:	48 8d 35 a8 c5 01 00 	lea    rsi,[rip+0x1c5a8]        # 20448 <_IO_stdin_used+0x1448>
    3ea0:	48 89 c2             	mov    rdx,rax
    3ea3:	31 c0                	xor    eax,eax
    3ea5:	e8 e6 f6 ff ff       	call   3590 <__printf_chk@plt>
    3eaa:	bf 01 00 00 00       	mov    edi,0x1
    3eaf:	e8 4c f8 ff ff       	call   3700 <exit@plt>
    3eb4:	80 f9 6b             	cmp    cl,0x6b
    3eb7:	0f 85 7a 04 00 00    	jne    4337 <main+0xad7>
    3ebd:	48 c1 2d 73 d1 02 00 	shr    QWORD PTR [rip+0x2d173],0xa        # 31038 <mem_limit>
    3ec4:	0a 
    3ec5:	e9 51 ff ff ff       	jmp    3e1b <main+0x5bb>
    3eca:	e8 61 f4 ff ff       	call   3330 <close@plt>
    3ecf:	e9 57 fa ff ff       	jmp    392b <main+0xcb>
    3ed4:	48 8d bd a8 fe ff ff 	lea    rdi,[rbp-0x158]
    3edb:	4c 8d ad a0 fe ff ff 	lea    r13,[rbp-0x160]
    3ee2:	48 c7 85 a0 fe ff ff 	mov    QWORD PTR [rbp-0x160],0x0
    3ee9:	00 00 00 00 
    3eed:	c7 85 28 ff ff ff 00 	mov    DWORD PTR [rbp-0xd8],0x10000000
    3ef4:	00 00 10 
    3ef7:	e8 14 f5 ff ff       	call   3410 <sigemptyset@plt>
    3efc:	48 8d 15 8d 25 00 00 	lea    rdx,[rip+0x258d]        # 6490 <handle_stop_sig>
    3f03:	4c 89 ee             	mov    rsi,r13
    3f06:	bf 01 00 00 00       	mov    edi,0x1
    3f0b:	48 89 95 a0 fe ff ff 	mov    QWORD PTR [rbp-0x160],rdx
    3f12:	31 d2                	xor    edx,edx
    3f14:	e8 57 f2 ff ff       	call   3170 <sigaction@plt>
    3f19:	31 d2                	xor    edx,edx
    3f1b:	4c 89 ee             	mov    rsi,r13
    3f1e:	bf 02 00 00 00       	mov    edi,0x2
    3f23:	e8 48 f2 ff ff       	call   3170 <sigaction@plt>
    3f28:	31 d2                	xor    edx,edx
    3f2a:	4c 89 ee             	mov    rsi,r13
    3f2d:	bf 0f 00 00 00       	mov    edi,0xf
    3f32:	e8 39 f2 ff ff       	call   3170 <sigaction@plt>
    3f37:	31 d2                	xor    edx,edx
    3f39:	4c 89 ee             	mov    rsi,r13
    3f3c:	bf 0e 00 00 00       	mov    edi,0xe
    3f41:	48 8d 0d f8 50 00 00 	lea    rcx,[rip+0x50f8]        # 9040 <handle_timeout>
    3f48:	48 89 8d a0 fe ff ff 	mov    QWORD PTR [rbp-0x160],rcx
    3f4f:	e8 1c f2 ff ff       	call   3170 <sigaction@plt>
    3f54:	48 8d 35 15 25 00 00 	lea    rsi,[rip+0x2515]        # 6470 <handle_resize>
    3f5b:	31 d2                	xor    edx,edx
    3f5d:	bf 1c 00 00 00       	mov    edi,0x1c
    3f62:	48 89 b5 a0 fe ff ff 	mov    QWORD PTR [rbp-0x160],rsi
    3f69:	4c 89 ee             	mov    rsi,r13
    3f6c:	e8 ff f1 ff ff       	call   3170 <sigaction@plt>
    3f71:	48 8d 3d d8 24 00 00 	lea    rdi,[rip+0x24d8]        # 6450 <handle_skipreq>
    3f78:	31 d2                	xor    edx,edx
    3f7a:	4c 89 ee             	mov    rsi,r13
    3f7d:	48 89 bd a0 fe ff ff 	mov    QWORD PTR [rbp-0x160],rdi
    3f84:	bf 0a 00 00 00       	mov    edi,0xa
    3f89:	e8 e2 f1 ff ff       	call   3170 <sigaction@plt>
    3f8e:	31 d2                	xor    edx,edx
    3f90:	4c 89 ee             	mov    rsi,r13
    3f93:	bf 14 00 00 00       	mov    edi,0x14
    3f98:	48 c7 85 a0 fe ff ff 	mov    QWORD PTR [rbp-0x160],0x1
    3f9f:	01 00 00 00 
    3fa3:	e8 c8 f1 ff ff       	call   3170 <sigaction@plt>
    3fa8:	31 d2                	xor    edx,edx
    3faa:	4c 89 ee             	mov    rsi,r13
    3fad:	bf 0d 00 00 00       	mov    edi,0xd
    3fb2:	e8 b9 f1 ff ff       	call   3170 <sigaction@plt>
    3fb7:	48 8d 3d 91 b1 01 00 	lea    rdi,[rip+0x1b191]        # 1f14f <_IO_stdin_used+0x14f>
    3fbe:	e8 7d f0 ff ff       	call   3040 <getenv@plt>
    3fc3:	49 89 c4             	mov    r12,rax
    3fc6:	48 85 c0             	test   rax,rax
    3fc9:	74 30                	je     3ffb <main+0x79b>
    3fcb:	48 8d 35 98 b8 01 00 	lea    rsi,[rip+0x1b898]        # 1f86a <_IO_stdin_used+0x86a>
    3fd2:	48 89 c7             	mov    rdi,rax
    3fd5:	e8 e6 f7 ff ff       	call   37c0 <strstr@plt>
    3fda:	48 85 c0             	test   rax,rax
    3fdd:	0f 84 d0 20 00 00    	je     60b3 <main+0x2853>
    3fe3:	48 8d 35 91 b8 01 00 	lea    rsi,[rip+0x1b891]        # 1f87b <_IO_stdin_used+0x87b>
    3fea:	4c 89 e7             	mov    rdi,r12
    3fed:	e8 ce f7 ff ff       	call   37c0 <strstr@plt>
    3ff2:	48 85 c0             	test   rax,rax
    3ff5:	0f 84 8e 20 00 00    	je     6089 <main+0x2829>
    3ffb:	48 8d 3d 5a b1 01 00 	lea    rdi,[rip+0x1b15a]        # 1f15c <_IO_stdin_used+0x15c>
    4002:	e8 39 f0 ff ff       	call   3040 <getenv@plt>
    4007:	49 89 c5             	mov    r13,rax
    400a:	48 85 c0             	test   rax,rax
    400d:	74 30                	je     403f <main+0x7df>
    400f:	48 8d 35 71 b8 01 00 	lea    rsi,[rip+0x1b871]        # 1f887 <_IO_stdin_used+0x887>
    4016:	48 89 c7             	mov    rdi,rax
    4019:	e8 a2 f7 ff ff       	call   37c0 <strstr@plt>
    401e:	48 85 c0             	test   rax,rax
    4021:	0f 84 e0 20 00 00    	je     6107 <main+0x28a7>
    4027:	48 8d 35 4d b8 01 00 	lea    rsi,[rip+0x1b84d]        # 1f87b <_IO_stdin_used+0x87b>
    402e:	4c 89 ef             	mov    rdi,r13
    4031:	e8 8a f7 ff ff       	call   37c0 <strstr@plt>
    4036:	48 85 c0             	test   rax,rax
    4039:	0f 84 9e 20 00 00    	je     60dd <main+0x287d>
    403f:	4c 8b 05 fa 79 3d 00 	mov    r8,QWORD PTR [rip+0x3d79fa]        # 3dba40 <sync_id>
    4046:	4c 89 85 58 fe ff ff 	mov    QWORD PTR [rbp-0x1a8],r8
    404d:	4d 85 c0             	test   r8,r8
    4050:	0f 84 5c 01 00 00    	je     41b2 <main+0x952>
    4056:	80 3d b0 79 3d 00 00 	cmp    BYTE PTR [rip+0x3d79b0],0x0        # 3dba0d <dumb_mode>
    405d:	0f 85 dd 21 00 00    	jne    6240 <main+0x29e0>
    4063:	80 3d a6 79 3d 00 00 	cmp    BYTE PTR [rip+0x3d79a6],0x0        # 3dba10 <skip_deterministic>
    406a:	74 57                	je     40c3 <main+0x863>
    406c:	80 3d 9c 79 3d 00 00 	cmp    BYTE PTR [rip+0x3d799c],0x0        # 3dba0f <force_deterministic>
    4073:	0f 84 2e 05 00 00    	je     45a7 <main+0xd47>
    4079:	48 8d 35 b0 20 02 00 	lea    rsi,[rip+0x220b0]        # 26130 <_IO_stdin_used+0x7130>
    4080:	bf 01 00 00 00       	mov    edi,0x1
    4085:	31 c0                	xor    eax,eax
    4087:	e8 04 f5 ff ff       	call   3590 <__printf_chk@plt>
    408c:	41 b8 4f 1d 00 00    	mov    r8d,0x1d4f
    4092:	48 8d 0d ab b0 01 00 	lea    rcx,[rip+0x1b0ab]        # 1f144 <_IO_stdin_used+0x144>
    4099:	48 8d 15 e8 37 02 00 	lea    rdx,[rip+0x237e8]        # 27888 <__FUNCTION__.80>
    40a0:	e9 fa fc ff ff       	jmp    3d9f <main+0x53f>
    40a5:	48 8d 35 7c 18 02 00 	lea    rsi,[rip+0x2187c]        # 25928 <_IO_stdin_used+0x6928>
    40ac:	bf 01 00 00 00       	mov    edi,0x1
    40b1:	31 c0                	xor    eax,eax
    40b3:	e8 d8 f4 ff ff       	call   3590 <__printf_chk@plt>
    40b8:	41 b8 8e 1e 00 00    	mov    r8d,0x1e8e
    40be:	e9 be fa ff ff       	jmp    3b81 <main+0x321>
    40c3:	4c 8b a5 58 fe ff ff 	mov    r12,QWORD PTR [rbp-0x1a8]
    40ca:	eb 2f                	jmp    40fb <main+0x89b>
    40cc:	e8 4f f7 ff ff       	call   3820 <__ctype_b_loc@plt>
    40d1:	45 0f b6 dd          	movzx  r11d,r13b
    40d5:	48 8b 38             	mov    rdi,QWORD PTR [rax]
    40d8:	42 f6 04 5f 08       	test   BYTE PTR [rdi+r11*2],0x8
    40dd:	75 18                	jne    40f7 <main+0x897>
    40df:	41 80 fd 2d          	cmp    r13b,0x2d
    40e3:	0f 95 c1             	setne  cl
    40e6:	41 80 fd 5f          	cmp    r13b,0x5f
    40ea:	41 0f 95 c0          	setne  r8b
    40ee:	44 84 c1             	test   cl,r8b
    40f1:	0f 85 20 1f 00 00    	jne    6017 <main+0x27b7>
    40f7:	49 83 c4 01          	add    r12,0x1
    40fb:	45 0f b6 2c 24       	movzx  r13d,BYTE PTR [r12]
    4100:	45 84 ed             	test   r13b,r13b
    4103:	75 c7                	jne    40cc <main+0x86c>
    4105:	48 8b bd 58 fe ff ff 	mov    rdi,QWORD PTR [rbp-0x1a8]
    410c:	e8 1f f1 ff ff       	call   3230 <strlen@plt>
    4111:	48 83 f8 20          	cmp    rax,0x20
    4115:	0f 87 d0 1e 00 00    	ja     5feb <main+0x278b>
    411b:	51                   	push   rcx
    411c:	49 89 d9             	mov    r9,rbx
    411f:	31 f6                	xor    esi,esi
    4121:	31 ff                	xor    edi,edi
    4123:	ff b5 58 fe ff ff    	push   QWORD PTR [rbp-0x1a8]
    4129:	48 83 c9 ff          	or     rcx,0xffffffffffffffff
    412d:	ba 01 00 00 00       	mov    edx,0x1
    4132:	31 c0                	xor    eax,eax
    4134:	4c 8d 05 75 b4 01 00 	lea    r8,[rip+0x1b475]        # 1f5b0 <_IO_stdin_used+0x5b0>
    413b:	e8 10 ef ff ff       	call   3050 <__snprintf_chk@plt>
    4140:	5e                   	pop    rsi
    4141:	5f                   	pop    rdi
    4142:	89 c3                	mov    ebx,eax
    4144:	85 c0                	test   eax,eax
    4146:	0f 88 73 1e 00 00    	js     5fbf <main+0x275f>
    414c:	83 c3 01             	add    ebx,0x1
    414f:	89 df                	mov    edi,ebx
    4151:	e8 ca 5e 00 00       	call   a020 <DFL_ck_alloc>
    4156:	4c 8b 0d f3 78 3d 00 	mov    r9,QWORD PTR [rip+0x3d78f3]        # 3dba50 <out_dir>
    415d:	48 83 c9 ff          	or     rcx,0xffffffffffffffff
    4161:	48 63 f3             	movsxd rsi,ebx
    4164:	49 89 c4             	mov    r12,rax
    4167:	50                   	push   rax
    4168:	ba 01 00 00 00       	mov    edx,0x1
    416d:	31 c0                	xor    eax,eax
    416f:	ff 35 cb 78 3d 00    	push   QWORD PTR [rip+0x3d78cb]        # 3dba40 <sync_id>
    4175:	4c 8d 05 34 b4 01 00 	lea    r8,[rip+0x1b434]        # 1f5b0 <_IO_stdin_used+0x5b0>
    417c:	4c 89 e7             	mov    rdi,r12
    417f:	e8 cc ee ff ff       	call   3050 <__snprintf_chk@plt>
    4184:	4c 8b 0d c5 78 3d 00 	mov    r9,QWORD PTR [rip+0x3d78c5]        # 3dba50 <out_dir>
    418b:	58                   	pop    rax
    418c:	4c 89 25 bd 78 3d 00 	mov    QWORD PTR [rip+0x3d78bd],r12        # 3dba50 <out_dir>
    4193:	80 3d 75 78 3d 00 00 	cmp    BYTE PTR [rip+0x3d7875],0x0        # 3dba0f <force_deterministic>
    419a:	5a                   	pop    rdx
    419b:	4c 89 0d a6 78 3d 00 	mov    QWORD PTR [rip+0x3d78a6],r9        # 3dba48 <sync_dir>
    41a2:	75 0e                	jne    41b2 <main+0x952>
    41a4:	c6 05 65 78 3d 00 01 	mov    BYTE PTR [rip+0x3d7865],0x1        # 3dba10 <skip_deterministic>
    41ab:	c6 05 5c 78 3d 00 01 	mov    BYTE PTR [rip+0x3d785c],0x1        # 3dba0e <use_splicing>
    41b2:	48 8b 35 97 78 3d 00 	mov    rsi,QWORD PTR [rip+0x3d7897]        # 3dba50 <out_dir>
    41b9:	48 8b 3d a0 78 3d 00 	mov    rdi,QWORD PTR [rip+0x3d78a0]        # 3dba60 <in_dir>
    41c0:	e8 0b f2 ff ff       	call   33d0 <strcmp@plt>
    41c5:	85 c0                	test   eax,eax
    41c7:	0f 84 c0 01 00 00    	je     438d <main+0xb2d>
    41cd:	44 0f b6 2d 38 78 3d 	movzx  r13d,BYTE PTR [rip+0x3d7838]        # 3dba0d <dumb_mode>
    41d4:	00 
    41d5:	45 84 ed             	test   r13b,r13b
    41d8:	74 1a                	je     41f4 <main+0x994>
    41da:	80 3d 22 78 3d 00 00 	cmp    BYTE PTR [rip+0x3d7822],0x0        # 3dba03 <crash_mode>
    41e1:	0f 85 a2 03 00 00    	jne    4589 <main+0xd29>
    41e7:	80 3d 0f 78 3d 00 00 	cmp    BYTE PTR [rip+0x3d780f],0x0        # 3db9fd <qemu_mode>
    41ee:	0f 85 37 04 00 00    	jne    462b <main+0xdcb>
    41f4:	48 8d 3d 99 b6 01 00 	lea    rdi,[rip+0x1b699]        # 1f894 <_IO_stdin_used+0x894>
    41fb:	e8 40 ee ff ff       	call   3040 <getenv@plt>
    4200:	48 85 c0             	test   rax,rax
    4203:	74 07                	je     420c <main+0x9ac>
    4205:	c6 05 f8 77 3d 00 01 	mov    BYTE PTR [rip+0x3d77f8],0x1        # 3dba04 <no_forkserver>
    420c:	48 8d 3d 90 b6 01 00 	lea    rdi,[rip+0x1b690]        # 1f8a3 <_IO_stdin_used+0x8a3>
    4213:	e8 28 ee ff ff       	call   3040 <getenv@plt>
    4218:	48 85 c0             	test   rax,rax
    421b:	74 07                	je     4224 <main+0x9c4>
    421d:	c6 05 dc 77 3d 00 01 	mov    BYTE PTR [rip+0x3d77dc],0x1        # 3dba00 <no_cpu_meter_red>
    4224:	48 8d 3d 87 b6 01 00 	lea    rdi,[rip+0x1b687]        # 1f8b2 <_IO_stdin_used+0x8b2>
    422b:	e8 10 ee ff ff       	call   3040 <getenv@plt>
    4230:	48 85 c0             	test   rax,rax
    4233:	74 07                	je     423c <main+0x9dc>
    4235:	c6 05 c3 77 3d 00 01 	mov    BYTE PTR [rip+0x3d77c3],0x1        # 3db9ff <no_arith>
    423c:	48 8d 3d 7c b6 01 00 	lea    rdi,[rip+0x1b67c]        # 1f8bf <_IO_stdin_used+0x8bf>
    4243:	e8 f8 ed ff ff       	call   3040 <getenv@plt>
    4248:	48 85 c0             	test   rax,rax
    424b:	74 07                	je     4254 <main+0x9f4>
    424d:	c6 05 aa 77 3d 00 01 	mov    BYTE PTR [rip+0x3d77aa],0x1        # 3db9fe <shuffle_queue>
    4254:	48 8d 3d 76 b6 01 00 	lea    rdi,[rip+0x1b676]        # 1f8d1 <_IO_stdin_used+0x8d1>
    425b:	e8 e0 ed ff ff       	call   3040 <getenv@plt>
    4260:	48 85 c0             	test   rax,rax
    4263:	74 07                	je     426c <main+0xa0c>
    4265:	c6 05 8c 77 3d 00 01 	mov    BYTE PTR [rip+0x3d778c],0x1        # 3db9f8 <fast_cal>
    426c:	48 8d 1d b6 ae 01 00 	lea    rbx,[rip+0x1aeb6]        # 1f129 <_IO_stdin_used+0x129>
    4273:	48 89 df             	mov    rdi,rbx
    4276:	e8 c5 ed ff ff       	call   3040 <getenv@plt>
    427b:	48 85 c0             	test   rax,rax
    427e:	74 25                	je     42a5 <main+0xa45>
    4280:	48 89 df             	mov    rdi,rbx
    4283:	e8 b8 ed ff ff       	call   3040 <getenv@plt>
    4288:	ba 0a 00 00 00       	mov    edx,0xa
    428d:	31 f6                	xor    esi,esi
    428f:	48 89 c7             	mov    rdi,rax
    4292:	e8 a9 f1 ff ff       	call   3440 <strtol@plt>
    4297:	89 05 a3 cd 02 00    	mov    DWORD PTR [rip+0x2cda3],eax        # 31040 <hang_tmout>
    429d:	85 c0                	test   eax,eax
    429f:	0f 84 4c 03 00 00    	je     45f1 <main+0xd91>
    42a5:	41 80 fd 02          	cmp    r13b,0x2
    42a9:	75 0d                	jne    42b8 <main+0xa58>
    42ab:	80 3d 52 77 3d 00 00 	cmp    BYTE PTR [rip+0x3d7752],0x0        # 3dba04 <no_forkserver>
    42b2:	0f 85 55 03 00 00    	jne    460d <main+0xdad>
    42b8:	4c 8d 25 1f b6 01 00 	lea    r12,[rip+0x1b61f]        # 1f8de <_IO_stdin_used+0x8de>
    42bf:	4c 89 e7             	mov    rdi,r12
    42c2:	e8 79 ed ff ff       	call   3040 <getenv@plt>
    42c7:	48 85 c0             	test   rax,rax
    42ca:	74 38                	je     4304 <main+0xaa4>
    42cc:	4c 89 e7             	mov    rdi,r12
    42cf:	e8 6c ed ff ff       	call   3040 <getenv@plt>
    42d4:	ba 01 00 00 00       	mov    edx,0x1
    42d9:	48 8d 3d 24 b6 01 00 	lea    rdi,[rip+0x1b624]        # 1f904 <_IO_stdin_used+0x904>
    42e0:	48 89 c6             	mov    rsi,rax
    42e3:	e8 a8 ee ff ff       	call   3190 <setenv@plt>
    42e8:	4c 89 e7             	mov    rdi,r12
    42eb:	e8 50 ed ff ff       	call   3040 <getenv@plt>
    42f0:	ba 01 00 00 00       	mov    edx,0x1
    42f5:	48 8d 3d ee b5 01 00 	lea    rdi,[rip+0x1b5ee]        # 1f8ea <_IO_stdin_used+0x8ea>
    42fc:	48 89 c6             	mov    rsi,rax
    42ff:	e8 8c ee ff ff       	call   3190 <setenv@plt>
    4304:	48 8d 3d f5 b5 01 00 	lea    rdi,[rip+0x1b5f5]        # 1f900 <_IO_stdin_used+0x900>
    430b:	e8 30 ed ff ff       	call   3040 <getenv@plt>
    4310:	48 85 c0             	test   rax,rax
    4313:	0f 84 4e 03 00 00    	je     4667 <main+0xe07>
    4319:	48 8d 35 30 21 02 00 	lea    rsi,[rip+0x22130]        # 26450 <_IO_stdin_used+0x7450>
    4320:	bf 01 00 00 00       	mov    edi,0x1
    4325:	31 c0                	xor    eax,eax
    4327:	e8 64 f2 ff ff       	call   3590 <__printf_chk@plt>
    432c:	41 b8 52 1f 00 00    	mov    r8d,0x1f52
    4332:	e9 4a f8 ff ff       	jmp    3b81 <main+0x321>
    4337:	48 8d 35 7a 18 02 00 	lea    rsi,[rip+0x2187a]        # 25bb8 <_IO_stdin_used+0x6bb8>
    433e:	bf 01 00 00 00       	mov    edi,0x1
    4343:	31 c0                	xor    eax,eax
    4345:	e8 46 f2 ff ff       	call   3590 <__printf_chk@plt>
    434a:	41 b8 d3 1e 00 00    	mov    r8d,0x1ed3
    4350:	e9 2c f8 ff ff       	jmp    3b81 <main+0x321>
    4355:	48 c1 25 db cc 02 00 	shl    QWORD PTR [rip+0x2ccdb],0xa        # 31038 <mem_limit>
    435c:	0a 
    435d:	e9 b9 fa ff ff       	jmp    3e1b <main+0x5bb>
    4362:	48 c1 25 ce cc 02 00 	shl    QWORD PTR [rip+0x2ccce],0x14        # 31038 <mem_limit>
    4369:	14 
    436a:	e9 ac fa ff ff       	jmp    3e1b <main+0x5bb>
    436f:	48 8d 35 0a 17 02 00 	lea    rsi,[rip+0x2170a]        # 25a80 <_IO_stdin_used+0x6a80>
    4376:	bf 01 00 00 00       	mov    edi,0x1
    437b:	31 c0                	xor    eax,eax
    437d:	e8 0e f2 ff ff       	call   3590 <__printf_chk@plt>
    4382:	41 b8 b1 1e 00 00    	mov    r8d,0x1eb1
    4388:	e9 f4 f7 ff ff       	jmp    3b81 <main+0x321>
    438d:	48 8d 35 e4 1e 02 00 	lea    rsi,[rip+0x21ee4]        # 26278 <_IO_stdin_used+0x7278>
    4394:	bf 01 00 00 00       	mov    edi,0x1
    4399:	e8 f2 f1 ff ff       	call   3590 <__printf_chk@plt>
    439e:	41 b8 35 1f 00 00    	mov    r8d,0x1f35
    43a4:	e9 d8 f7 ff ff       	jmp    3b81 <main+0x321>
    43a9:	48 8d 35 b0 19 02 00 	lea    rsi,[rip+0x219b0]        # 25d60 <_IO_stdin_used+0x6d60>
    43b0:	bf 01 00 00 00       	mov    edi,0x1
    43b5:	31 c0                	xor    eax,eax
    43b7:	e8 d4 f1 ff ff       	call   3590 <__printf_chk@plt>
    43bc:	41 b8 00 1f 00 00    	mov    r8d,0x1f00
    43c2:	e9 ba f7 ff ff       	jmp    3b81 <main+0x321>
    43c7:	48 8d 35 fa 16 02 00 	lea    rsi,[rip+0x216fa]        # 25ac8 <_IO_stdin_used+0x6ac8>
    43ce:	bf 01 00 00 00       	mov    edi,0x1
    43d3:	31 c0                	xor    eax,eax
    43d5:	e8 b6 f1 ff ff       	call   3590 <__printf_chk@plt>
    43da:	41 b8 b3 1e 00 00    	mov    r8d,0x1eb3
    43e0:	e9 9c f7 ff ff       	jmp    3b81 <main+0x321>
    43e5:	48 8d 35 1c 19 02 00 	lea    rsi,[rip+0x2191c]        # 25d08 <_IO_stdin_used+0x6d08>
    43ec:	bf 01 00 00 00       	mov    edi,0x1
    43f1:	31 c0                	xor    eax,eax
    43f3:	e8 98 f1 ff ff       	call   3590 <__printf_chk@plt>
    43f8:	41 b8 ee 1e 00 00    	mov    r8d,0x1eee
    43fe:	e9 7e f7 ff ff       	jmp    3b81 <main+0x321>
    4403:	48 8d 35 5e 18 02 00 	lea    rsi,[rip+0x2185e]        # 25c68 <_IO_stdin_used+0x6c68>
    440a:	bf 01 00 00 00       	mov    edi,0x1
    440f:	31 c0                	xor    eax,eax
    4411:	e8 7a f1 ff ff       	call   3590 <__printf_chk@plt>
    4416:	41 b8 e2 1e 00 00    	mov    r8d,0x1ee2
    441c:	e9 60 f7 ff ff       	jmp    3b81 <main+0x321>
    4421:	48 8d 35 f0 13 02 00 	lea    rsi,[rip+0x213f0]        # 25818 <_IO_stdin_used+0x6818>
    4428:	bf 01 00 00 00       	mov    edi,0x1
    442d:	31 c0                	xor    eax,eax
    442f:	e8 5c f1 ff ff       	call   3590 <__printf_chk@plt>
    4434:	41 b8 74 1e 00 00    	mov    r8d,0x1e74
    443a:	e9 42 f7 ff ff       	jmp    3b81 <main+0x321>
    443f:	48 8d 35 22 1a 02 00 	lea    rsi,[rip+0x21a22]        # 25e68 <_IO_stdin_used+0x6e68>
    4446:	bf 01 00 00 00       	mov    edi,0x1
    444b:	31 c0                	xor    eax,eax
    444d:	e8 3e f1 ff ff       	call   3590 <__printf_chk@plt>
    4452:	41 b8 15 1f 00 00    	mov    r8d,0x1f15
    4458:	e9 24 f7 ff ff       	jmp    3b81 <main+0x321>
    445d:	48 8d 35 6c 15 02 00 	lea    rsi,[rip+0x2156c]        # 259d0 <_IO_stdin_used+0x69d0>
    4464:	bf 01 00 00 00       	mov    edi,0x1
    4469:	31 c0                	xor    eax,eax
    446b:	e8 20 f1 ff ff       	call   3590 <__printf_chk@plt>
    4470:	41 b8 a6 1e 00 00    	mov    r8d,0x1ea6
    4476:	e9 06 f7 ff ff       	jmp    3b81 <main+0x321>
    447b:	48 8d 35 a6 15 02 00 	lea    rsi,[rip+0x215a6]        # 25a28 <_IO_stdin_used+0x6a28>
    4482:	bf 01 00 00 00       	mov    edi,0x1
    4487:	31 c0                	xor    eax,eax
    4489:	e8 02 f1 ff ff       	call   3590 <__printf_chk@plt>
    448e:	41 b8 ae 1e 00 00    	mov    r8d,0x1eae
    4494:	e9 e8 f6 ff ff       	jmp    3b81 <main+0x321>
    4499:	48 8d 35 18 19 02 00 	lea    rsi,[rip+0x21918]        # 25db8 <_IO_stdin_used+0x6db8>
    44a0:	bf 01 00 00 00       	mov    edi,0x1
    44a5:	31 c0                	xor    eax,eax
    44a7:	e8 e4 f0 ff ff       	call   3590 <__printf_chk@plt>
    44ac:	41 b8 08 1f 00 00    	mov    r8d,0x1f08
    44b2:	e9 ca f6 ff ff       	jmp    3b81 <main+0x321>
    44b7:	48 8d 35 5a 16 02 00 	lea    rsi,[rip+0x2165a]        # 25b18 <_IO_stdin_used+0x6b18>
    44be:	bf 01 00 00 00       	mov    edi,0x1
    44c3:	31 c0                	xor    eax,eax
    44c5:	e8 c6 f0 ff ff       	call   3590 <__printf_chk@plt>
    44ca:	41 b8 bf 1e 00 00    	mov    r8d,0x1ebf
    44d0:	e9 ac f6 ff ff       	jmp    3b81 <main+0x321>
    44d5:	48 8d 35 ec 13 02 00 	lea    rsi,[rip+0x213ec]        # 258c8 <_IO_stdin_used+0x68c8>
    44dc:	bf 01 00 00 00       	mov    edi,0x1
    44e1:	31 c0                	xor    eax,eax
    44e3:	e8 a8 f0 ff ff       	call   3590 <__printf_chk@plt>
    44e8:	41 b8 9a 1e 00 00    	mov    r8d,0x1e9a
    44ee:	e9 8e f6 ff ff       	jmp    3b81 <main+0x321>
    44f3:	48 8d 35 c6 19 02 00 	lea    rsi,[rip+0x219c6]        # 25ec0 <_IO_stdin_used+0x6ec0>
    44fa:	bf 01 00 00 00       	mov    edi,0x1
    44ff:	31 c0                	xor    eax,eax
    4501:	e8 8a f0 ff ff       	call   3590 <__printf_chk@plt>
    4506:	41 b8 1b 1f 00 00    	mov    r8d,0x1f1b
    450c:	e9 70 f6 ff ff       	jmp    3b81 <main+0x321>
    4511:	48 8d 35 58 13 02 00 	lea    rsi,[rip+0x21358]        # 25870 <_IO_stdin_used+0x6870>
    4518:	bf 01 00 00 00       	mov    edi,0x1
    451d:	31 c0                	xor    eax,eax
    451f:	e8 6c f0 ff ff       	call   3590 <__printf_chk@plt>
    4524:	41 b8 7d 1e 00 00    	mov    r8d,0x1e7d
    452a:	e9 52 f6 ff ff       	jmp    3b81 <main+0x321>
    452f:	48 8d 35 da 18 02 00 	lea    rsi,[rip+0x218da]        # 25e10 <_IO_stdin_used+0x6e10>
    4536:	bf 01 00 00 00       	mov    edi,0x1
    453b:	31 c0                	xor    eax,eax
    453d:	e8 4e f0 ff ff       	call   3590 <__printf_chk@plt>
    4542:	41 b8 0e 1f 00 00    	mov    r8d,0x1f0e
    4548:	e9 34 f6 ff ff       	jmp    3b81 <main+0x321>
    454d:	48 8d 35 24 14 02 00 	lea    rsi,[rip+0x21424]        # 25978 <_IO_stdin_used+0x6978>
    4554:	bf 01 00 00 00       	mov    edi,0x1
    4559:	31 c0                	xor    eax,eax
    455b:	e8 30 f0 ff ff       	call   3590 <__printf_chk@plt>
    4560:	41 b8 a0 1e 00 00    	mov    r8d,0x1ea0
    4566:	e9 16 f6 ff ff       	jmp    3b81 <main+0x321>
    456b:	48 8d 35 56 13 02 00 	lea    rsi,[rip+0x21356]        # 258c8 <_IO_stdin_used+0x68c8>
    4572:	bf 01 00 00 00       	mov    edi,0x1
    4577:	31 c0                	xor    eax,eax
    4579:	e8 12 f0 ff ff       	call   3590 <__printf_chk@plt>
    457e:	41 b8 85 1e 00 00    	mov    r8d,0x1e85
    4584:	e9 f8 f5 ff ff       	jmp    3b81 <main+0x321>
    4589:	48 8d 35 48 1d 02 00 	lea    rsi,[rip+0x21d48]        # 262d8 <_IO_stdin_used+0x72d8>
    4590:	bf 01 00 00 00       	mov    edi,0x1
    4595:	31 c0                	xor    eax,eax
    4597:	e8 f4 ef ff ff       	call   3590 <__printf_chk@plt>
    459c:	41 b8 39 1f 00 00    	mov    r8d,0x1f39
    45a2:	e9 da f5 ff ff       	jmp    3b81 <main+0x321>
    45a7:	48 8d 35 d2 1b 02 00 	lea    rsi,[rip+0x21bd2]        # 26180 <_IO_stdin_used+0x7180>
    45ae:	bf 01 00 00 00       	mov    edi,0x1
    45b3:	31 c0                	xor    eax,eax
    45b5:	e8 d6 ef ff ff       	call   3590 <__printf_chk@plt>
    45ba:	41 b8 51 1d 00 00    	mov    r8d,0x1d51
    45c0:	48 8d 0d 7d ab 01 00 	lea    rcx,[rip+0x1ab7d]        # 1f144 <_IO_stdin_used+0x144>
    45c7:	48 8d 15 ba 32 02 00 	lea    rdx,[rip+0x232ba]        # 27888 <__FUNCTION__.80>
    45ce:	e9 cc f7 ff ff       	jmp    3d9f <main+0x53f>
    45d3:	48 8d 35 96 15 02 00 	lea    rsi,[rip+0x21596]        # 25b70 <_IO_stdin_used+0x6b70>
    45da:	bf 01 00 00 00       	mov    edi,0x1
    45df:	31 c0                	xor    eax,eax
    45e1:	e8 aa ef ff ff       	call   3590 <__printf_chk@plt>
    45e6:	41 b8 ca 1e 00 00    	mov    r8d,0x1eca
    45ec:	e9 90 f5 ff ff       	jmp    3b81 <main+0x321>
    45f1:	48 8d 35 90 1d 02 00 	lea    rsi,[rip+0x21d90]        # 26388 <_IO_stdin_used+0x7388>
    45f8:	bf 01 00 00 00       	mov    edi,0x1
    45fd:	e8 8e ef ff ff       	call   3590 <__printf_chk@plt>
    4602:	41 b8 46 1f 00 00    	mov    r8d,0x1f46
    4608:	e9 74 f5 ff ff       	jmp    3b81 <main+0x321>
    460d:	48 8d 35 cc 1d 02 00 	lea    rsi,[rip+0x21dcc]        # 263e0 <_IO_stdin_used+0x73e0>
    4614:	bf 01 00 00 00       	mov    edi,0x1
    4619:	31 c0                	xor    eax,eax
    461b:	e8 70 ef ff ff       	call   3590 <__printf_chk@plt>
    4620:	41 b8 4a 1f 00 00    	mov    r8d,0x1f4a
    4626:	e9 56 f5 ff ff       	jmp    3b81 <main+0x321>
    462b:	48 8d 35 fe 1c 02 00 	lea    rsi,[rip+0x21cfe]        # 26330 <_IO_stdin_used+0x7330>
    4632:	bf 01 00 00 00       	mov    edi,0x1
    4637:	31 c0                	xor    eax,eax
    4639:	e8 52 ef ff ff       	call   3590 <__printf_chk@plt>
    463e:	41 b8 3a 1f 00 00    	mov    r8d,0x1f3a
    4644:	e9 38 f5 ff ff       	jmp    3b81 <main+0x321>
    4649:	48 8d 35 c8 15 02 00 	lea    rsi,[rip+0x215c8]        # 25c18 <_IO_stdin_used+0x6c18>
    4650:	bf 01 00 00 00       	mov    edi,0x1
    4655:	31 c0                	xor    eax,eax
    4657:	e8 34 ef ff ff       	call   3590 <__printf_chk@plt>
    465c:	41 b8 d7 1e 00 00    	mov    r8d,0x1ed7
    4662:	e9 1a f5 ff ff       	jmp    3b81 <main+0x321>
    4667:	45 31 ed             	xor    r13d,r13d
    466a:	41 bc 01 00 00 00    	mov    r12d,0x1
    4670:	eb 12                	jmp    4684 <main+0xe24>
    4672:	4b 8b 3c ee          	mov    rdi,QWORD PTR [r14+r13*8]
    4676:	49 83 c5 01          	add    r13,0x1
    467a:	e8 b1 eb ff ff       	call   3230 <strlen@plt>
    467f:	45 8d 64 04 01       	lea    r12d,[r12+rax*1+0x1]
    4684:	45 39 ef             	cmp    r15d,r13d
    4687:	77 e9                	ja     4672 <main+0xe12>
    4689:	44 89 e7             	mov    edi,r12d
    468c:	45 31 ed             	xor    r13d,r13d
    468f:	e8 8c 59 00 00       	call   a020 <DFL_ck_alloc>
    4694:	45 8d 57 ff          	lea    r10d,[r15-0x1]
    4698:	4d 89 f1             	mov    r9,r14
    469b:	48 89 05 76 73 3d 00 	mov    QWORD PTR [rip+0x3d7376],rax        # 3dba18 <orig_cmdline>
    46a2:	49 89 c4             	mov    r12,rax
    46a5:	44 89 95 58 fe ff ff 	mov    DWORD PTR [rbp-0x1a8],r10d
    46ac:	eb 43                	jmp    46f1 <main+0xe91>
    46ae:	4f 8b 34 e9          	mov    r14,QWORD PTR [r9+r13*8]
    46b2:	4c 89 8d 50 fe ff ff 	mov    QWORD PTR [rbp-0x1b0],r9
    46b9:	4c 89 f7             	mov    rdi,r14
    46bc:	e8 6f eb ff ff       	call   3230 <strlen@plt>
    46c1:	4c 89 e7             	mov    rdi,r12
    46c4:	4c 89 f6             	mov    rsi,r14
    46c7:	89 c3                	mov    ebx,eax
    46c9:	48 89 da             	mov    rdx,rbx
    46cc:	49 01 dc             	add    r12,rbx
    46cf:	e8 8c ed ff ff       	call   3460 <memcpy@plt>
    46d4:	44 3b ad 58 fe ff ff 	cmp    r13d,DWORD PTR [rbp-0x1a8]
    46db:	4c 8b 8d 50 fe ff ff 	mov    r9,QWORD PTR [rbp-0x1b0]
    46e2:	74 09                	je     46ed <main+0xe8d>
    46e4:	41 c6 04 24 20       	mov    BYTE PTR [r12],0x20
    46e9:	49 83 c4 01          	add    r12,0x1
    46ed:	49 83 c5 01          	add    r13,0x1
    46f1:	45 39 ef             	cmp    r15d,r13d
    46f4:	77 b8                	ja     46ae <main+0xe4e>
    46f6:	48 83 3d 3a 73 3d 00 	cmp    QWORD PTR [rip+0x3d733a],0x0        # 3dba38 <use_banner>
    46fd:	00 
    46fe:	41 c6 04 24 00       	mov    BYTE PTR [r12],0x0
    4703:	4d 89 ce             	mov    r14,r9
    4706:	0f 84 11 1b 00 00    	je     621d <main+0x29bd>
    470c:	48 8b 3d 25 73 3d 00 	mov    rdi,QWORD PTR [rip+0x3d7325]        # 3dba38 <use_banner>
    4713:	e8 18 eb ff ff       	call   3230 <strlen@plt>
    4718:	48 83 f8 28          	cmp    rax,0x28
    471c:	0f 87 76 1a 00 00    	ja     6198 <main+0x2938>
    4722:	48 8d 3d ef b1 01 00 	lea    rdi,[rip+0x1b1ef]        # 1f918 <_IO_stdin_used+0x918>
    4729:	e8 12 e9 ff ff       	call   3040 <getenv@plt>
    472e:	48 85 c0             	test   rax,rax
    4731:	0f 84 fa 19 00 00    	je     6131 <main+0x28d1>
    4737:	48 8d 35 72 1d 02 00 	lea    rsi,[rip+0x21d72]        # 264b0 <_IO_stdin_used+0x74b0>
    473e:	bf 01 00 00 00       	mov    edi,0x1
    4743:	31 c0                	xor    eax,eax
    4745:	e8 46 ee ff ff       	call   3590 <__printf_chk@plt>
    474a:	48 8d 3d d3 a9 01 00 	lea    rdi,[rip+0x1a9d3]        # 1f124 <_IO_stdin_used+0x124>
    4751:	48 89 bd 58 fe ff ff 	mov    QWORD PTR [rbp-0x1a8],rdi
    4758:	e8 f3 e9 ff ff       	call   3150 <puts@plt>
    475d:	c6 05 a3 72 3d 00 01 	mov    BYTE PTR [rip+0x3d72a3],0x1        # 3dba07 <not_on_tty>
    4764:	bf 54 00 00 00       	mov    edi,0x54
    4769:	e8 e2 ee ff ff       	call   3650 <sysconf@plt>
    476e:	89 05 14 6f 2d 00    	mov    DWORD PTR [rip+0x2d6f14],eax        # 2db688 <cpu_core_count>
    4774:	85 c0                	test   eax,eax
    4776:	0f 8e ca 07 00 00    	jle    4f46 <main+0x16e6>
    477c:	e8 5f 1d 00 00       	call   64e0 <get_runnable_processes>
    4781:	66 0f ef c9          	pxor   xmm1,xmm1
    4785:	66 0f ef d2          	pxor   xmm2,xmm2
    4789:	8b 15 f9 6e 2d 00    	mov    edx,DWORD PTR [rip+0x2d6ef9]        # 2db688 <cpu_core_count>
    478f:	f2 4c 0f 2c e8       	cvttsd2si r13,xmm0
    4794:	48 8d 35 75 ab 01 00 	lea    rsi,[rip+0x1ab75]        # 1f310 <_IO_stdin_used+0x310>
    479b:	bf 01 00 00 00       	mov    edi,0x1
    47a0:	f2 0f 2a d2          	cvtsi2sd xmm2,edx
    47a4:	83 fa 01             	cmp    edx,0x1
    47a7:	48 8d 0d a3 ae 01 00 	lea    rcx,[rip+0x1aea3]        # 1f651 <_IO_stdin_used+0x651>
    47ae:	48 0f 4e ce          	cmovle rcx,rsi
    47b2:	48 8d 35 8f 1d 02 00 	lea    rsi,[rip+0x21d8f]        # 26548 <_IO_stdin_used+0x7548>
    47b9:	44 89 e8             	mov    eax,r13d
    47bc:	45 89 e8             	mov    r8d,r13d
    47bf:	f2 48 0f 2a c8       	cvtsi2sd xmm1,rax
    47c4:	b8 01 00 00 00       	mov    eax,0x1
    47c9:	66 0f 28 c1          	movapd xmm0,xmm1
    47cd:	f2 0f 11 8d 50 fe ff 	movsd  QWORD PTR [rbp-0x1b0],xmm1
    47d4:	ff 
    47d5:	f2 0f 59 05 a3 34 02 	mulsd  xmm0,QWORD PTR [rip+0x234a3]        # 27c80 <interesting_8+0xf8>
    47dc:	00 
    47dd:	f2 0f 5e c2          	divsd  xmm0,xmm2
    47e1:	e8 aa ed ff ff       	call   3590 <__printf_chk@plt>
    47e6:	48 8b bd 58 fe ff ff 	mov    rdi,QWORD PTR [rbp-0x1a8]
    47ed:	e8 5e e9 ff ff       	call   3150 <puts@plt>
    47f2:	44 8b 05 8f 6e 2d 00 	mov    r8d,DWORD PTR [rip+0x2d6e8f]        # 2db688 <cpu_core_count>
    47f9:	41 83 f8 01          	cmp    r8d,0x1
    47fd:	7e 37                	jle    4836 <main+0xfd6>
    47ff:	66 0f ef c0          	pxor   xmm0,xmm0
    4803:	f2 0f 10 9d 50 fe ff 	movsd  xmm3,QWORD PTR [rbp-0x1b0]
    480a:	ff 
    480b:	48 8d 35 8e 1d 02 00 	lea    rsi,[rip+0x21d8e]        # 265a0 <_IO_stdin_used+0x75a0>
    4812:	f2 41 0f 2a c0       	cvtsi2sd xmm0,r8d
    4817:	f2 0f 59 05 d9 34 02 	mulsd  xmm0,QWORD PTR [rip+0x234d9]        # 27cf8 <interesting_8+0x170>
    481e:	00 
    481f:	66 0f 2f d8          	comisd xmm3,xmm0
    4823:	0f 87 2e 07 00 00    	ja     4f57 <main+0x16f7>
    4829:	41 83 c5 01          	add    r13d,0x1
    482d:	45 39 c5             	cmp    r13d,r8d
    4830:	0f 86 3e 07 00 00    	jbe    4f74 <main+0x1714>
    4836:	e8 e5 87 00 00       	call   d020 <bind_to_free_cpu>
    483b:	31 f6                	xor    esi,esi
    483d:	48 8d 3d de b0 01 00 	lea    rdi,[rip+0x1b0de]        # 1f922 <_IO_stdin_used+0x922>
    4844:	31 c0                	xor    eax,eax
    4846:	e8 65 ed ff ff       	call   35b0 <open64@plt>
    484b:	89 c3                	mov    ebx,eax
    484d:	85 c0                	test   eax,eax
    484f:	78 4c                	js     489d <main+0x103d>
    4851:	48 8d 35 30 1e 02 00 	lea    rsi,[rip+0x21e30]        # 26688 <_IO_stdin_used+0x7688>
    4858:	bf 01 00 00 00       	mov    edi,0x1
    485d:	31 c0                	xor    eax,eax
    485f:	e8 2c ed ff ff       	call   3590 <__printf_chk@plt>
    4864:	48 8b bd 58 fe ff ff 	mov    rdi,QWORD PTR [rbp-0x1a8]
    486b:	e8 e0 e8 ff ff       	call   3150 <puts@plt>
    4870:	48 8d b5 90 fe ff ff 	lea    rsi,[rbp-0x170]
    4877:	ba 01 00 00 00       	mov    edx,0x1
    487c:	89 df                	mov    edi,ebx
    487e:	e8 0d eb ff ff       	call   3390 <read@plt>
    4883:	48 83 e8 01          	sub    rax,0x1
    4887:	75 0d                	jne    4896 <main+0x1036>
    4889:	80 bd 90 fe ff ff 7c 	cmp    BYTE PTR [rbp-0x170],0x7c
    4890:	0f 84 3c 19 00 00    	je     61d2 <main+0x2972>
    4896:	89 df                	mov    edi,ebx
    4898:	e8 93 ea ff ff       	call   3330 <close@plt>
    489d:	48 8d 3d 9c b0 01 00 	lea    rdi,[rip+0x1b09c]        # 1f940 <_IO_stdin_used+0x940>
    48a4:	48 c7 85 78 fe ff ff 	mov    QWORD PTR [rbp-0x188],0x0
    48ab:	00 00 00 00 
    48af:	48 c7 85 90 fe ff ff 	mov    QWORD PTR [rbp-0x170],0x0
    48b6:	00 00 00 00 
    48ba:	e8 81 e7 ff ff       	call   3040 <getenv@plt>
    48bf:	48 85 c0             	test   rax,rax
    48c2:	0f 84 1c 15 00 00    	je     5de4 <main+0x2584>
    48c8:	48 8d 3d 87 b0 01 00 	lea    rdi,[rip+0x1b087]        # 1f956 <_IO_stdin_used+0x956>
    48cf:	e8 6c e7 ff ff       	call   3040 <getenv@plt>
    48d4:	c7 85 90 fe ff ff 06 	mov    DWORD PTR [rbp-0x170],0x6
    48db:	00 00 00 
    48de:	48 89 c3             	mov    rbx,rax
    48e1:	48 85 c0             	test   rax,rax
    48e4:	0f 84 86 00 00 00    	je     4970 <main+0x1110>
    48ea:	48 89 c2             	mov    rdx,rax
    48ed:	48 8d 35 04 24 02 00 	lea    rsi,[rip+0x22404]        # 26cf8 <_IO_stdin_used+0x7cf8>
    48f4:	bf 01 00 00 00       	mov    edi,0x1
    48f9:	31 c0                	xor    eax,eax
    48fb:	e8 90 ec ff ff       	call   3590 <__printf_chk@plt>
    4900:	48 8b bd 58 fe ff ff 	mov    rdi,QWORD PTR [rbp-0x1a8]
    4907:	e8 44 e8 ff ff       	call   3150 <puts@plt>
    490c:	48 89 df             	mov    rdi,rbx
    490f:	be 02 00 00 00       	mov    esi,0x2
    4914:	e8 e7 ea ff ff       	call   3400 <dlopen@plt>
    4919:	48 89 c7             	mov    rdi,rax
    491c:	48 85 c0             	test   rax,rax
    491f:	0f 84 8b 14 00 00    	je     5db0 <main+0x2550>
    4925:	48 8d 35 3b b0 01 00 	lea    rsi,[rip+0x1b03b]        # 1f967 <_IO_stdin_used+0x967>
    492c:	e8 5f ed ff ff       	call   3690 <dlsym@plt>
    4931:	48 89 05 e8 6c 0d 00 	mov    QWORD PTR [rip+0xd6ce8],rax        # db620 <post_handler>
    4938:	48 85 c0             	test   rax,rax
    493b:	0f 84 45 14 00 00    	je     5d86 <main+0x2526>
    4941:	48 8d b5 90 fe ff ff 	lea    rsi,[rbp-0x170]
    4948:	48 8d 3d 28 b0 01 00 	lea    rdi,[rip+0x1b028]        # 1f977 <_IO_stdin_used+0x977>
    494f:	ff d0                	call   rax
    4951:	bf 01 00 00 00       	mov    edi,0x1
    4956:	48 8d 35 63 24 02 00 	lea    rsi,[rip+0x22463]        # 26dc0 <_IO_stdin_used+0x7dc0>
    495d:	31 c0                	xor    eax,eax
    495f:	e8 2c ec ff ff       	call   3590 <__printf_chk@plt>
    4964:	48 8b bd 58 fe ff ff 	mov    rdi,QWORD PTR [rbp-0x1a8]
    496b:	e8 e0 e7 ff ff       	call   3150 <puts@plt>
    4970:	48 83 3d b8 70 3d 00 	cmp    QWORD PTR [rip+0x3d70b8],0x0        # 3dba30 <in_bitmap>
    4977:	00 
    4978:	0f 84 79 13 00 00    	je     5cf7 <main+0x2497>
    497e:	ba 00 00 04 00       	mov    edx,0x40000
    4983:	be ff 00 00 00       	mov    esi,0xff
    4988:	48 8d 3d 51 70 35 00 	lea    rdi,[rip+0x357051]        # 35b9e0 <virgin_tmout>
    498f:	e8 6c e9 ff ff       	call   3300 <memset@plt>
    4994:	ba 00 00 04 00       	mov    edx,0x40000
    4999:	be ff 00 00 00       	mov    esi,0xff
    499e:	48 8d 3d 3b 70 31 00 	lea    rdi,[rip+0x31703b]        # 31b9e0 <virgin_crash>
    49a5:	e8 56 e9 ff ff       	call   3300 <memset@plt>
    49aa:	ba 80 07 00 00       	mov    edx,0x780
    49af:	be 00 00 04 00       	mov    esi,0x40000
    49b4:	31 ff                	xor    edi,edi
    49b6:	e8 f5 ec ff ff       	call   36b0 <shmget@plt>
    49bb:	89 05 0b 70 2d 00    	mov    DWORD PTR [rip+0x2d700b],eax        # 2db9cc <shm_id>
    49c1:	41 89 c5             	mov    r13d,eax
    49c4:	85 c0                	test   eax,eax
    49c6:	0f 88 75 12 00 00    	js     5c41 <main+0x23e1>
    49cc:	48 8d 3d 6d 1c 00 00 	lea    rdi,[rip+0x1c6d]        # 6640 <remove_shm>
    49d3:	e8 58 a3 01 00       	call   1ed30 <atexit>
    49d8:	48 83 c9 ff          	or     rcx,0xffffffffffffffff
    49dc:	31 f6                	xor    esi,esi
    49de:	45 89 e9             	mov    r9d,r13d
    49e1:	4c 8d 05 af b0 01 00 	lea    r8,[rip+0x1b0af]        # 1fa97 <_IO_stdin_used+0xa97>
    49e8:	ba 01 00 00 00       	mov    edx,0x1
    49ed:	31 ff                	xor    edi,edi
    49ef:	31 c0                	xor    eax,eax
    49f1:	e8 5a e6 ff ff       	call   3050 <__snprintf_chk@plt>
    49f6:	8d 58 01             	lea    ebx,[rax+0x1]
    49f9:	89 df                	mov    edi,ebx
    49fb:	e8 20 56 00 00       	call   a020 <DFL_ck_alloc>
    4a00:	44 8b 0d c5 6f 2d 00 	mov    r9d,DWORD PTR [rip+0x2d6fc5]        # 2db9cc <shm_id>
    4a07:	48 83 c9 ff          	or     rcx,0xffffffffffffffff
    4a0b:	48 63 f3             	movsxd rsi,ebx
    4a0e:	48 89 c7             	mov    rdi,rax
    4a11:	49 89 c4             	mov    r12,rax
    4a14:	ba 01 00 00 00       	mov    edx,0x1
    4a19:	31 c0                	xor    eax,eax
    4a1b:	4c 8d 05 75 b0 01 00 	lea    r8,[rip+0x1b075]        # 1fa97 <_IO_stdin_used+0xa97>
    4a22:	e8 29 e6 ff ff       	call   3050 <__snprintf_chk@plt>
    4a27:	80 3d df 6f 3d 00 00 	cmp    BYTE PTR [rip+0x3d6fdf],0x0        # 3dba0d <dumb_mode>
    4a2e:	0f 84 f4 11 00 00    	je     5c28 <main+0x23c8>
    4a34:	4c 89 e7             	mov    rdi,r12
    4a37:	e8 e4 47 00 00       	call   9220 <DFL_ck_free>
    4a3c:	8b 3d 8a 6f 2d 00    	mov    edi,DWORD PTR [rip+0x2d6f8a]        # 2db9cc <shm_id>
    4a42:	31 d2                	xor    edx,edx
    4a44:	31 f6                	xor    esi,esi
    4a46:	e8 55 ec ff ff       	call   36a0 <shmat@plt>
    4a4b:	48 89 05 8e 6f 3d 00 	mov    QWORD PTR [rip+0x3d6f8e],rax        # 3db9e0 <trace_bits>
    4a52:	48 83 c0 01          	add    rax,0x1
    4a56:	0f 84 b6 12 00 00    	je     5d12 <main+0x24b2>
    4a5c:	48 8d 05 bd 6b 0b 00 	lea    rax,[rip+0xb6bbd]        # bb620 <count_class_lookup16>
    4a63:	66 0f 6f 25 95 32 02 	movdqa xmm4,XMMWORD PTR [rip+0x23295]        # 27d00 <interesting_8+0x178>
    4a6a:	00 
    4a6b:	4c 8d 1d 6e 2e 02 00 	lea    r11,[rip+0x22e6e]        # 278e0 <count_class_lookup8>
    4a72:	48 8d b8 00 00 02 00 	lea    rdi,[rax+0x20000]
    4a79:	41 0f b6 13          	movzx  edx,BYTE PTR [r11]
    4a7d:	48 05 00 02 00 00    	add    rax,0x200
    4a83:	49 83 c3 01          	add    r11,0x1
    4a87:	c1 e2 08             	shl    edx,0x8
    4a8a:	89 d1                	mov    ecx,edx
    4a8c:	89 d6                	mov    esi,edx
    4a8e:	66 0f 6e ea          	movd   xmm5,edx
    4a92:	41 89 d0             	mov    r8d,edx
    4a95:	83 c9 10             	or     ecx,0x10
    4a98:	83 ce 20             	or     esi,0x20
    4a9b:	41 83 c8 40          	or     r8d,0x40
    4a9f:	80 ca 80             	or     dl,0x80
    4aa2:	66 0f 61 ed          	punpcklwd xmm5,xmm5
    4aa6:	66 0f 6e f9          	movd   xmm7,ecx
    4aaa:	66 44 0f 6e ce       	movd   xmm9,esi
    4aaf:	66 45 0f 6e d8       	movd   xmm11,r8d
    4ab4:	66 44 0f 6e ea       	movd   xmm13,edx
    4ab9:	66 0f 70 f5 00       	pshufd xmm6,xmm5,0x0
    4abe:	66 0f 61 ff          	punpcklwd xmm7,xmm7
    4ac2:	66 45 0f 61 c9       	punpcklwd xmm9,xmm9
    4ac7:	66 45 0f 61 db       	punpcklwd xmm11,xmm11
    4acc:	66 45 0f 61 ed       	punpcklwd xmm13,xmm13
    4ad1:	66 45 0f 70 e3 00    	pshufd xmm12,xmm11,0x0
    4ad7:	66 45 0f 70 d1 00    	pshufd xmm10,xmm9,0x0
    4add:	66 45 0f 70 f5 00    	pshufd xmm14,xmm13,0x0
    4ae3:	66 0f eb f4          	por    xmm6,xmm4
    4ae7:	66 44 0f 70 c7 00    	pshufd xmm8,xmm7,0x0
    4aed:	44 0f 29 90 20 fe ff 	movaps XMMWORD PTR [rax-0x1e0],xmm10
    4af4:	ff 
    4af5:	0f 29 b0 00 fe ff ff 	movaps XMMWORD PTR [rax-0x200],xmm6
    4afc:	44 0f 29 80 10 fe ff 	movaps XMMWORD PTR [rax-0x1f0],xmm8
    4b03:	ff 
    4b04:	44 0f 29 90 30 fe ff 	movaps XMMWORD PTR [rax-0x1d0],xmm10
    4b0b:	ff 
    4b0c:	44 0f 29 a0 40 fe ff 	movaps XMMWORD PTR [rax-0x1c0],xmm12
    4b13:	ff 
    4b14:	44 0f 29 a0 50 fe ff 	movaps XMMWORD PTR [rax-0x1b0],xmm12
    4b1b:	ff 
    4b1c:	44 0f 29 a0 60 fe ff 	movaps XMMWORD PTR [rax-0x1a0],xmm12
    4b23:	ff 
    4b24:	44 0f 29 a0 70 fe ff 	movaps XMMWORD PTR [rax-0x190],xmm12
    4b2b:	ff 
    4b2c:	44 0f 29 a0 80 fe ff 	movaps XMMWORD PTR [rax-0x180],xmm12
    4b33:	ff 
    4b34:	44 0f 29 a0 90 fe ff 	movaps XMMWORD PTR [rax-0x170],xmm12
    4b3b:	ff 
    4b3c:	44 0f 29 a0 a0 fe ff 	movaps XMMWORD PTR [rax-0x160],xmm12
    4b43:	ff 
    4b44:	44 0f 29 a0 b0 fe ff 	movaps XMMWORD PTR [rax-0x150],xmm12
    4b4b:	ff 
    4b4c:	44 0f 29 a0 c0 fe ff 	movaps XMMWORD PTR [rax-0x140],xmm12
    4b53:	ff 
    4b54:	44 0f 29 a0 d0 fe ff 	movaps XMMWORD PTR [rax-0x130],xmm12
    4b5b:	ff 
    4b5c:	44 0f 29 a0 e0 fe ff 	movaps XMMWORD PTR [rax-0x120],xmm12
    4b63:	ff 
    4b64:	44 0f 29 a0 f0 fe ff 	movaps XMMWORD PTR [rax-0x110],xmm12
    4b6b:	ff 
    4b6c:	44 0f 29 b0 00 ff ff 	movaps XMMWORD PTR [rax-0x100],xmm14
    4b73:	ff 
    4b74:	44 0f 29 b0 10 ff ff 	movaps XMMWORD PTR [rax-0xf0],xmm14
    4b7b:	ff 
    4b7c:	44 0f 29 b0 20 ff ff 	movaps XMMWORD PTR [rax-0xe0],xmm14
    4b83:	ff 
    4b84:	44 0f 29 b0 30 ff ff 	movaps XMMWORD PTR [rax-0xd0],xmm14
    4b8b:	ff 
    4b8c:	44 0f 29 b0 40 ff ff 	movaps XMMWORD PTR [rax-0xc0],xmm14
    4b93:	ff 
    4b94:	44 0f 29 b0 50 ff ff 	movaps XMMWORD PTR [rax-0xb0],xmm14
    4b9b:	ff 
    4b9c:	44 0f 29 b0 60 ff ff 	movaps XMMWORD PTR [rax-0xa0],xmm14
    4ba3:	ff 
    4ba4:	44 0f 29 b0 70 ff ff 	movaps XMMWORD PTR [rax-0x90],xmm14
    4bab:	ff 
    4bac:	44 0f 29 70 80       	movaps XMMWORD PTR [rax-0x80],xmm14
    4bb1:	44 0f 29 70 90       	movaps XMMWORD PTR [rax-0x70],xmm14
    4bb6:	44 0f 29 70 a0       	movaps XMMWORD PTR [rax-0x60],xmm14
    4bbb:	44 0f 29 70 b0       	movaps XMMWORD PTR [rax-0x50],xmm14
    4bc0:	44 0f 29 70 c0       	movaps XMMWORD PTR [rax-0x40],xmm14
    4bc5:	44 0f 29 70 d0       	movaps XMMWORD PTR [rax-0x30],xmm14
    4bca:	44 0f 29 70 e0       	movaps XMMWORD PTR [rax-0x20],xmm14
    4bcf:	44 0f 29 70 f0       	movaps XMMWORD PTR [rax-0x10],xmm14
    4bd4:	48 39 c7             	cmp    rdi,rax
    4bd7:	0f 85 9c fe ff ff    	jne    4a79 <main+0x1219>
    4bdd:	e8 be 57 00 00       	call   a3a0 <setup_dirs_fds>
    4be2:	e8 a9 93 00 00       	call   df90 <read_testcases>
    4be7:	e8 f4 2b 01 00       	call   177e0 <load_auto>
    4bec:	e8 2f 79 00 00       	call   c520 <pivot_inputs>
    4bf1:	4c 8b 8d 68 fe ff ff 	mov    r9,QWORD PTR [rbp-0x198]
    4bf8:	4d 85 c9             	test   r9,r9
    4bfb:	74 08                	je     4c05 <main+0x13a5>
    4bfd:	4c 89 cf             	mov    rdi,r9
    4c00:	e8 bb df 00 00       	call   12bc0 <load_extras>
    4c05:	80 3d fd 6d 3d 00 00 	cmp    BYTE PTR [rip+0x3d6dfd],0x0        # 3dba09 <timeout_given>
    4c0c:	0f 84 1d 0f 00 00    	je     5b2f <main+0x22cf>
    4c12:	4c 63 15 6f c4 02 00 	movsxd r10,DWORD PTR [rip+0x2c46f]        # 31088 <optind@GLIBC_2.2.5>
    4c19:	31 f6                	xor    esi,esi
    4c1b:	31 ff                	xor    edi,edi
    4c1d:	49 83 c2 01          	add    r10,0x1
    4c21:	4c 89 95 48 fe ff ff 	mov    QWORD PTR [rbp-0x1b8],r10
    4c28:	e8 f3 e6 ff ff       	call   3320 <getcwd@plt>
    4c2d:	49 89 c4             	mov    r12,rax
    4c30:	48 85 c0             	test   rax,rax
    4c33:	0f 84 be 0e 00 00    	je     5af7 <main+0x2297>
    4c39:	44 89 bd 44 fe ff ff 	mov    DWORD PTR [rbp-0x1bc],r15d
    4c40:	4c 8b 2d 11 6e 3d 00 	mov    r13,QWORD PTR [rip+0x3d6e11]        # 3dba58 <out_file>
    4c47:	c7 85 68 fe ff ff 00 	mov    DWORD PTR [rbp-0x198],0x0
    4c4e:	00 00 00 
    4c51:	4c 89 b5 50 fe ff ff 	mov    QWORD PTR [rbp-0x1b0],r14
    4c58:	4c 8b b5 50 fe ff ff 	mov    r14,QWORD PTR [rbp-0x1b0]
    4c5f:	44 8b bd 68 fe ff ff 	mov    r15d,DWORD PTR [rbp-0x198]
    4c66:	4c 03 bd 48 fe ff ff 	add    r15,QWORD PTR [rbp-0x1b8]
    4c6d:	4f 8d 3c fe          	lea    r15,[r14+r15*8]
    4c71:	49 8b 3f             	mov    rdi,QWORD PTR [r15]
    4c74:	48 85 ff             	test   rdi,rdi
    4c77:	0f 84 22 03 00 00    	je     4f9f <main+0x173f>
    4c7d:	48 8d 35 21 ad 01 00 	lea    rsi,[rip+0x1ad21]        # 1f9a5 <_IO_stdin_used+0x9a5>
    4c84:	e8 37 eb ff ff       	call   37c0 <strstr@plt>
    4c89:	48 89 c3             	mov    rbx,rax
    4c8c:	48 85 c0             	test   rax,rax
    4c8f:	0f 84 05 02 00 00    	je     4e9a <main+0x163a>
    4c95:	4d 85 ed             	test   r13,r13
    4c98:	0f 84 08 02 00 00    	je     4ea6 <main+0x1646>
    4c9e:	41 80 7d 00 2f       	cmp    BYTE PTR [r13+0x0],0x2f
    4ca3:	4d 89 ee             	mov    r14,r13
    4ca6:	0f 84 9f 00 00 00    	je     4d4b <main+0x14eb>
    4cac:	41 52                	push   r10
    4cae:	4d 89 e1             	mov    r9,r12
    4cb1:	4c 8d 05 f8 a8 01 00 	lea    r8,[rip+0x1a8f8]        # 1f5b0 <_IO_stdin_used+0x5b0>
    4cb8:	48 83 c9 ff          	or     rcx,0xffffffffffffffff
    4cbc:	41 55                	push   r13
    4cbe:	ba 01 00 00 00       	mov    edx,0x1
    4cc3:	31 f6                	xor    esi,esi
    4cc5:	31 ff                	xor    edi,edi
    4cc7:	31 c0                	xor    eax,eax
    4cc9:	e8 82 e3 ff ff       	call   3050 <__snprintf_chk@plt>
    4cce:	41 5b                	pop    r11
    4cd0:	41 5d                	pop    r13
    4cd2:	85 c0                	test   eax,eax
    4cd4:	0f 88 80 10 00 00    	js     5d5a <main+0x24fa>
    4cda:	44 8d 68 01          	lea    r13d,[rax+0x1]
    4cde:	41 81 fd 00 00 00 40 	cmp    r13d,0x40000000
    4ce5:	0f 8f 67 10 00 00    	jg     5d52 <main+0x24f2>
    4ceb:	8d 78 0a             	lea    edi,[rax+0xa]
    4cee:	e8 0d e8 ff ff       	call   3500 <malloc@plt>
    4cf3:	48 85 c0             	test   rax,rax
    4cf6:	0f 84 4e 10 00 00    	je     5d4a <main+0x24ea>
    4cfc:	44 89 68 04          	mov    DWORD PTR [rax+0x4],r13d
    4d00:	4d 63 ed             	movsxd r13,r13d
    4d03:	48 8d 78 08          	lea    rdi,[rax+0x8]
    4d07:	31 f6                	xor    esi,esi
    4d09:	c7 00 00 ff 00 ff    	mov    DWORD PTR [rax],0xff00ff00
    4d0f:	4c 89 ea             	mov    rdx,r13
    4d12:	42 c6 44 28 08 f0    	mov    BYTE PTR [rax+r13*1+0x8],0xf0
    4d18:	e8 e3 e5 ff ff       	call   3300 <memset@plt>
    4d1d:	4d 89 e1             	mov    r9,r12
    4d20:	48 83 c9 ff          	or     rcx,0xffffffffffffffff
    4d24:	4c 89 ee             	mov    rsi,r13
    4d27:	57                   	push   rdi
    4d28:	4c 8d 05 81 a8 01 00 	lea    r8,[rip+0x1a881]        # 1f5b0 <_IO_stdin_used+0x5b0>
    4d2f:	48 89 c7             	mov    rdi,rax
    4d32:	49 89 c6             	mov    r14,rax
    4d35:	ff 35 1d 6d 3d 00    	push   QWORD PTR [rip+0x3d6d1d]        # 3dba58 <out_file>
    4d3b:	ba 01 00 00 00       	mov    edx,0x1
    4d40:	31 c0                	xor    eax,eax
    4d42:	e8 09 e3 ff ff       	call   3050 <__snprintf_chk@plt>
    4d47:	41 58                	pop    r8
    4d49:	41 59                	pop    r9
    4d4b:	4c 8d 6b 02          	lea    r13,[rbx+0x2]
    4d4f:	c6 03 00             	mov    BYTE PTR [rbx],0x0
    4d52:	4d 8b 0f             	mov    r9,QWORD PTR [r15]
    4d55:	48 83 c9 ff          	or     rcx,0xffffffffffffffff
    4d59:	41 55                	push   r13
    4d5b:	31 f6                	xor    esi,esi
    4d5d:	4c 8d 05 44 ac 01 00 	lea    r8,[rip+0x1ac44]        # 1f9a8 <_IO_stdin_used+0x9a8>
    4d64:	ba 01 00 00 00       	mov    edx,0x1
    4d69:	41 56                	push   r14
    4d6b:	31 ff                	xor    edi,edi
    4d6d:	31 c0                	xor    eax,eax
    4d6f:	e8 dc e2 ff ff       	call   3050 <__snprintf_chk@plt>
    4d74:	59                   	pop    rcx
    4d75:	5e                   	pop    rsi
    4d76:	85 c0                	test   eax,eax
    4d78:	0f 88 4d 0d 00 00    	js     5acb <main+0x226b>
    4d7e:	8d 48 01             	lea    ecx,[rax+0x1]
    4d81:	81 f9 00 00 00 40    	cmp    ecx,0x40000000
    4d87:	0f 8f 10 0d 00 00    	jg     5a9d <main+0x223d>
    4d8d:	8d 78 0a             	lea    edi,[rax+0xa]
    4d90:	89 8d 38 fe ff ff    	mov    DWORD PTR [rbp-0x1c8],ecx
    4d96:	e8 65 e7 ff ff       	call   3500 <malloc@plt>
    4d9b:	4c 63 85 38 fe ff ff 	movsxd r8,DWORD PTR [rbp-0x1c8]
    4da2:	48 85 c0             	test   rax,rax
    4da5:	0f 84 b9 0c 00 00    	je     5a64 <main+0x2204>
    4dab:	44 89 40 04          	mov    DWORD PTR [rax+0x4],r8d
    4daf:	4c 89 c2             	mov    rdx,r8
    4db2:	31 f6                	xor    esi,esi
    4db4:	48 8d 78 08          	lea    rdi,[rax+0x8]
    4db8:	c7 00 00 ff 00 ff    	mov    DWORD PTR [rax],0xff00ff00
    4dbe:	42 c6 44 00 08 f0    	mov    BYTE PTR [rax+r8*1+0x8],0xf0
    4dc4:	4c 89 85 38 fe ff ff 	mov    QWORD PTR [rbp-0x1c8],r8
    4dcb:	e8 30 e5 ff ff       	call   3300 <memset@plt>
    4dd0:	41 55                	push   r13
    4dd2:	4d 8b 0f             	mov    r9,QWORD PTR [r15]
    4dd5:	48 83 c9 ff          	or     rcx,0xffffffffffffffff
    4dd9:	41 56                	push   r14
    4ddb:	48 8b b5 38 fe ff ff 	mov    rsi,QWORD PTR [rbp-0x1c8]
    4de2:	48 89 c7             	mov    rdi,rax
    4de5:	ba 01 00 00 00       	mov    edx,0x1
    4dea:	48 89 85 38 fe ff ff 	mov    QWORD PTR [rbp-0x1c8],rax
    4df1:	4c 8d 05 b0 ab 01 00 	lea    r8,[rip+0x1abb0]        # 1f9a8 <_IO_stdin_used+0x9a8>
    4df8:	31 c0                	xor    eax,eax
    4dfa:	e8 51 e2 ff ff       	call   3050 <__snprintf_chk@plt>
    4dff:	48 8b 85 38 fe ff ff 	mov    rax,QWORD PTR [rbp-0x1c8]
    4e06:	4c 8b 2d 4b 6c 3d 00 	mov    r13,QWORD PTR [rip+0x3d6c4b]        # 3dba58 <out_file>
    4e0d:	49 89 07             	mov    QWORD PTR [r15],rax
    4e10:	c6 03 40             	mov    BYTE PTR [rbx],0x40
    4e13:	41 80 7d 00 2f       	cmp    BYTE PTR [r13+0x0],0x2f
    4e18:	58                   	pop    rax
    4e19:	5a                   	pop    rdx
    4e1a:	74 7e                	je     4e9a <main+0x163a>
    4e1c:	41 8b 76 f8          	mov    esi,DWORD PTR [r14-0x8]
    4e20:	81 fe 00 ff 00 ff    	cmp    esi,0xff00ff00
    4e26:	74 4b                	je     4e73 <main+0x1613>
    4e28:	81 fe 00 fe 00 fe    	cmp    esi,0xfe00fe00
    4e2e:	0f 84 5a 08 00 00    	je     568e <main+0x1e2e>
    4e34:	48 8d 35 bd ba 01 00 	lea    rsi,[rip+0x1babd]        # 208f8 <_IO_stdin_used+0x18f8>
    4e3b:	bf 01 00 00 00       	mov    edi,0x1
    4e40:	31 c0                	xor    eax,eax
    4e42:	e8 49 e7 ff ff       	call   3590 <__printf_chk@plt>
    4e47:	41 b8 96 00 00 00    	mov    r8d,0x96
    4e4d:	48 8d 0d e4 a2 01 00 	lea    rcx,[rip+0x1a2e4]        # 1f138 <_IO_stdin_used+0x138>
    4e54:	48 8d 15 85 26 02 00 	lea    rdx,[rip+0x22685]        # 274e0 <__FUNCTION__.0>
    4e5b:	48 8d 35 e6 b4 01 00 	lea    rsi,[rip+0x1b4e6]        # 20348 <_IO_stdin_used+0x1348>
    4e62:	bf 01 00 00 00       	mov    edi,0x1
    4e67:	31 c0                	xor    eax,eax
    4e69:	e8 22 e7 ff ff       	call   3590 <__printf_chk@plt>
    4e6e:	e8 3d e2 ff ff       	call   30b0 <abort@plt>
    4e73:	41 8b 56 fc          	mov    edx,DWORD PTR [r14-0x4]
    4e77:	41 80 3c 16 f0       	cmp    BYTE PTR [r14+rdx*1],0xf0
    4e7c:	0f 85 0f 0c 00 00    	jne    5a91 <main+0x2231>
    4e82:	41 c7 46 f8 00 fe 00 	mov    DWORD PTR [r14-0x8],0xfe00fe00
    4e89:	fe 
    4e8a:	49 8d 7e f8          	lea    rdi,[r14-0x8]
    4e8e:	e8 dd e1 ff ff       	call   3070 <free@plt>
    4e93:	4c 8b 2d be 6b 3d 00 	mov    r13,QWORD PTR [rip+0x3d6bbe]        # 3dba58 <out_file>
    4e9a:	83 85 68 fe ff ff 01 	add    DWORD PTR [rbp-0x198],0x1
    4ea1:	e9 b2 fd ff ff       	jmp    4c58 <main+0x13f8>
    4ea6:	4c 8b 0d a3 6b 3d 00 	mov    r9,QWORD PTR [rip+0x3d6ba3]        # 3dba50 <out_dir>
    4ead:	48 83 c9 ff          	or     rcx,0xffffffffffffffff
    4eb1:	31 f6                	xor    esi,esi
    4eb3:	31 ff                	xor    edi,edi
    4eb5:	31 c0                	xor    eax,eax
    4eb7:	4c 8d 05 58 a3 01 00 	lea    r8,[rip+0x1a358]        # 1f216 <_IO_stdin_used+0x216>
    4ebe:	ba 01 00 00 00       	mov    edx,0x1
    4ec3:	e8 88 e1 ff ff       	call   3050 <__snprintf_chk@plt>
    4ec8:	85 c0                	test   eax,eax
    4eca:	0f 88 c1 13 00 00    	js     6291 <main+0x2a31>
    4ed0:	44 8d 68 01          	lea    r13d,[rax+0x1]
    4ed4:	41 81 fd 00 00 00 40 	cmp    r13d,0x40000000
    4edb:	0f 8f 71 0e 00 00    	jg     5d52 <main+0x24f2>
    4ee1:	8d 78 0a             	lea    edi,[rax+0xa]
    4ee4:	e8 17 e6 ff ff       	call   3500 <malloc@plt>
    4ee9:	48 85 c0             	test   rax,rax
    4eec:	0f 84 97 13 00 00    	je     6289 <main+0x2a29>
    4ef2:	4d 63 f5             	movsxd r14,r13d
    4ef5:	44 89 68 04          	mov    DWORD PTR [rax+0x4],r13d
    4ef9:	48 8d 78 08          	lea    rdi,[rax+0x8]
    4efd:	31 f6                	xor    esi,esi
    4eff:	c7 00 00 ff 00 ff    	mov    DWORD PTR [rax],0xff00ff00
    4f05:	4c 89 f2             	mov    rdx,r14
    4f08:	42 c6 44 30 08 f0    	mov    BYTE PTR [rax+r14*1+0x8],0xf0
    4f0e:	e8 ed e3 ff ff       	call   3300 <memset@plt>
    4f13:	4c 8b 0d 36 6b 3d 00 	mov    r9,QWORD PTR [rip+0x3d6b36]        # 3dba50 <out_dir>
    4f1a:	48 83 c9 ff          	or     rcx,0xffffffffffffffff
    4f1e:	4c 89 f6             	mov    rsi,r14
    4f21:	49 89 c5             	mov    r13,rax
    4f24:	48 89 c7             	mov    rdi,rax
    4f27:	ba 01 00 00 00       	mov    edx,0x1
    4f2c:	31 c0                	xor    eax,eax
    4f2e:	4c 8d 05 e1 a2 01 00 	lea    r8,[rip+0x1a2e1]        # 1f216 <_IO_stdin_used+0x216>
    4f35:	e8 16 e1 ff ff       	call   3050 <__snprintf_chk@plt>
    4f3a:	4c 89 2d 17 6b 3d 00 	mov    QWORD PTR [rip+0x3d6b17],r13        # 3dba58 <out_file>
    4f41:	e9 58 fd ff ff       	jmp    4c9e <main+0x143e>
    4f46:	c7 05 38 67 2d 00 00 	mov    DWORD PTR [rip+0x2d6738],0x0        # 2db688 <cpu_core_count>
    4f4d:	00 00 00 
    4f50:	48 8d 35 e1 16 02 00 	lea    rsi,[rip+0x216e1]        # 26638 <_IO_stdin_used+0x7638>
    4f57:	bf 01 00 00 00       	mov    edi,0x1
    4f5c:	31 c0                	xor    eax,eax
    4f5e:	e8 2d e6 ff ff       	call   3590 <__printf_chk@plt>
    4f63:	48 8b bd 58 fe ff ff 	mov    rdi,QWORD PTR [rbp-0x1a8]
    4f6a:	e8 e1 e1 ff ff       	call   3150 <puts@plt>
    4f6f:	e9 c2 f8 ff ff       	jmp    4836 <main+0xfd6>
    4f74:	48 8b 15 ad 6a 3d 00 	mov    rdx,QWORD PTR [rip+0x3d6aad]        # 3dba28 <doc_path>
    4f7b:	48 8d 35 76 16 02 00 	lea    rsi,[rip+0x21676]        # 265f8 <_IO_stdin_used+0x75f8>
    4f82:	bf 01 00 00 00       	mov    edi,0x1
    4f87:	31 c0                	xor    eax,eax
    4f89:	e8 02 e6 ff ff       	call   3590 <__printf_chk@plt>
    4f8e:	48 8b bd 58 fe ff ff 	mov    rdi,QWORD PTR [rbp-0x1a8]
    4f95:	e8 b6 e1 ff ff       	call   3150 <puts@plt>
    4f9a:	e9 97 f8 ff ff       	jmp    4836 <main+0xfd6>
    4f9f:	4c 89 e7             	mov    rdi,r12
    4fa2:	44 8b bd 44 fe ff ff 	mov    r15d,DWORD PTR [rbp-0x1bc]
    4fa9:	e8 c2 e0 ff ff       	call   3070 <free@plt>
    4fae:	4d 85 ed             	test   r13,r13
    4fb1:	0f 84 88 08 00 00    	je     583f <main+0x1fdf>
    4fb7:	4c 63 1d ca c0 02 00 	movsxd r11,DWORD PTR [rip+0x2c0ca]        # 31088 <optind@GLIBC_2.2.5>
    4fbe:	4c 8d ad 78 fe ff ff 	lea    r13,[rbp-0x188]
    4fc5:	4b 8b 3c de          	mov    rdi,QWORD PTR [r14+r11*8]
    4fc9:	e8 52 86 00 00       	call   d620 <check_binary>
    4fce:	48 8d bd 90 fe ff ff 	lea    rdi,[rbp-0x170]
    4fd5:	4c 89 ee             	mov    rsi,r13
    4fd8:	48 89 bd 48 fe ff ff 	mov    QWORD PTR [rbp-0x1b8],rdi
    4fdf:	e8 fc e2 ff ff       	call   32e0 <gettimeofday@plt>
    4fe4:	48 8b 85 98 fe ff ff 	mov    rax,QWORD PTR [rbp-0x168]
    4feb:	be e8 03 00 00       	mov    esi,0x3e8
    4ff0:	48 69 8d 90 fe ff ff 	imul   rcx,QWORD PTR [rbp-0x170],0x3e8
    4ff7:	e8 03 00 00 
    4ffb:	48 99                	cqo    
    4ffd:	48 f7 fe             	idiv   rsi
    5000:	48 01 c1             	add    rcx,rax
    5003:	80 3d f3 69 3d 00 00 	cmp    BYTE PTR [rip+0x3d69f3],0x0        # 3db9fd <qemu_mode>
    500a:	48 89 0d 3f 69 2d 00 	mov    QWORD PTR [rip+0x2d693f],rcx        # 2db950 <start_time>
    5011:	0f 85 10 03 00 00    	jne    5327 <main+0x1ac7>
    5017:	4c 63 05 6a c0 02 00 	movsxd r8,DWORD PTR [rip+0x2c06a]        # 31088 <optind@GLIBC_2.2.5>
    501e:	4b 8d 1c c6          	lea    rbx,[r14+r8*8]
    5022:	48 89 df             	mov    rdi,rbx
    5025:	e8 16 fc 00 00       	call   14c40 <perform_dry_run>
    502a:	80 3d dc 69 3d 00 00 	cmp    BYTE PTR [rip+0x3d69dc],0x0        # 3dba0d <dumb_mode>
    5031:	75 0e                	jne    5041 <main+0x17e1>
    5033:	80 3d d2 69 3d 00 00 	cmp    BYTE PTR [rip+0x3d69d2],0x0        # 3dba0c <score_changed>
    503a:	74 05                	je     5041 <main+0x17e1>
    503c:	e8 9f 6d 00 00       	call   bde0 <cull_queue.part.0>
    5041:	e8 5a 24 00 00       	call   74a0 <show_init_stats>
    5046:	80 3d bd 69 3d 00 00 	cmp    BYTE PTR [rip+0x3d69bd],0x0        # 3dba0a <resuming_fuzz>
    504d:	0f 84 d7 00 00 00    	je     512a <main+0x18ca>
    5053:	80 3d a8 69 3d 00 00 	cmp    BYTE PTR [rip+0x3d69a8],0x0        # 3dba02 <in_place_resume>
    505a:	0f 84 9f 08 00 00    	je     58ff <main+0x209f>
    5060:	4c 8b 0d e9 69 3d 00 	mov    r9,QWORD PTR [rip+0x3d69e9]        # 3dba50 <out_dir>
    5067:	48 83 c9 ff          	or     rcx,0xffffffffffffffff
    506b:	31 f6                	xor    esi,esi
    506d:	31 ff                	xor    edi,edi
    506f:	4c 8d 05 1a a1 01 00 	lea    r8,[rip+0x1a11a]        # 1f190 <_IO_stdin_used+0x190>
    5076:	ba 01 00 00 00       	mov    edx,0x1
    507b:	31 c0                	xor    eax,eax
    507d:	e8 ce df ff ff       	call   3050 <__snprintf_chk@plt>
    5082:	41 89 c4             	mov    r12d,eax
    5085:	85 c0                	test   eax,eax
    5087:	0f 88 46 08 00 00    	js     58d3 <main+0x2073>
    508d:	41 83 c4 01          	add    r12d,0x1
    5091:	44 89 e7             	mov    edi,r12d
    5094:	e8 87 4f 00 00       	call   a020 <DFL_ck_alloc>
    5099:	4c 8b 0d b0 69 3d 00 	mov    r9,QWORD PTR [rip+0x3d69b0]        # 3dba50 <out_dir>
    50a0:	49 63 f4             	movsxd rsi,r12d
    50a3:	4c 8d 05 e6 a0 01 00 	lea    r8,[rip+0x1a0e6]        # 1f190 <_IO_stdin_used+0x190>
    50aa:	49 89 c6             	mov    r14,rax
    50ad:	48 83 c9 ff          	or     rcx,0xffffffffffffffff
    50b1:	ba 01 00 00 00       	mov    edx,0x1
    50b6:	4c 89 f7             	mov    rdi,r14
    50b9:	31 c0                	xor    eax,eax
    50bb:	e8 90 df ff ff       	call   3050 <__snprintf_chk@plt>
    50c0:	31 f6                	xor    esi,esi
    50c2:	4c 89 f7             	mov    rdi,r14
    50c5:	31 c0                	xor    eax,eax
    50c7:	e8 e4 e4 ff ff       	call   35b0 <open64@plt>
    50cc:	4c 89 f7             	mov    rdi,r14
    50cf:	41 89 c7             	mov    r15d,eax
    50d2:	e8 49 41 00 00       	call   9220 <DFL_ck_free>
    50d7:	45 85 ff             	test   r15d,r15d
    50da:	78 4e                	js     512a <main+0x18ca>
    50dc:	4c 8d 35 1d 43 07 00 	lea    r14,[rip+0x7431d]        # 79400 <tmp.36>
    50e3:	ba ff 0f 00 00       	mov    edx,0xfff
    50e8:	44 89 ff             	mov    edi,r15d
    50eb:	4c 89 f6             	mov    rsi,r14
    50ee:	e8 9d e2 ff ff       	call   3390 <read@plt>
    50f3:	44 89 ff             	mov    edi,r15d
    50f6:	e8 35 e2 ff ff       	call   3330 <close@plt>
    50fb:	48 8d 35 fa a8 01 00 	lea    rsi,[rip+0x1a8fa]        # 1f9fc <_IO_stdin_used+0x9fc>
    5102:	4c 89 f7             	mov    rdi,r14
    5105:	e8 b6 e6 ff ff       	call   37c0 <strstr@plt>
    510a:	48 85 c0             	test   rax,rax
    510d:	74 1b                	je     512a <main+0x18ca>
    510f:	31 f6                	xor    esi,esi
    5111:	48 8d 78 14          	lea    rdi,[rax+0x14]
    5115:	ba 0a 00 00 00       	mov    edx,0xa
    511a:	e8 21 e3 ff ff       	call   3440 <strtol@plt>
    511f:	3b 05 9f 68 2d 00    	cmp    eax,DWORD PTR [rip+0x2d689f]        # 2db9c4 <queued_paths>
    5125:	41 89 c4             	mov    r12d,eax
    5128:	72 03                	jb     512d <main+0x18cd>
    512a:	45 31 e4             	xor    r12d,r12d
    512d:	66 0f ef d2          	pxor   xmm2,xmm2
    5131:	66 0f ef c0          	pxor   xmm0,xmm0
    5135:	66 0f 28 ca          	movapd xmm1,xmm2
    5139:	e8 22 98 00 00       	call   e960 <write_stats_file>
    513e:	80 3d bc 68 3d 00 00 	cmp    BYTE PTR [rip+0x3d68bc],0x0        # 3dba01 <auto_changed>
    5145:	74 05                	je     514c <main+0x18ec>
    5147:	e8 d4 48 00 00       	call   9a20 <save_auto.part.0>
    514c:	44 0f b6 1d 75 68 2d 	movzx  r11d,BYTE PTR [rip+0x2d6875]        # 2db9c9 <stop_soon>
    5153:	00 
    5154:	45 84 db             	test   r11b,r11b
    5157:	0f 85 6d 04 00 00    	jne    55ca <main+0x1d6a>
    515d:	80 3d a3 68 3d 00 00 	cmp    BYTE PTR [rip+0x3d68a3],0x0        # 3dba07 <not_on_tty>
    5164:	0f 84 3b 04 00 00    	je     55a5 <main+0x1d45>
    516a:	c7 85 50 fe ff ff 00 	mov    DWORD PTR [rbp-0x1b0],0x0
    5171:	00 00 00 
    5174:	4d 89 ee             	mov    r14,r13
    5177:	45 89 e7             	mov    r15d,r12d
    517a:	49 89 dd             	mov    r13,rbx
    517d:	48 c7 85 68 fe ff ff 	mov    QWORD PTR [rbp-0x198],0x0
    5184:	00 00 00 00 
    5188:	eb 52                	jmp    51dc <main+0x197c>
    518a:	44 0f b6 0d 37 68 2d 	movzx  r9d,BYTE PTR [rip+0x2d6837]        # 2db9c9 <stop_soon>
    5191:	00 
    5192:	45 84 c9             	test   r9b,r9b
    5195:	75 11                	jne    51a8 <main+0x1948>
    5197:	48 83 bd 60 fe ff ff 	cmp    QWORD PTR [rbp-0x1a0],0x0
    519e:	00 
    519f:	74 07                	je     51a8 <main+0x1948>
    51a1:	c6 05 21 68 2d 00 02 	mov    BYTE PTR [rip+0x2d6821],0x2        # 2db9c9 <stop_soon>
    51a8:	44 0f b6 15 19 68 2d 	movzx  r10d,BYTE PTR [rip+0x2d6819]        # 2db9c9 <stop_soon>
    51af:	00 
    51b0:	4c 8b 3d b9 64 2d 00 	mov    r15,QWORD PTR [rip+0x2d64b9]        # 2db670 <queue_cur>
    51b7:	45 84 d2             	test   r10b,r10b
    51ba:	0f 85 da 04 00 00    	jne    569a <main+0x1e3a>
    51c0:	4d 8b 5f 48          	mov    r11,QWORD PTR [r15+0x48]
    51c4:	83 05 c5 67 2d 00 01 	add    DWORD PTR [rip+0x2d67c5],0x1        # 2db990 <current_entry>
    51cb:	45 89 e7             	mov    r15d,r12d
    51ce:	48 89 9d 68 fe ff ff 	mov    QWORD PTR [rbp-0x198],rbx
    51d5:	4c 89 1d 94 64 2d 00 	mov    QWORD PTR [rip+0x2d6494],r11        # 2db670 <queue_cur>
    51dc:	80 3d 2a 68 3d 00 00 	cmp    BYTE PTR [rip+0x3d682a],0x0        # 3dba0d <dumb_mode>
    51e3:	75 0e                	jne    51f3 <main+0x1993>
    51e5:	80 3d 20 68 3d 00 00 	cmp    BYTE PTR [rip+0x3d6820],0x0        # 3dba0c <score_changed>
    51ec:	74 05                	je     51f3 <main+0x1993>
    51ee:	e8 ed 6b 00 00       	call   bde0 <cull_queue.part.0>
    51f3:	48 83 3d 75 64 2d 00 	cmp    QWORD PTR [rip+0x2d6475],0x0        # 2db670 <queue_cur>
    51fa:	00 
    51fb:	74 67                	je     5264 <main+0x1a04>
    51fd:	48 8b 9d 68 fe ff ff 	mov    rbx,QWORD PTR [rbp-0x198]
    5204:	45 89 fc             	mov    r12d,r15d
    5207:	4c 89 ef             	mov    rdi,r13
    520a:	e8 71 29 01 00       	call   17b80 <fuzz_one>
    520f:	89 c1                	mov    ecx,eax
    5211:	0f b6 05 b1 67 2d 00 	movzx  eax,BYTE PTR [rip+0x2d67b1]        # 2db9c9 <stop_soon>
    5218:	08 c8                	or     al,cl
    521a:	0f 85 6a ff ff ff    	jne    518a <main+0x192a>
    5220:	48 83 3d 18 68 3d 00 	cmp    QWORD PTR [rip+0x3d6818],0x0        # 3dba40 <sync_id>
    5227:	00 
    5228:	0f 84 5c ff ff ff    	je     518a <main+0x192a>
    522e:	8b 85 50 fe ff ff    	mov    eax,DWORD PTR [rbp-0x1b0]
    5234:	be 05 00 00 00       	mov    esi,0x5
    5239:	31 d2                	xor    edx,edx
    523b:	44 8b 85 50 fe ff ff 	mov    r8d,DWORD PTR [rbp-0x1b0]
    5242:	f7 f6                	div    esi
    5244:	41 83 c0 01          	add    r8d,0x1
    5248:	44 89 85 50 fe ff ff 	mov    DWORD PTR [rbp-0x1b0],r8d
    524f:	85 d2                	test   edx,edx
    5251:	0f 85 33 ff ff ff    	jne    518a <main+0x192a>
    5257:	4c 89 ef             	mov    rdi,r13
    525a:	e8 51 0f 01 00       	call   161b0 <sync_fuzzers>
    525f:	e9 26 ff ff ff       	jmp    518a <main+0x192a>
    5264:	48 8b 3d 0d 64 2d 00 	mov    rdi,QWORD PTR [rip+0x2d640d]        # 2db678 <queue>
    526b:	45 89 fc             	mov    r12d,r15d
    526e:	31 db                	xor    ebx,ebx
    5270:	48 83 05 b0 66 2d 00 	add    QWORD PTR [rip+0x2d66b0],0x1        # 2db928 <queue_cycle>
    5277:	01 
    5278:	c7 05 0e 67 2d 00 00 	mov    DWORD PTR [rip+0x2d670e],0x0        # 2db990 <current_entry>
    527f:	00 00 00 
    5282:	c7 05 18 67 2d 00 00 	mov    DWORD PTR [rip+0x2d6718],0x0        # 2db9a4 <cur_skipped_paths>
    5289:	00 00 00 
    528c:	48 89 3d dd 63 2d 00 	mov    QWORD PTR [rip+0x2d63dd],rdi        # 2db670 <queue_cur>
    5293:	eb 0d                	jmp    52a2 <main+0x1a42>
    5295:	48 8b 7f 48          	mov    rdi,QWORD PTR [rdi+0x48]
    5299:	41 83 ec 01          	sub    r12d,0x1
    529d:	bb 01 00 00 00       	mov    ebx,0x1
    52a2:	45 85 e4             	test   r12d,r12d
    52a5:	75 ee                	jne    5295 <main+0x1a35>
    52a7:	84 db                	test   bl,bl
    52a9:	74 0e                	je     52b9 <main+0x1a59>
    52ab:	48 89 3d be 63 2d 00 	mov    QWORD PTR [rip+0x2d63be],rdi        # 2db670 <queue_cur>
    52b2:	44 89 3d d7 66 2d 00 	mov    DWORD PTR [rip+0x2d66d7],r15d        # 2db990 <current_entry>
    52b9:	e8 42 a1 00 00       	call   f400 <show_stats>
    52be:	80 3d 42 67 3d 00 00 	cmp    BYTE PTR [rip+0x3d6742],0x0        # 3dba07 <not_on_tty>
    52c5:	0f 85 9f 01 00 00    	jne    546a <main+0x1c0a>
    52cb:	8b 1d f3 66 2d 00    	mov    ebx,DWORD PTR [rip+0x2d66f3]        # 2db9c4 <queued_paths>
    52d1:	48 3b 9d 68 fe ff ff 	cmp    rbx,QWORD PTR [rbp-0x198]
    52d8:	0f 84 76 01 00 00    	je     5454 <main+0x1bf4>
    52de:	48 c7 05 37 66 2d 00 	mov    QWORD PTR [rip+0x2d6637],0x0        # 2db920 <cycles_wo_finds>
    52e5:	00 00 00 00 
    52e9:	48 83 3d 4f 67 3d 00 	cmp    QWORD PTR [rip+0x3d674f],0x0        # 3dba40 <sync_id>
    52f0:	00 
    52f1:	0f 84 10 ff ff ff    	je     5207 <main+0x19a7>
    52f7:	48 83 3d 29 66 2d 00 	cmp    QWORD PTR [rip+0x2d6629],0x1        # 2db928 <queue_cycle>
    52fe:	01 
    52ff:	0f 85 02 ff ff ff    	jne    5207 <main+0x19a7>
    5305:	48 8d 3d 05 a7 01 00 	lea    rdi,[rip+0x1a705]        # 1fa11 <_IO_stdin_used+0xa11>
    530c:	e8 2f dd ff ff       	call   3040 <getenv@plt>
    5311:	48 85 c0             	test   rax,rax
    5314:	0f 84 ed fe ff ff    	je     5207 <main+0x19a7>
    531a:	4c 89 ef             	mov    rdi,r13
    531d:	e8 8e 0e 01 00       	call   161b0 <sync_fuzzers>
    5322:	e9 e0 fe ff ff       	jmp    5207 <main+0x19a7>
    5327:	44 8b 0d 5a bd 02 00 	mov    r9d,DWORD PTR [rip+0x2bd5a]        # 31088 <optind@GLIBC_2.2.5>
    532e:	4d 8b 26             	mov    r12,QWORD PTR [r14]
    5331:	45 29 cf             	sub    r15d,r9d
    5334:	44 89 8d 68 fe ff ff 	mov    DWORD PTR [rbp-0x198],r9d
    533b:	42 8d 3c fd 20 00 00 	lea    edi,[r15*8+0x20]
    5342:	00 
    5343:	e8 d8 4c 00 00       	call   a020 <DFL_ck_alloc>
    5348:	ba 01 00 00 00       	mov    edx,0x1
    534d:	48 8d 35 5b a6 01 00 	lea    rsi,[rip+0x1a65b]        # 1f9af <_IO_stdin_used+0x9af>
    5354:	48 8d 3d 5c a6 01 00 	lea    rdi,[rip+0x1a65c]        # 1f9b7 <_IO_stdin_used+0x9b7>
    535b:	48 89 c3             	mov    rbx,rax
    535e:	e8 2d de ff ff       	call   3190 <setenv@plt>
    5363:	4c 63 95 68 fe ff ff 	movsxd r10,DWORD PTR [rbp-0x198]
    536a:	49 63 d7             	movsxd rdx,r15d
    536d:	48 8d 7b 18          	lea    rdi,[rbx+0x18]
    5371:	48 c1 e2 03          	shl    rdx,0x3
    5375:	4b 8d 74 d6 08       	lea    rsi,[r14+r10*8+0x8]
    537a:	4c 8d 35 3f a6 01 00 	lea    r14,[rip+0x1a63f]        # 1f9c0 <_IO_stdin_used+0x9c0>
    5381:	e8 da e0 ff ff       	call   3460 <memcpy@plt>
    5386:	4c 8b 3d 93 66 3d 00 	mov    r15,QWORD PTR [rip+0x3d6693]        # 3dba20 <target_path>
    538d:	4c 89 73 08          	mov    QWORD PTR [rbx+0x8],r14
    5391:	48 8d 3d 2b a6 01 00 	lea    rdi,[rip+0x1a62b]        # 1f9c3 <_IO_stdin_used+0x9c3>
    5398:	4c 89 7b 10          	mov    QWORD PTR [rbx+0x10],r15
    539c:	e8 9f dc ff ff       	call   3040 <getenv@plt>
    53a1:	49 89 c7             	mov    r15,rax
    53a4:	48 85 c0             	test   rax,rax
    53a7:	0f 84 2c 01 00 00    	je     54d9 <main+0x1c79>
    53ad:	49 89 c1             	mov    r9,rax
    53b0:	4c 8d 05 15 a6 01 00 	lea    r8,[rip+0x1a615]        # 1f9cc <_IO_stdin_used+0x9cc>
    53b7:	48 83 c9 ff          	or     rcx,0xffffffffffffffff
    53bb:	31 f6                	xor    esi,esi
    53bd:	ba 01 00 00 00       	mov    edx,0x1
    53c2:	31 ff                	xor    edi,edi
    53c4:	31 c0                	xor    eax,eax
    53c6:	e8 85 dc ff ff       	call   3050 <__snprintf_chk@plt>
    53cb:	41 89 c6             	mov    r14d,eax
    53ce:	85 c0                	test   eax,eax
    53d0:	0f 88 d7 00 00 00    	js     54ad <main+0x1c4d>
    53d6:	41 83 c6 01          	add    r14d,0x1
    53da:	44 89 f7             	mov    edi,r14d
    53dd:	e8 3e 4c 00 00       	call   a020 <DFL_ck_alloc>
    53e2:	49 63 f6             	movsxd rsi,r14d
    53e5:	48 83 c9 ff          	or     rcx,0xffffffffffffffff
    53e9:	4d 89 f9             	mov    r9,r15
    53ec:	48 89 c7             	mov    rdi,rax
    53ef:	49 89 c4             	mov    r12,rax
    53f2:	ba 01 00 00 00       	mov    edx,0x1
    53f7:	31 c0                	xor    eax,eax
    53f9:	4c 8d 05 cc a5 01 00 	lea    r8,[rip+0x1a5cc]        # 1f9cc <_IO_stdin_used+0x9cc>
    5400:	e8 4b dc ff ff       	call   3050 <__snprintf_chk@plt>
    5405:	be 01 00 00 00       	mov    esi,0x1
    540a:	4c 89 e7             	mov    rdi,r12
    540d:	e8 fe e1 ff ff       	call   3610 <access@plt>
    5412:	85 c0                	test   eax,eax
    5414:	75 0f                	jne    5425 <main+0x1bc5>
    5416:	4c 89 23             	mov    QWORD PTR [rbx],r12
    5419:	4c 89 25 00 66 3d 00 	mov    QWORD PTR [rip+0x3d6600],r12        # 3dba20 <target_path>
    5420:	e9 fd fb ff ff       	jmp    5022 <main+0x17c2>
    5425:	4c 89 fa             	mov    rdx,r15
    5428:	48 8d 35 99 1a 02 00 	lea    rsi,[rip+0x21a99]        # 26ec8 <_IO_stdin_used+0x7ec8>
    542f:	bf 01 00 00 00       	mov    edi,0x1
    5434:	31 c0                	xor    eax,eax
    5436:	e8 55 e1 ff ff       	call   3590 <__printf_chk@plt>
    543b:	41 b8 08 1e 00 00    	mov    r8d,0x1e08
    5441:	48 8d 0d fc 9c 01 00 	lea    rcx,[rip+0x19cfc]        # 1f144 <_IO_stdin_used+0x144>
    5448:	48 8d 15 11 22 02 00 	lea    rdx,[rip+0x22211]        # 27660 <__FUNCTION__.50>
    544f:	e9 4b e9 ff ff       	jmp    3d9f <main+0x53f>
    5454:	80 3d b3 65 3d 00 00 	cmp    BYTE PTR [rip+0x3d65b3],0x0        # 3dba0e <use_splicing>
    545b:	74 44                	je     54a1 <main+0x1c41>
    545d:	48 83 05 bb 64 2d 00 	add    QWORD PTR [rip+0x2d64bb],0x1        # 2db920 <cycles_wo_finds>
    5464:	01 
    5465:	e9 7f fe ff ff       	jmp    52e9 <main+0x1a89>
    546a:	48 8b 15 b7 64 2d 00 	mov    rdx,QWORD PTR [rip+0x2d64b7]        # 2db928 <queue_cycle>
    5471:	48 8d 35 e8 1c 02 00 	lea    rsi,[rip+0x21ce8]        # 27160 <_IO_stdin_used+0x8160>
    5478:	bf 01 00 00 00       	mov    edi,0x1
    547d:	31 c0                	xor    eax,eax
    547f:	e8 0c e1 ff ff       	call   3590 <__printf_chk@plt>
    5484:	48 8b bd 58 fe ff ff 	mov    rdi,QWORD PTR [rbp-0x1a8]
    548b:	e8 c0 dc ff ff       	call   3150 <puts@plt>
    5490:	48 8b 3d e9 bb 02 00 	mov    rdi,QWORD PTR [rip+0x2bbe9]        # 31080 <stdout@GLIBC_2.2.5>
    5497:	e8 74 e0 ff ff       	call   3510 <fflush@plt>
    549c:	e9 2a fe ff ff       	jmp    52cb <main+0x1a6b>
    54a1:	c6 05 66 65 3d 00 01 	mov    BYTE PTR [rip+0x3d6566],0x1        # 3dba0e <use_splicing>
    54a8:	e9 3c fe ff ff       	jmp    52e9 <main+0x1a89>
    54ad:	48 8d 35 4c b5 01 00 	lea    rsi,[rip+0x1b54c]        # 20a00 <_IO_stdin_used+0x1a00>
    54b4:	bf 01 00 00 00       	mov    edi,0x1
    54b9:	31 c0                	xor    eax,eax
    54bb:	e8 d0 e0 ff ff       	call   3590 <__printf_chk@plt>
    54c0:	41 b8 05 1e 00 00    	mov    r8d,0x1e05
    54c6:	48 8d 0d 77 9c 01 00 	lea    rcx,[rip+0x19c77]        # 1f144 <_IO_stdin_used+0x144>
    54cd:	48 8d 15 8c 21 02 00 	lea    rdx,[rip+0x2218c]        # 27660 <__FUNCTION__.50>
    54d4:	e9 c6 e8 ff ff       	jmp    3d9f <main+0x53f>
    54d9:	4c 89 e7             	mov    rdi,r12
    54dc:	e8 bf 24 00 00       	call   79a0 <DFL_ck_strdup>
    54e1:	be 2f 00 00 00       	mov    esi,0x2f
    54e6:	48 89 c7             	mov    rdi,rax
    54e9:	49 89 c4             	mov    r12,rax
    54ec:	e8 cf dd ff ff       	call   32c0 <strrchr@plt>
    54f1:	48 85 c0             	test   rax,rax
    54f4:	0f 84 5d 05 00 00    	je     5a57 <main+0x21f7>
    54fa:	c6 00 00             	mov    BYTE PTR [rax],0x0
    54fd:	4d 89 e1             	mov    r9,r12
    5500:	4c 8d 05 c5 a4 01 00 	lea    r8,[rip+0x1a4c5]        # 1f9cc <_IO_stdin_used+0x9cc>
    5507:	31 f6                	xor    esi,esi
    5509:	48 83 c9 ff          	or     rcx,0xffffffffffffffff
    550d:	ba 01 00 00 00       	mov    edx,0x1
    5512:	31 ff                	xor    edi,edi
    5514:	31 c0                	xor    eax,eax
    5516:	e8 35 db ff ff       	call   3050 <__snprintf_chk@plt>
    551b:	41 89 c6             	mov    r14d,eax
    551e:	85 c0                	test   eax,eax
    5520:	0f 88 05 05 00 00    	js     5a2b <main+0x21cb>
    5526:	41 83 c6 01          	add    r14d,0x1
    552a:	44 89 f7             	mov    edi,r14d
    552d:	e8 ee 4a 00 00       	call   a020 <DFL_ck_alloc>
    5532:	49 63 f6             	movsxd rsi,r14d
    5535:	48 83 c9 ff          	or     rcx,0xffffffffffffffff
    5539:	4d 89 e1             	mov    r9,r12
    553c:	48 89 c7             	mov    rdi,rax
    553f:	49 89 c7             	mov    r15,rax
    5542:	ba 01 00 00 00       	mov    edx,0x1
    5547:	31 c0                	xor    eax,eax
    5549:	4c 8d 05 7c a4 01 00 	lea    r8,[rip+0x1a47c]        # 1f9cc <_IO_stdin_used+0x9cc>
    5550:	e8 fb da ff ff       	call   3050 <__snprintf_chk@plt>
    5555:	4c 89 e7             	mov    rdi,r12
    5558:	e8 c3 3c 00 00       	call   9220 <DFL_ck_free>
    555d:	be 01 00 00 00       	mov    esi,0x1
    5562:	4c 89 ff             	mov    rdi,r15
    5565:	e8 a6 e0 ff ff       	call   3610 <access@plt>
    556a:	85 c0                	test   eax,eax
    556c:	0f 84 aa 04 00 00    	je     5a1c <main+0x21bc>
    5572:	4c 8d 25 65 a4 01 00 	lea    r12,[rip+0x1a465]        # 1f9de <_IO_stdin_used+0x9de>
    5579:	be 01 00 00 00       	mov    esi,0x1
    557e:	4c 89 e7             	mov    rdi,r12
    5581:	e8 8a e0 ff ff       	call   3610 <access@plt>
    5586:	85 c0                	test   eax,eax
    5588:	0f 85 56 04 00 00    	jne    59e4 <main+0x2184>
    558e:	4c 89 e7             	mov    rdi,r12
    5591:	e8 0a 24 00 00       	call   79a0 <DFL_ck_strdup>
    5596:	48 89 03             	mov    QWORD PTR [rbx],rax
    5599:	48 89 05 80 64 3d 00 	mov    QWORD PTR [rip+0x3d6480],rax        # 3dba20 <target_path>
    55a0:	e9 7d fa ff ff       	jmp    5022 <main+0x17c2>
    55a5:	bf 04 00 00 00       	mov    edi,0x4
    55aa:	e8 d1 e1 ff ff       	call   3780 <sleep@plt>
    55af:	0f b6 3d 13 64 2d 00 	movzx  edi,BYTE PTR [rip+0x2d6413]        # 2db9c9 <stop_soon>
    55b6:	48 81 05 8f 63 2d 00 	add    QWORD PTR [rip+0x2d638f],0xfa0        # 2db950 <start_time>
    55bd:	a0 0f 00 00 
    55c1:	40 84 ff             	test   dil,dil
    55c4:	0f 84 a0 fb ff ff    	je     516a <main+0x190a>
    55ca:	44 0f b6 25 f7 63 2d 	movzx  r12d,BYTE PTR [rip+0x2d63f7]        # 2db9c9 <stop_soon>
    55d1:	00 
    55d2:	48 8d 0d 31 a2 01 00 	lea    rcx,[rip+0x1a231]        # 1f80a <_IO_stdin_used+0x80a>
    55d9:	48 8d 15 19 a2 01 00 	lea    rdx,[rip+0x1a219]        # 1f7f9 <_IO_stdin_used+0x7f9>
    55e0:	bf 01 00 00 00       	mov    edi,0x1
    55e5:	48 8d 35 d4 1b 02 00 	lea    rsi,[rip+0x21bd4]        # 271c0 <_IO_stdin_used+0x81c0>
    55ec:	41 80 fc 02          	cmp    r12b,0x2
    55f0:	48 0f 45 d1          	cmovne rdx,rcx
    55f4:	31 c0                	xor    eax,eax
    55f6:	e8 95 df ff ff       	call   3590 <__printf_chk@plt>
    55fb:	48 83 3d 25 63 2d 00 	cmp    QWORD PTR [rip+0x2d6325],0x1        # 2db928 <queue_cycle>
    5602:	01 
    5603:	0f 84 d6 01 00 00    	je     57df <main+0x1f7f>
    5609:	48 8b 3d 70 60 2d 00 	mov    rdi,QWORD PTR [rip+0x2d6070]        # 2db680 <plot_file>
    5610:	e8 eb db ff ff       	call   3200 <fclose@plt>
    5615:	4c 8b 2d 5c 60 2d 00 	mov    r13,QWORD PTR [rip+0x2d605c]        # 2db678 <queue>
    561c:	eb 21                	jmp    563f <main+0x1ddf>
    561e:	49 8b 7d 00          	mov    rdi,QWORD PTR [r13+0x0]
    5622:	4d 8b 7d 48          	mov    r15,QWORD PTR [r13+0x48]
    5626:	e8 f5 3b 00 00       	call   9220 <DFL_ck_free>
    562b:	49 8b 7d 38          	mov    rdi,QWORD PTR [r13+0x38]
    562f:	e8 ec 3b 00 00       	call   9220 <DFL_ck_free>
    5634:	4c 89 ef             	mov    rdi,r13
    5637:	4d 89 fd             	mov    r13,r15
    563a:	e8 e1 3b 00 00       	call   9220 <DFL_ck_free>
    563f:	4d 85 ed             	test   r13,r13
    5642:	75 da                	jne    561e <main+0x1dbe>
    5644:	48 8b 3d f5 5f 0d 00 	mov    rdi,QWORD PTR [rip+0xd5ff5]        # db640 <extras>
    564b:	45 31 f6             	xor    r14d,r14d
    564e:	44 3b 35 e3 5f 0d 00 	cmp    r14d,DWORD PTR [rip+0xd5fe3]        # db638 <extras_cnt>
    5655:	0f 83 1e 01 00 00    	jae    5779 <main+0x1f19>
    565b:	44 89 f3             	mov    ebx,r14d
    565e:	48 c1 e3 04          	shl    rbx,0x4
    5662:	4c 8b 24 1f          	mov    r12,QWORD PTR [rdi+rbx*1]
    5666:	4d 85 e4             	test   r12,r12
    5669:	0f 84 fc 00 00 00    	je     576b <main+0x1f0b>
    566f:	45 8b 5c 24 f8       	mov    r11d,DWORD PTR [r12-0x8]
    5674:	41 81 fb 00 ff 00 ff 	cmp    r11d,0xff00ff00
    567b:	0f 84 c4 00 00 00    	je     5745 <main+0x1ee5>
    5681:	41 81 fb 00 fe 00 fe 	cmp    r11d,0xfe00fe00
    5688:	0f 85 a6 f7 ff ff    	jne    4e34 <main+0x15d4>
    568e:	48 8d 35 1b b2 01 00 	lea    rsi,[rip+0x1b21b]        # 208b0 <_IO_stdin_used+0x18b0>
    5695:	e9 a1 f7 ff ff       	jmp    4e3b <main+0x15db>
    569a:	4d 89 f5             	mov    r13,r14
    569d:	4d 85 ff             	test   r15,r15
    56a0:	74 05                	je     56a7 <main+0x1e47>
    56a2:	e8 59 9d 00 00       	call   f400 <show_stats>
    56a7:	44 0f b6 35 1a 63 2d 	movzx  r14d,BYTE PTR [rip+0x2d631a]        # 2db9c9 <stop_soon>
    56ae:	00 
    56af:	41 80 fe 02          	cmp    r14b,0x2
    56b3:	74 63                	je     5718 <main+0x1eb8>
    56b5:	8b 3d 2d 63 3d 00    	mov    edi,DWORD PTR [rip+0x3d632d]        # 3db9e8 <forksrv_pid>
    56bb:	31 d2                	xor    edx,edx
    56bd:	31 f6                	xor    esi,esi
    56bf:	e8 2c df ff ff       	call   35f0 <waitpid@plt>
    56c4:	85 c0                	test   eax,eax
    56c6:	7e 36                	jle    56fe <main+0x1e9e>
    56c8:	80 3d 62 b9 02 00 00 	cmp    BYTE PTR [rip+0x2b962],0x0        # 31031 <bitmap_changed>
    56cf:	74 05                	je     56d6 <main+0x1e76>
    56d1:	e8 5a 9a 00 00       	call   f130 <write_bitmap.part.0>
    56d6:	66 0f ef d2          	pxor   xmm2,xmm2
    56da:	66 0f ef c0          	pxor   xmm0,xmm0
    56de:	66 0f 28 ca          	movapd xmm1,xmm2
    56e2:	e8 79 92 00 00       	call   e960 <write_stats_file>
    56e7:	80 3d 13 63 3d 00 00 	cmp    BYTE PTR [rip+0x3d6313],0x0        # 3dba01 <auto_changed>
    56ee:	0f 84 d6 fe ff ff    	je     55ca <main+0x1d6a>
    56f4:	e8 27 43 00 00       	call   9a20 <save_auto.part.0>
    56f9:	e9 cc fe ff ff       	jmp    55ca <main+0x1d6a>
    56fe:	48 8d 3d 8b 1a 02 00 	lea    rdi,[rip+0x21a8b]        # 27190 <_IO_stdin_used+0x8190>
    5705:	e8 46 da ff ff       	call   3150 <puts@plt>
    570a:	48 8b bd 58 fe ff ff 	mov    rdi,QWORD PTR [rbp-0x1a8]
    5711:	e8 3a da ff ff       	call   3150 <puts@plt>
    5716:	eb b0                	jmp    56c8 <main+0x1e68>
    5718:	8b 3d 06 b9 02 00    	mov    edi,DWORD PTR [rip+0x2b906]        # 31024 <child_pid>
    571e:	85 ff                	test   edi,edi
    5720:	7e 0a                	jle    572c <main+0x1ecc>
    5722:	be 09 00 00 00       	mov    esi,0x9
    5727:	e8 44 dd ff ff       	call   3470 <kill@plt>
    572c:	8b 3d b6 62 3d 00    	mov    edi,DWORD PTR [rip+0x3d62b6]        # 3db9e8 <forksrv_pid>
    5732:	85 ff                	test   edi,edi
    5734:	7e 85                	jle    56bb <main+0x1e5b>
    5736:	be 09 00 00 00       	mov    esi,0x9
    573b:	e8 30 dd ff ff       	call   3470 <kill@plt>
    5740:	e9 70 ff ff ff       	jmp    56b5 <main+0x1e55>
    5745:	41 8b 7c 24 fc       	mov    edi,DWORD PTR [r12-0x4]
    574a:	41 80 3c 3c f0       	cmp    BYTE PTR [r12+rdi*1],0xf0
    574f:	75 23                	jne    5774 <main+0x1f14>
    5751:	41 c7 44 24 f8 00 fe 	mov    DWORD PTR [r12-0x8],0xfe00fe00
    5758:	00 fe 
    575a:	49 8d 7c 24 f8       	lea    rdi,[r12-0x8]
    575f:	e8 0c d9 ff ff       	call   3070 <free@plt>
    5764:	48 8b 3d d5 5e 0d 00 	mov    rdi,QWORD PTR [rip+0xd5ed5]        # db640 <extras>
    576b:	41 83 c6 01          	add    r14d,0x1
    576f:	e9 da fe ff ff       	jmp    564e <main+0x1dee>
    5774:	e8 57 3a 00 00       	call   91d0 <DFL_ck_free.part.0>
    5779:	e8 a2 3a 00 00       	call   9220 <DFL_ck_free>
    577e:	48 8b 3d ab 5e 0d 00 	mov    rdi,QWORD PTR [rip+0xd5eab]        # db630 <a_extras>
    5785:	45 31 ff             	xor    r15d,r15d
    5788:	44 3b 3d 99 5e 0d 00 	cmp    r15d,DWORD PTR [rip+0xd5e99]        # db628 <a_extras_cnt>
    578f:	0f 83 ff e3 ff ff    	jae    3b94 <main+0x334>
    5795:	45 89 f9             	mov    r9d,r15d
    5798:	49 c1 e1 04          	shl    r9,0x4
    579c:	4e 8b 14 0f          	mov    r10,QWORD PTR [rdi+r9*1]
    57a0:	4d 85 d2             	test   r10,r10
    57a3:	74 34                	je     57d9 <main+0x1f79>
    57a5:	45 8b 5a f8          	mov    r11d,DWORD PTR [r10-0x8]
    57a9:	41 81 fb 00 ff 00 ff 	cmp    r11d,0xff00ff00
    57b0:	0f 85 cb fe ff ff    	jne    5681 <main+0x1e21>
    57b6:	45 8b 6a fc          	mov    r13d,DWORD PTR [r10-0x4]
    57ba:	43 80 3c 2a f0       	cmp    BYTE PTR [r10+r13*1],0xf0
    57bf:	75 b3                	jne    5774 <main+0x1f14>
    57c1:	41 c7 42 f8 00 fe 00 	mov    DWORD PTR [r10-0x8],0xfe00fe00
    57c8:	fe 
    57c9:	49 8d 7a f8          	lea    rdi,[r10-0x8]
    57cd:	e8 9e d8 ff ff       	call   3070 <free@plt>
    57d2:	48 8b 3d 57 5e 0d 00 	mov    rdi,QWORD PTR [rip+0xd5e57]        # db630 <a_extras>
    57d9:	41 83 c7 01          	add    r15d,0x1
    57dd:	eb a9                	jmp    5788 <main+0x1f28>
    57df:	48 8b bd 48 fe ff ff 	mov    rdi,QWORD PTR [rbp-0x1b8]
    57e6:	4c 89 ee             	mov    rsi,r13
    57e9:	e8 f2 da ff ff       	call   32e0 <gettimeofday@plt>
    57ee:	48 8b 85 98 fe ff ff 	mov    rax,QWORD PTR [rbp-0x168]
    57f5:	be e8 03 00 00       	mov    esi,0x3e8
    57fa:	4c 69 85 90 fe ff ff 	imul   r8,QWORD PTR [rbp-0x170],0x3e8
    5801:	e8 03 00 00 
    5805:	48 99                	cqo    
    5807:	48 f7 fe             	idiv   rsi
    580a:	4c 01 c0             	add    rax,r8
    580d:	48 2b 05 3c 61 2d 00 	sub    rax,QWORD PTR [rip+0x2d613c]        # 2db950 <start_time>
    5814:	48 3d 40 77 1b 00    	cmp    rax,0x1b7740
    581a:	0f 86 e9 fd ff ff    	jbe    5609 <main+0x1da9>
    5820:	48 8b 15 01 62 3d 00 	mov    rdx,QWORD PTR [rip+0x3d6201]        # 3dba28 <doc_path>
    5827:	48 8d 35 c2 19 02 00 	lea    rsi,[rip+0x219c2]        # 271f0 <_IO_stdin_used+0x81f0>
    582e:	bf 01 00 00 00       	mov    edi,0x1
    5833:	31 c0                	xor    eax,eax
    5835:	e8 56 dd ff ff       	call   3590 <__printf_chk@plt>
    583a:	e9 ca fd ff ff       	jmp    5609 <main+0x1da9>
    583f:	4c 8b 0d 0a 62 3d 00 	mov    r9,QWORD PTR [rip+0x3d620a]        # 3dba50 <out_dir>
    5846:	48 83 c9 ff          	or     rcx,0xffffffffffffffff
    584a:	31 f6                	xor    esi,esi
    584c:	31 ff                	xor    edi,edi
    584e:	4c 8d 05 c1 99 01 00 	lea    r8,[rip+0x199c1]        # 1f216 <_IO_stdin_used+0x216>
    5855:	ba 01 00 00 00       	mov    edx,0x1
    585a:	31 c0                	xor    eax,eax
    585c:	e8 ef d7 ff ff       	call   3050 <__snprintf_chk@plt>
    5861:	89 c3                	mov    ebx,eax
    5863:	85 c0                	test   eax,eax
    5865:	0f 88 21 01 00 00    	js     598c <main+0x212c>
    586b:	83 c3 01             	add    ebx,0x1
    586e:	89 df                	mov    edi,ebx
    5870:	e8 ab 47 00 00       	call   a020 <DFL_ck_alloc>
    5875:	4c 8b 0d d4 61 3d 00 	mov    r9,QWORD PTR [rip+0x3d61d4]        # 3dba50 <out_dir>
    587c:	48 63 f3             	movsxd rsi,ebx
    587f:	48 83 c9 ff          	or     rcx,0xffffffffffffffff
    5883:	49 89 c4             	mov    r12,rax
    5886:	4c 8d 05 89 99 01 00 	lea    r8,[rip+0x19989]        # 1f216 <_IO_stdin_used+0x216>
    588d:	ba 01 00 00 00       	mov    edx,0x1
    5892:	48 89 c7             	mov    rdi,rax
    5895:	31 c0                	xor    eax,eax
    5897:	e8 b4 d7 ff ff       	call   3050 <__snprintf_chk@plt>
    589c:	4c 89 e7             	mov    rdi,r12
    589f:	e8 3c d8 ff ff       	call   30e0 <unlink@plt>
    58a4:	ba 80 01 00 00       	mov    edx,0x180
    58a9:	4c 89 e7             	mov    rdi,r12
    58ac:	31 c0                	xor    eax,eax
    58ae:	be c2 00 00 00       	mov    esi,0xc2
    58b3:	e8 f8 dc ff ff       	call   35b0 <open64@plt>
    58b8:	89 05 36 61 3d 00    	mov    DWORD PTR [rip+0x3d6136],eax        # 3db9f4 <out_fd>
    58be:	85 c0                	test   eax,eax
    58c0:	0f 88 8b 00 00 00    	js     5951 <main+0x20f1>
    58c6:	4c 89 e7             	mov    rdi,r12
    58c9:	e8 52 39 00 00       	call   9220 <DFL_ck_free>
    58ce:	e9 e4 f6 ff ff       	jmp    4fb7 <main+0x1757>
    58d3:	48 8d 35 26 b1 01 00 	lea    rsi,[rip+0x1b126]        # 20a00 <_IO_stdin_used+0x1a00>
    58da:	bf 01 00 00 00       	mov    edi,0x1
    58df:	31 c0                	xor    eax,eax
    58e1:	e8 aa dc ff ff       	call   3590 <__printf_chk@plt>
    58e6:	41 b8 17 0d 00 00    	mov    r8d,0xd17
    58ec:	48 8d 0d 51 98 01 00 	lea    rcx,[rip+0x19851]        # 1f144 <_IO_stdin_used+0x144>
    58f3:	48 8d 15 d6 1c 02 00 	lea    rdx,[rip+0x21cd6]        # 275d0 <__FUNCTION__.37>
    58fa:	e9 a0 e4 ff ff       	jmp    3d9f <main+0x53f>
    58ff:	4c 8b 0d 5a 61 3d 00 	mov    r9,QWORD PTR [rip+0x3d615a]        # 3dba60 <in_dir>
    5906:	48 83 c9 ff          	or     rcx,0xffffffffffffffff
    590a:	31 f6                	xor    esi,esi
    590c:	31 ff                	xor    edi,edi
    590e:	4c 8d 05 68 a0 01 00 	lea    r8,[rip+0x1a068]        # 1f97d <_IO_stdin_used+0x97d>
    5915:	ba 01 00 00 00       	mov    edx,0x1
    591a:	31 c0                	xor    eax,eax
    591c:	e8 2f d7 ff ff       	call   3050 <__snprintf_chk@plt>
    5921:	41 89 c7             	mov    r15d,eax
    5924:	85 c0                	test   eax,eax
    5926:	0f 88 8c 00 00 00    	js     59b8 <main+0x2158>
    592c:	41 83 c7 01          	add    r15d,0x1
    5930:	44 89 ff             	mov    edi,r15d
    5933:	e8 e8 46 00 00       	call   a020 <DFL_ck_alloc>
    5938:	4c 8b 0d 21 61 3d 00 	mov    r9,QWORD PTR [rip+0x3d6121]        # 3dba60 <in_dir>
    593f:	49 63 f7             	movsxd rsi,r15d
    5942:	4c 8d 05 34 a0 01 00 	lea    r8,[rip+0x1a034]        # 1f97d <_IO_stdin_used+0x97d>
    5949:	49 89 c6             	mov    r14,rax
    594c:	e9 5c f7 ff ff       	jmp    50ad <main+0x184d>
    5951:	48 8b 3d 28 b7 02 00 	mov    rdi,QWORD PTR [rip+0x2b728]        # 31080 <stdout@GLIBC_2.2.5>
    5958:	e8 b3 db ff ff       	call   3510 <fflush@plt>
    595d:	4c 89 e2             	mov    rdx,r12
    5960:	bf 01 00 00 00       	mov    edi,0x1
    5965:	31 c0                	xor    eax,eax
    5967:	48 8d 35 62 aa 01 00 	lea    rsi,[rip+0x1aa62]        # 203d0 <_IO_stdin_used+0x13d0>
    596e:	e8 1d dc ff ff       	call   3590 <__printf_chk@plt>
    5973:	41 b8 6b 1c 00 00    	mov    r8d,0x1c6b
    5979:	48 8d 0d c4 97 01 00 	lea    rcx,[rip+0x197c4]        # 1f144 <_IO_stdin_used+0x144>
    5980:	48 8d 15 f9 1c 02 00 	lea    rdx,[rip+0x21cf9]        # 27680 <__FUNCTION__.52>
    5987:	e9 e9 e4 ff ff       	jmp    3e75 <main+0x615>
    598c:	48 8d 35 6d b0 01 00 	lea    rsi,[rip+0x1b06d]        # 20a00 <_IO_stdin_used+0x1a00>
    5993:	bf 01 00 00 00       	mov    edi,0x1
    5998:	31 c0                	xor    eax,eax
    599a:	e8 f1 db ff ff       	call   3590 <__printf_chk@plt>
    599f:	41 b8 65 1c 00 00    	mov    r8d,0x1c65
    59a5:	48 8d 0d 98 97 01 00 	lea    rcx,[rip+0x19798]        # 1f144 <_IO_stdin_used+0x144>
    59ac:	48 8d 15 cd 1c 02 00 	lea    rdx,[rip+0x21ccd]        # 27680 <__FUNCTION__.52>
    59b3:	e9 e7 e3 ff ff       	jmp    3d9f <main+0x53f>
    59b8:	48 8d 35 41 b0 01 00 	lea    rsi,[rip+0x1b041]        # 20a00 <_IO_stdin_used+0x1a00>
    59bf:	bf 01 00 00 00       	mov    edi,0x1
    59c4:	31 c0                	xor    eax,eax
    59c6:	e8 c5 db ff ff       	call   3590 <__printf_chk@plt>
    59cb:	41 b8 18 0d 00 00    	mov    r8d,0xd18
    59d1:	48 8d 0d 6c 97 01 00 	lea    rcx,[rip+0x1976c]        # 1f144 <_IO_stdin_used+0x144>
    59d8:	48 8d 15 f1 1b 02 00 	lea    rdx,[rip+0x21bf1]        # 275d0 <__FUNCTION__.37>
    59df:	e9 bb e3 ff ff       	jmp    3d9f <main+0x53f>
    59e4:	48 8d 3d 25 15 02 00 	lea    rdi,[rip+0x21525]        # 26f10 <_IO_stdin_used+0x7f10>
    59eb:	e8 60 d7 ff ff       	call   3150 <puts@plt>
    59f0:	48 8d 35 11 17 02 00 	lea    rsi,[rip+0x21711]        # 27108 <_IO_stdin_used+0x8108>
    59f7:	bf 01 00 00 00       	mov    edi,0x1
    59fc:	31 c0                	xor    eax,eax
    59fe:	e8 8d db ff ff       	call   3590 <__printf_chk@plt>
    5a03:	41 b8 33 1e 00 00    	mov    r8d,0x1e33
    5a09:	48 8d 0d 34 97 01 00 	lea    rcx,[rip+0x19734]        # 1f144 <_IO_stdin_used+0x144>
    5a10:	48 8d 15 49 1c 02 00 	lea    rdx,[rip+0x21c49]        # 27660 <__FUNCTION__.50>
    5a17:	e9 83 e3 ff ff       	jmp    3d9f <main+0x53f>
    5a1c:	4c 89 3b             	mov    QWORD PTR [rbx],r15
    5a1f:	4c 89 3d fa 5f 3d 00 	mov    QWORD PTR [rip+0x3d5ffa],r15        # 3dba20 <target_path>
    5a26:	e9 f7 f5 ff ff       	jmp    5022 <main+0x17c2>
    5a2b:	48 8d 35 ce af 01 00 	lea    rsi,[rip+0x1afce]        # 20a00 <_IO_stdin_used+0x1a00>
    5a32:	bf 01 00 00 00       	mov    edi,0x1
    5a37:	31 c0                	xor    eax,eax
    5a39:	e8 52 db ff ff       	call   3590 <__printf_chk@plt>
    5a3e:	41 b8 16 1e 00 00    	mov    r8d,0x1e16
    5a44:	48 8d 0d f9 96 01 00 	lea    rcx,[rip+0x196f9]        # 1f144 <_IO_stdin_used+0x144>
    5a4b:	48 8d 15 0e 1c 02 00 	lea    rdx,[rip+0x21c0e]        # 27660 <__FUNCTION__.50>
    5a52:	e9 48 e3 ff ff       	jmp    3d9f <main+0x53f>
    5a57:	4c 89 e7             	mov    rdi,r12
    5a5a:	e8 c1 37 00 00       	call   9220 <DFL_ck_free>
    5a5f:	e9 0e fb ff ff       	jmp    5572 <main+0x1d12>
    5a64:	44 89 c2             	mov    edx,r8d
    5a67:	48 8d 35 0a a9 01 00 	lea    rsi,[rip+0x1a90a]        # 20378 <_IO_stdin_used+0x1378>
    5a6e:	bf 01 00 00 00       	mov    edi,0x1
    5a73:	e8 18 db ff ff       	call   3590 <__printf_chk@plt>
    5a78:	41 b8 74 00 00 00    	mov    r8d,0x74
    5a7e:	48 8d 0d b3 96 01 00 	lea    rcx,[rip+0x196b3]        # 1f138 <_IO_stdin_used+0x138>
    5a85:	48 8d 15 e4 1d 02 00 	lea    rdx,[rip+0x21de4]        # 27870 <__FUNCTION__.79>
    5a8c:	e9 ca f3 ff ff       	jmp    4e5b <main+0x15fb>
    5a91:	48 8d 35 c8 ad 01 00 	lea    rsi,[rip+0x1adc8]        # 20860 <_IO_stdin_used+0x1860>
    5a98:	e9 9e f3 ff ff       	jmp    4e3b <main+0x15db>
    5a9d:	89 ca                	mov    edx,ecx
    5a9f:	48 8d 35 52 a8 01 00 	lea    rsi,[rip+0x1a852]        # 202f8 <_IO_stdin_used+0x12f8>
    5aa6:	bf 01 00 00 00       	mov    edi,0x1
    5aab:	31 c0                	xor    eax,eax
    5aad:	e8 de da ff ff       	call   3590 <__printf_chk@plt>
    5ab2:	41 b8 72 00 00 00    	mov    r8d,0x72
    5ab8:	48 8d 0d 79 96 01 00 	lea    rcx,[rip+0x19679]        # 1f138 <_IO_stdin_used+0x138>
    5abf:	48 8d 15 aa 1d 02 00 	lea    rdx,[rip+0x21daa]        # 27870 <__FUNCTION__.79>
    5ac6:	e9 90 f3 ff ff       	jmp    4e5b <main+0x15fb>
    5acb:	48 8d 35 2e af 01 00 	lea    rsi,[rip+0x1af2e]        # 20a00 <_IO_stdin_used+0x1a00>
    5ad2:	bf 01 00 00 00       	mov    edi,0x1
    5ad7:	31 c0                	xor    eax,eax
    5ad9:	e8 b2 da ff ff       	call   3590 <__printf_chk@plt>
    5ade:	41 b8 b1 1d 00 00    	mov    r8d,0x1db1
    5ae4:	48 8d 0d 59 96 01 00 	lea    rcx,[rip+0x19659]        # 1f144 <_IO_stdin_used+0x144>
    5aeb:	48 8d 15 ae 1b 02 00 	lea    rdx,[rip+0x21bae]        # 276a0 <__FUNCTION__.53>
    5af2:	e9 a8 e2 ff ff       	jmp    3d9f <main+0x53f>
    5af7:	48 8b 3d 82 b5 02 00 	mov    rdi,QWORD PTR [rip+0x2b582]        # 31080 <stdout@GLIBC_2.2.5>
    5afe:	e8 0d da ff ff       	call   3510 <fflush@plt>
    5b03:	48 8d 35 76 13 02 00 	lea    rsi,[rip+0x21376]        # 26e80 <_IO_stdin_used+0x7e80>
    5b0a:	bf 01 00 00 00       	mov    edi,0x1
    5b0f:	31 c0                	xor    eax,eax
    5b11:	e8 7a da ff ff       	call   3590 <__printf_chk@plt>
    5b16:	41 b8 9a 1d 00 00    	mov    r8d,0x1d9a
    5b1c:	48 8d 0d 21 96 01 00 	lea    rcx,[rip+0x19621]        # 1f144 <_IO_stdin_used+0x144>
    5b23:	48 8d 15 76 1b 02 00 	lea    rdx,[rip+0x21b76]        # 276a0 <__FUNCTION__.53>
    5b2a:	e9 46 e3 ff ff       	jmp    3e75 <main+0x615>
    5b2f:	80 3d d4 5e 3d 00 00 	cmp    BYTE PTR [rip+0x3d5ed4],0x0        # 3dba0a <resuming_fuzz>
    5b36:	0f 84 d6 f0 ff ff    	je     4c12 <main+0x13b2>
    5b3c:	80 3d bf 5e 3d 00 00 	cmp    BYTE PTR [rip+0x3d5ebf],0x0        # 3dba02 <in_place_resume>
    5b43:	0f 84 5c 01 00 00    	je     5ca5 <main+0x2445>
    5b49:	4c 8b 0d 00 5f 3d 00 	mov    r9,QWORD PTR [rip+0x3d5f00]        # 3dba50 <out_dir>
    5b50:	48 83 c9 ff          	or     rcx,0xffffffffffffffff
    5b54:	31 f6                	xor    esi,esi
    5b56:	31 ff                	xor    edi,edi
    5b58:	4c 8d 05 31 96 01 00 	lea    r8,[rip+0x19631]        # 1f190 <_IO_stdin_used+0x190>
    5b5f:	ba 01 00 00 00       	mov    edx,0x1
    5b64:	31 c0                	xor    eax,eax
    5b66:	e8 e5 d4 ff ff       	call   3050 <__snprintf_chk@plt>
    5b6b:	89 c3                	mov    ebx,eax
    5b6d:	85 c0                	test   eax,eax
    5b6f:	0f 88 04 01 00 00    	js     5c79 <main+0x2419>
    5b75:	83 c3 01             	add    ebx,0x1
    5b78:	89 df                	mov    edi,ebx
    5b7a:	e8 a1 44 00 00       	call   a020 <DFL_ck_alloc>
    5b7f:	4c 8b 0d ca 5e 3d 00 	mov    r9,QWORD PTR [rip+0x3d5eca]        # 3dba50 <out_dir>
    5b86:	48 63 f3             	movsxd rsi,ebx
    5b89:	4c 8d 05 00 96 01 00 	lea    r8,[rip+0x19600]        # 1f190 <_IO_stdin_used+0x190>
    5b90:	49 89 c4             	mov    r12,rax
    5b93:	48 83 c9 ff          	or     rcx,0xffffffffffffffff
    5b97:	ba 01 00 00 00       	mov    edx,0x1
    5b9c:	4c 89 e7             	mov    rdi,r12
    5b9f:	31 c0                	xor    eax,eax
    5ba1:	e8 aa d4 ff ff       	call   3050 <__snprintf_chk@plt>
    5ba6:	31 f6                	xor    esi,esi
    5ba8:	4c 89 e7             	mov    rdi,r12
    5bab:	31 c0                	xor    eax,eax
    5bad:	e8 fe d9 ff ff       	call   35b0 <open64@plt>
    5bb2:	4c 89 e7             	mov    rdi,r12
    5bb5:	41 89 c5             	mov    r13d,eax
    5bb8:	e8 63 36 00 00       	call   9220 <DFL_ck_free>
    5bbd:	45 85 ed             	test   r13d,r13d
    5bc0:	0f 88 4c f0 ff ff    	js     4c12 <main+0x13b2>
    5bc6:	4c 8d 25 73 49 0b 00 	lea    r12,[rip+0xb4973]        # ba540 <tmp.54>
    5bcd:	ba ff 0f 00 00       	mov    edx,0xfff
    5bd2:	44 89 ef             	mov    edi,r13d
    5bd5:	4c 89 e6             	mov    rsi,r12
    5bd8:	e8 b3 d7 ff ff       	call   3390 <read@plt>
    5bdd:	44 89 ef             	mov    edi,r13d
    5be0:	e8 4b d7 ff ff       	call   3330 <close@plt>
    5be5:	48 8d 35 a4 9d 01 00 	lea    rsi,[rip+0x19da4]        # 1f990 <_IO_stdin_used+0x990>
    5bec:	4c 89 e7             	mov    rdi,r12
    5bef:	e8 cc db ff ff       	call   37c0 <strstr@plt>
    5bf4:	48 85 c0             	test   rax,rax
    5bf7:	0f 84 15 f0 ff ff    	je     4c12 <main+0x13b2>
    5bfd:	31 f6                	xor    esi,esi
    5bff:	48 8d 78 14          	lea    rdi,[rax+0x14]
    5c03:	ba 0a 00 00 00       	mov    edx,0xa
    5c08:	e8 33 d8 ff ff       	call   3440 <strtol@plt>
    5c0d:	83 f8 04             	cmp    eax,0x4
    5c10:	0f 86 fc ef ff ff    	jbe    4c12 <main+0x13b2>
    5c16:	89 05 28 b4 02 00    	mov    DWORD PTR [rip+0x2b428],eax        # 31044 <exec_tmout>
    5c1c:	c6 05 e6 5d 3d 00 03 	mov    BYTE PTR [rip+0x3d5de6],0x3        # 3dba09 <timeout_given>
    5c23:	e9 ea ef ff ff       	jmp    4c12 <main+0x13b2>
    5c28:	ba 01 00 00 00       	mov    edx,0x1
    5c2d:	4c 89 e6             	mov    rsi,r12
    5c30:	48 8d 3d 0f 97 01 00 	lea    rdi,[rip+0x1970f]        # 1f346 <_IO_stdin_used+0x346>
    5c37:	e8 54 d5 ff ff       	call   3190 <setenv@plt>
    5c3c:	e9 f3 ed ff ff       	jmp    4a34 <main+0x11d4>
    5c41:	48 8b 3d 38 b4 02 00 	mov    rdi,QWORD PTR [rip+0x2b438]        # 31080 <stdout@GLIBC_2.2.5>
    5c48:	e8 c3 d8 ff ff       	call   3510 <fflush@plt>
    5c4d:	48 8d 35 a4 11 02 00 	lea    rsi,[rip+0x211a4]        # 26df8 <_IO_stdin_used+0x7df8>
    5c54:	bf 01 00 00 00       	mov    edi,0x1
    5c59:	31 c0                	xor    eax,eax
    5c5b:	e8 30 d9 ff ff       	call   3590 <__printf_chk@plt>
    5c60:	41 b8 5a 05 00 00    	mov    r8d,0x55a
    5c66:	48 8d 0d d7 94 01 00 	lea    rcx,[rip+0x194d7]        # 1f144 <_IO_stdin_used+0x144>
    5c6d:	48 8d 15 74 1b 02 00 	lea    rdx,[rip+0x21b74]        # 277e8 <__FUNCTION__.73>
    5c74:	e9 fc e1 ff ff       	jmp    3e75 <main+0x615>
    5c79:	48 8d 35 80 ad 01 00 	lea    rsi,[rip+0x1ad80]        # 20a00 <_IO_stdin_used+0x1a00>
    5c80:	bf 01 00 00 00       	mov    edi,0x1
    5c85:	31 c0                	xor    eax,eax
    5c87:	e8 04 d9 ff ff       	call   3590 <__printf_chk@plt>
    5c8c:	41 b8 3a 0d 00 00    	mov    r8d,0xd3a
    5c92:	48 8d 0d ab 94 01 00 	lea    rcx,[rip+0x194ab]        # 1f144 <_IO_stdin_used+0x144>
    5c99:	48 8d 15 18 1a 02 00 	lea    rdx,[rip+0x21a18]        # 276b8 <__FUNCTION__.55>
    5ca0:	e9 fa e0 ff ff       	jmp    3d9f <main+0x53f>
    5ca5:	4c 8b 0d b4 5d 3d 00 	mov    r9,QWORD PTR [rip+0x3d5db4]        # 3dba60 <in_dir>
    5cac:	48 83 c9 ff          	or     rcx,0xffffffffffffffff
    5cb0:	31 f6                	xor    esi,esi
    5cb2:	31 ff                	xor    edi,edi
    5cb4:	4c 8d 05 c2 9c 01 00 	lea    r8,[rip+0x19cc2]        # 1f97d <_IO_stdin_used+0x97d>
    5cbb:	ba 01 00 00 00       	mov    edx,0x1
    5cc0:	31 c0                	xor    eax,eax
    5cc2:	e8 89 d3 ff ff       	call   3050 <__snprintf_chk@plt>
    5cc7:	41 89 c5             	mov    r13d,eax
    5cca:	85 c0                	test   eax,eax
    5ccc:	0f 88 c1 02 00 00    	js     5f93 <main+0x2733>
    5cd2:	41 83 c5 01          	add    r13d,0x1
    5cd6:	44 89 ef             	mov    edi,r13d
    5cd9:	e8 42 43 00 00       	call   a020 <DFL_ck_alloc>
    5cde:	4c 8b 0d 7b 5d 3d 00 	mov    r9,QWORD PTR [rip+0x3d5d7b]        # 3dba60 <in_dir>
    5ce5:	49 63 f5             	movsxd rsi,r13d
    5ce8:	4c 8d 05 8e 9c 01 00 	lea    r8,[rip+0x19c8e]        # 1f97d <_IO_stdin_used+0x97d>
    5cef:	49 89 c4             	mov    r12,rax
    5cf2:	e9 9c fe ff ff       	jmp    5b93 <main+0x2333>
    5cf7:	ba 00 00 04 00       	mov    edx,0x40000
    5cfc:	be ff 00 00 00       	mov    esi,0xff
    5d01:	48 8d 3d d8 5c 39 00 	lea    rdi,[rip+0x395cd8]        # 39b9e0 <virgin_bits>
    5d08:	e8 f3 d5 ff ff       	call   3300 <memset@plt>
    5d0d:	e9 6c ec ff ff       	jmp    497e <main+0x111e>
    5d12:	48 8b 3d 67 b3 02 00 	mov    rdi,QWORD PTR [rip+0x2b367]        # 31080 <stdout@GLIBC_2.2.5>
    5d19:	e8 f2 d7 ff ff       	call   3510 <fflush@plt>
    5d1e:	48 8d 35 1b 11 02 00 	lea    rsi,[rip+0x2111b]        # 26e40 <_IO_stdin_used+0x7e40>
    5d25:	bf 01 00 00 00       	mov    edi,0x1
    5d2a:	31 c0                	xor    eax,eax
    5d2c:	e8 5f d8 ff ff       	call   3590 <__printf_chk@plt>
    5d31:	41 b8 6b 05 00 00    	mov    r8d,0x56b
    5d37:	48 8d 0d 06 94 01 00 	lea    rcx,[rip+0x19406]        # 1f144 <_IO_stdin_used+0x144>
    5d3e:	48 8d 15 a3 1a 02 00 	lea    rdx,[rip+0x21aa3]        # 277e8 <__FUNCTION__.73>
    5d45:	e9 2b e1 ff ff       	jmp    3e75 <main+0x615>
    5d4a:	44 89 ea             	mov    edx,r13d
    5d4d:	e9 15 fd ff ff       	jmp    5a67 <main+0x2207>
    5d52:	44 89 ea             	mov    edx,r13d
    5d55:	e9 45 fd ff ff       	jmp    5a9f <main+0x223f>
    5d5a:	48 8d 35 9f ac 01 00 	lea    rsi,[rip+0x1ac9f]        # 20a00 <_IO_stdin_used+0x1a00>
    5d61:	bf 01 00 00 00       	mov    edi,0x1
    5d66:	31 c0                	xor    eax,eax
    5d68:	e8 23 d8 ff ff       	call   3590 <__printf_chk@plt>
    5d6d:	41 b8 ac 1d 00 00    	mov    r8d,0x1dac
    5d73:	48 8d 0d ca 93 01 00 	lea    rcx,[rip+0x193ca]        # 1f144 <_IO_stdin_used+0x144>
    5d7a:	48 8d 15 1f 19 02 00 	lea    rdx,[rip+0x2191f]        # 276a0 <__FUNCTION__.53>
    5d81:	e9 19 e0 ff ff       	jmp    3d9f <main+0x53f>
    5d86:	48 8d 35 db 0f 02 00 	lea    rsi,[rip+0x20fdb]        # 26d68 <_IO_stdin_used+0x7d68>
    5d8d:	bf 01 00 00 00       	mov    edi,0x1
    5d92:	e8 f9 d7 ff ff       	call   3590 <__printf_chk@plt>
    5d97:	41 b8 80 05 00 00    	mov    r8d,0x580
    5d9d:	48 8d 0d a0 93 01 00 	lea    rcx,[rip+0x193a0]        # 1f144 <_IO_stdin_used+0x144>
    5da4:	48 8d 15 4d 1a 02 00 	lea    rdx,[rip+0x21a4d]        # 277f8 <__FUNCTION__.74>
    5dab:	e9 ef df ff ff       	jmp    3d9f <main+0x53f>
    5db0:	e8 ab d2 ff ff       	call   3060 <dlerror@plt>
    5db5:	48 8d 35 74 0f 02 00 	lea    rsi,[rip+0x20f74]        # 26d30 <_IO_stdin_used+0x7d30>
    5dbc:	bf 01 00 00 00       	mov    edi,0x1
    5dc1:	48 89 c2             	mov    rdx,rax
    5dc4:	31 c0                	xor    eax,eax
    5dc6:	e8 c5 d7 ff ff       	call   3590 <__printf_chk@plt>
    5dcb:	41 b8 7d 05 00 00    	mov    r8d,0x57d
    5dd1:	48 8d 0d 6c 93 01 00 	lea    rcx,[rip+0x1936c]        # 1f144 <_IO_stdin_used+0x144>
    5dd8:	48 8d 15 19 1a 02 00 	lea    rdx,[rip+0x21a19]        # 277f8 <__FUNCTION__.74>
    5ddf:	e9 bb df ff ff       	jmp    3d9f <main+0x53f>
    5de4:	4c 8d 25 25 9a 01 00 	lea    r12,[rip+0x19a25]        # 1f810 <_IO_stdin_used+0x810>
    5deb:	48 8d 3d 26 0b 02 00 	lea    rdi,[rip+0x20b26]        # 26918 <_IO_stdin_used+0x7918>
    5df2:	4c 89 e6             	mov    rsi,r12
    5df5:	e8 36 d6 ff ff       	call   3430 <fopen64@plt>
    5dfa:	49 89 c5             	mov    r13,rax
    5dfd:	48 85 c0             	test   rax,rax
    5e00:	0f 84 c2 ea ff ff    	je     48c8 <main+0x1068>
    5e06:	48 8d 35 43 0b 02 00 	lea    rsi,[rip+0x20b43]        # 26950 <_IO_stdin_used+0x7950>
    5e0d:	bf 01 00 00 00       	mov    edi,0x1
    5e12:	31 c0                	xor    eax,eax
    5e14:	e8 77 d7 ff ff       	call   3590 <__printf_chk@plt>
    5e19:	48 8b bd 58 fe ff ff 	mov    rdi,QWORD PTR [rbp-0x1a8]
    5e20:	48 8d 9d 40 ff ff ff 	lea    rbx,[rbp-0xc0]
    5e27:	e8 24 d3 ff ff       	call   3150 <puts@plt>
    5e2c:	4c 89 ea             	mov    rdx,r13
    5e2f:	be 80 00 00 00       	mov    esi,0x80
    5e34:	48 89 df             	mov    rdi,rbx
    5e37:	e8 74 d5 ff ff       	call   33b0 <fgets@plt>
    5e3c:	48 85 c0             	test   rax,rax
    5e3f:	0f 84 16 01 00 00    	je     5f5b <main+0x26fb>
    5e45:	4c 89 ef             	mov    rdi,r13
    5e48:	e8 b3 d3 ff ff       	call   3200 <fclose@plt>
    5e4d:	ba 04 00 00 00       	mov    edx,0x4
    5e52:	48 8d 35 f8 9a 01 00 	lea    rsi,[rip+0x19af8]        # 1f951 <_IO_stdin_used+0x951>
    5e59:	48 89 df             	mov    rdi,rbx
    5e5c:	e8 8f d2 ff ff       	call   30f0 <strncmp@plt>
    5e61:	85 c0                	test   eax,eax
    5e63:	0f 84 5f ea ff ff    	je     48c8 <main+0x1068>
    5e69:	4c 89 e6             	mov    rsi,r12
    5e6c:	48 8d 3d 4d 0b 02 00 	lea    rdi,[rip+0x20b4d]        # 269c0 <_IO_stdin_used+0x79c0>
    5e73:	e8 b8 d5 ff ff       	call   3430 <fopen64@plt>
    5e78:	49 89 c5             	mov    r13,rax
    5e7b:	48 85 c0             	test   rax,rax
    5e7e:	74 30                	je     5eb0 <main+0x2650>
    5e80:	48 89 c7             	mov    rdi,rax
    5e83:	48 8d 95 78 fe ff ff 	lea    rdx,[rbp-0x188]
    5e8a:	31 c0                	xor    eax,eax
    5e8c:	48 8d 35 9a 91 01 00 	lea    rsi,[rip+0x1919a]        # 1f02d <_IO_stdin_used+0x2d>
    5e93:	e8 68 d2 ff ff       	call   3100 <__isoc99_fscanf@plt>
    5e98:	83 e8 01             	sub    eax,0x1
    5e9b:	74 0b                	je     5ea8 <main+0x2648>
    5e9d:	48 c7 85 78 fe ff ff 	mov    QWORD PTR [rbp-0x188],0x0
    5ea4:	00 00 00 00 
    5ea8:	4c 89 ef             	mov    rdi,r13
    5eab:	e8 50 d3 ff ff       	call   3200 <fclose@plt>
    5eb0:	4c 89 e6             	mov    rsi,r12
    5eb3:	48 8d 3d 3e 0b 02 00 	lea    rdi,[rip+0x20b3e]        # 269f8 <_IO_stdin_used+0x79f8>
    5eba:	e8 71 d5 ff ff       	call   3430 <fopen64@plt>
    5ebf:	49 89 c4             	mov    r12,rax
    5ec2:	48 85 c0             	test   rax,rax
    5ec5:	74 30                	je     5ef7 <main+0x2697>
    5ec7:	48 89 c7             	mov    rdi,rax
    5eca:	48 8d 95 90 fe ff ff 	lea    rdx,[rbp-0x170]
    5ed1:	31 c0                	xor    eax,eax
    5ed3:	48 8d 35 53 91 01 00 	lea    rsi,[rip+0x19153]        # 1f02d <_IO_stdin_used+0x2d>
    5eda:	e8 21 d2 ff ff       	call   3100 <__isoc99_fscanf@plt>
    5edf:	83 e8 01             	sub    eax,0x1
    5ee2:	74 0b                	je     5eef <main+0x268f>
    5ee4:	48 c7 85 90 fe ff ff 	mov    QWORD PTR [rbp-0x170],0x0
    5eeb:	00 00 00 00 
    5eef:	4c 89 e7             	mov    rdi,r12
    5ef2:	e8 09 d3 ff ff       	call   3200 <fclose@plt>
    5ef7:	4c 8b 8d 78 fe ff ff 	mov    r9,QWORD PTR [rbp-0x188]
    5efe:	4c 8b 95 90 fe ff ff 	mov    r10,QWORD PTR [rbp-0x170]
    5f05:	4d 39 d1             	cmp    r9,r10
    5f08:	0f 84 ba e9 ff ff    	je     48c8 <main+0x1068>
    5f0e:	4c 89 d1             	mov    rcx,r10
    5f11:	49 c1 e9 0a          	shr    r9,0xa
    5f15:	48 8d 35 14 0b 02 00 	lea    rsi,[rip+0x20b14]        # 26a30 <_IO_stdin_used+0x7a30>
    5f1c:	31 c0                	xor    eax,eax
    5f1e:	48 c1 e9 0a          	shr    rcx,0xa
    5f22:	4c 89 ca             	mov    rdx,r9
    5f25:	bf 01 00 00 00       	mov    edi,0x1
    5f2a:	e8 61 d6 ff ff       	call   3590 <__printf_chk@plt>
    5f2f:	48 8d 35 6a 0d 02 00 	lea    rsi,[rip+0x20d6a]        # 26ca0 <_IO_stdin_used+0x7ca0>
    5f36:	bf 01 00 00 00       	mov    edi,0x1
    5f3b:	31 c0                	xor    eax,eax
    5f3d:	e8 4e d6 ff ff       	call   3590 <__printf_chk@plt>
    5f42:	41 b8 e7 1c 00 00    	mov    r8d,0x1ce7
    5f48:	48 8d 0d f5 91 01 00 	lea    rcx,[rip+0x191f5]        # 1f144 <_IO_stdin_used+0x144>
    5f4f:	48 8d 15 ba 18 02 00 	lea    rdx,[rip+0x218ba]        # 27810 <__FUNCTION__.75>
    5f56:	e9 44 de ff ff       	jmp    3d9f <main+0x53f>
    5f5b:	48 8b 3d 1e b1 02 00 	mov    rdi,QWORD PTR [rip+0x2b11e]        # 31080 <stdout@GLIBC_2.2.5>
    5f62:	e8 a9 d5 ff ff       	call   3510 <fflush@plt>
    5f67:	48 8d 35 12 0a 02 00 	lea    rsi,[rip+0x20a12]        # 26980 <_IO_stdin_used+0x7980>
    5f6e:	bf 01 00 00 00       	mov    edi,0x1
    5f73:	31 c0                	xor    eax,eax
    5f75:	e8 16 d6 ff ff       	call   3590 <__printf_chk@plt>
    5f7a:	41 b8 c3 1c 00 00    	mov    r8d,0x1cc3
    5f80:	48 8d 0d bd 91 01 00 	lea    rcx,[rip+0x191bd]        # 1f144 <_IO_stdin_used+0x144>
    5f87:	48 8d 15 82 18 02 00 	lea    rdx,[rip+0x21882]        # 27810 <__FUNCTION__.75>
    5f8e:	e9 e2 de ff ff       	jmp    3e75 <main+0x615>
    5f93:	48 8d 35 66 aa 01 00 	lea    rsi,[rip+0x1aa66]        # 20a00 <_IO_stdin_used+0x1a00>
    5f9a:	bf 01 00 00 00       	mov    edi,0x1
    5f9f:	31 c0                	xor    eax,eax
    5fa1:	e8 ea d5 ff ff       	call   3590 <__printf_chk@plt>
    5fa6:	41 b8 3b 0d 00 00    	mov    r8d,0xd3b
    5fac:	48 8d 0d 91 91 01 00 	lea    rcx,[rip+0x19191]        # 1f144 <_IO_stdin_used+0x144>
    5fb3:	48 8d 15 fe 16 02 00 	lea    rdx,[rip+0x216fe]        # 276b8 <__FUNCTION__.55>
    5fba:	e9 e0 dd ff ff       	jmp    3d9f <main+0x53f>
    5fbf:	48 8d 35 3a aa 01 00 	lea    rsi,[rip+0x1aa3a]        # 20a00 <_IO_stdin_used+0x1a00>
    5fc6:	bf 01 00 00 00       	mov    edi,0x1
    5fcb:	31 c0                	xor    eax,eax
    5fcd:	e8 be d5 ff ff       	call   3590 <__printf_chk@plt>
    5fd2:	41 b8 60 1d 00 00    	mov    r8d,0x1d60
    5fd8:	48 8d 0d 65 91 01 00 	lea    rcx,[rip+0x19165]        # 1f144 <_IO_stdin_used+0x144>
    5fdf:	48 8d 15 a2 18 02 00 	lea    rdx,[rip+0x218a2]        # 27888 <__FUNCTION__.80>
    5fe6:	e9 b4 dd ff ff       	jmp    3d9f <main+0x53f>
    5feb:	48 8d 35 3e 02 02 00 	lea    rsi,[rip+0x2023e]        # 26230 <_IO_stdin_used+0x7230>
    5ff2:	bf 01 00 00 00       	mov    edi,0x1
    5ff7:	31 c0                	xor    eax,eax
    5ff9:	e8 92 d5 ff ff       	call   3590 <__printf_chk@plt>
    5ffe:	41 b8 5e 1d 00 00    	mov    r8d,0x1d5e
    6004:	48 8d 0d 39 91 01 00 	lea    rcx,[rip+0x19139]        # 1f144 <_IO_stdin_used+0x144>
    600b:	48 8d 15 76 18 02 00 	lea    rdx,[rip+0x21876]        # 27888 <__FUNCTION__.80>
    6012:	e9 88 dd ff ff       	jmp    3d9f <main+0x53f>
    6017:	48 8d 35 aa 01 02 00 	lea    rsi,[rip+0x201aa]        # 261c8 <_IO_stdin_used+0x71c8>
    601e:	bf 01 00 00 00       	mov    edi,0x1
    6023:	31 c0                	xor    eax,eax
    6025:	e8 66 d5 ff ff       	call   3590 <__printf_chk@plt>
    602a:	41 b8 58 1d 00 00    	mov    r8d,0x1d58
    6030:	48 8d 0d 0d 91 01 00 	lea    rcx,[rip+0x1910d]        # 1f144 <_IO_stdin_used+0x144>
    6037:	48 8d 15 4a 18 02 00 	lea    rdx,[rip+0x2184a]        # 27888 <__FUNCTION__.80>
    603e:	e9 5c dd ff ff       	jmp    3d9f <main+0x53f>
    6043:	48 8b 3d 36 b0 02 00 	mov    rdi,QWORD PTR [rip+0x2b036]        # 31080 <stdout@GLIBC_2.2.5>
    604a:	48 89 8d 68 fe ff ff 	mov    QWORD PTR [rbp-0x198],rcx
    6051:	e8 ba d4 ff ff       	call   3510 <fflush@plt>
    6056:	48 8b 95 68 fe ff ff 	mov    rdx,QWORD PTR [rbp-0x198]
    605d:	48 8d 35 64 aa 01 00 	lea    rsi,[rip+0x1aa64]        # 20ac8 <_IO_stdin_used+0x1ac8>
    6064:	31 c0                	xor    eax,eax
    6066:	bf 01 00 00 00       	mov    edi,0x1
    606b:	e8 20 d5 ff ff       	call   3590 <__printf_chk@plt>
    6070:	41 b8 86 03 00 00    	mov    r8d,0x386
    6076:	48 8d 0d c7 90 01 00 	lea    rcx,[rip+0x190c7]        # 1f144 <_IO_stdin_used+0x144>
    607d:	48 8d 15 2c 18 02 00 	lea    rdx,[rip+0x2182c]        # 278b0 <__FUNCTION__.82>
    6084:	e9 ec dd ff ff       	jmp    3e75 <main+0x615>
    6089:	48 8d 35 f8 fe 01 00 	lea    rsi,[rip+0x1fef8]        # 25f88 <_IO_stdin_used+0x6f88>
    6090:	bf 01 00 00 00       	mov    edi,0x1
    6095:	e8 f6 d4 ff ff       	call   3590 <__printf_chk@plt>
    609a:	41 b8 7f 1d 00 00    	mov    r8d,0x1d7f
    60a0:	48 8d 0d 9d 90 01 00 	lea    rcx,[rip+0x1909d]        # 1f144 <_IO_stdin_used+0x144>
    60a7:	48 8d 15 f2 17 02 00 	lea    rdx,[rip+0x217f2]        # 278a0 <__FUNCTION__.81>
    60ae:	e9 ec dc ff ff       	jmp    3d9f <main+0x53f>
    60b3:	48 8d 35 5e fe 01 00 	lea    rsi,[rip+0x1fe5e]        # 25f18 <_IO_stdin_used+0x6f18>
    60ba:	bf 01 00 00 00       	mov    edi,0x1
    60bf:	e8 cc d4 ff ff       	call   3590 <__printf_chk@plt>
    60c4:	41 b8 7c 1d 00 00    	mov    r8d,0x1d7c
    60ca:	48 8d 0d 73 90 01 00 	lea    rcx,[rip+0x19073]        # 1f144 <_IO_stdin_used+0x144>
    60d1:	48 8d 15 c8 17 02 00 	lea    rdx,[rip+0x217c8]        # 278a0 <__FUNCTION__.81>
    60d8:	e9 c2 dc ff ff       	jmp    3d9f <main+0x53f>
    60dd:	48 8d 35 84 ff 01 00 	lea    rsi,[rip+0x1ff84]        # 26068 <_IO_stdin_used+0x7068>
    60e4:	bf 01 00 00 00       	mov    edi,0x1
    60e9:	e8 a2 d4 ff ff       	call   3590 <__printf_chk@plt>
    60ee:	41 b8 8c 1d 00 00    	mov    r8d,0x1d8c
    60f4:	48 8d 0d 49 90 01 00 	lea    rcx,[rip+0x19049]        # 1f144 <_IO_stdin_used+0x144>
    60fb:	48 8d 15 9e 17 02 00 	lea    rdx,[rip+0x2179e]        # 278a0 <__FUNCTION__.81>
    6102:	e9 98 dc ff ff       	jmp    3d9f <main+0x53f>
    6107:	48 8d 35 ea fe 01 00 	lea    rsi,[rip+0x1feea]        # 25ff8 <_IO_stdin_used+0x6ff8>
    610e:	bf 01 00 00 00       	mov    edi,0x1
    6113:	e8 78 d4 ff ff       	call   3590 <__printf_chk@plt>
    6118:	41 b8 88 1d 00 00    	mov    r8d,0x1d88
    611e:	48 8d 0d 1f 90 01 00 	lea    rcx,[rip+0x1901f]        # 1f144 <_IO_stdin_used+0x144>
    6125:	48 8d 15 74 17 02 00 	lea    rdx,[rip+0x21774]        # 278a0 <__FUNCTION__.81>
    612c:	e9 6e dc ff ff       	jmp    3d9f <main+0x53f>
    6131:	48 8d 95 90 fe ff ff 	lea    rdx,[rbp-0x170]
    6138:	be 13 54 00 00       	mov    esi,0x5413
    613d:	bf 01 00 00 00       	mov    edi,0x1
    6142:	31 c0                	xor    eax,eax
    6144:	e8 c7 d1 ff ff       	call   3310 <ioctl@plt>
    6149:	48 8d 0d d4 8f 01 00 	lea    rcx,[rip+0x18fd4]        # 1f124 <_IO_stdin_used+0x124>
    6150:	48 89 8d 58 fe ff ff 	mov    QWORD PTR [rbp-0x1a8],rcx
    6157:	85 c0                	test   eax,eax
    6159:	0f 84 05 e6 ff ff    	je     4764 <main+0xf04>
    615f:	e8 5c cf ff ff       	call   30c0 <__errno_location@plt>
    6164:	83 38 19             	cmp    DWORD PTR [rax],0x19
    6167:	0f 85 f7 e5 ff ff    	jne    4764 <main+0xf04>
    616d:	48 8d 35 7c 03 02 00 	lea    rsi,[rip+0x2037c]        # 264f0 <_IO_stdin_used+0x74f0>
    6174:	bf 01 00 00 00       	mov    edi,0x1
    6179:	31 c0                	xor    eax,eax
    617b:	e8 10 d4 ff ff       	call   3590 <__printf_chk@plt>
    6180:	48 8b bd 58 fe ff ff 	mov    rdi,QWORD PTR [rbp-0x1a8]
    6187:	e8 c4 cf ff ff       	call   3150 <puts@plt>
    618c:	c6 05 74 58 3d 00 01 	mov    BYTE PTR [rip+0x3d5874],0x1        # 3dba07 <not_on_tty>
    6193:	e9 cc e5 ff ff       	jmp    4764 <main+0xf04>
    6198:	bf 2c 00 00 00       	mov    edi,0x2c
    619d:	e8 7e 3e 00 00       	call   a020 <DFL_ck_alloc>
    61a2:	4c 8b 05 8f 58 3d 00 	mov    r8,QWORD PTR [rip+0x3d588f]        # 3dba38 <use_banner>
    61a9:	48 83 ca ff          	or     rdx,0xffffffffffffffff
    61ad:	48 8d 0d 5b 97 01 00 	lea    rcx,[rip+0x1975b]        # 1f90f <_IO_stdin_used+0x90f>
    61b4:	49 89 c4             	mov    r12,rax
    61b7:	48 89 c7             	mov    rdi,rax
    61ba:	be 01 00 00 00       	mov    esi,0x1
    61bf:	31 c0                	xor    eax,eax
    61c1:	e8 7a d6 ff ff       	call   3840 <__sprintf_chk@plt>
    61c6:	4c 89 25 6b 58 3d 00 	mov    QWORD PTR [rip+0x3d586b],r12        # 3dba38 <use_banner>
    61cd:	e9 50 e5 ff ff       	jmp    4722 <main+0xec2>
    61d2:	48 8d 3d d7 04 02 00 	lea    rdi,[rip+0x204d7]        # 266b0 <_IO_stdin_used+0x76b0>
    61d9:	e8 72 cf ff ff       	call   3150 <puts@plt>
    61de:	48 8d 3d ab 06 02 00 	lea    rdi,[rip+0x206ab]        # 26890 <_IO_stdin_used+0x7890>
    61e5:	e8 56 ce ff ff       	call   3040 <getenv@plt>
    61ea:	48 85 c0             	test   rax,rax
    61ed:	0f 85 a3 e6 ff ff    	jne    4896 <main+0x1036>
    61f3:	48 8d 35 be 06 02 00 	lea    rsi,[rip+0x206be]        # 268b8 <_IO_stdin_used+0x78b8>
    61fa:	bf 01 00 00 00       	mov    edi,0x1
    61ff:	e8 8c d3 ff ff       	call   3590 <__printf_chk@plt>
    6204:	41 b8 a9 1c 00 00    	mov    r8d,0x1ca9
    620a:	48 8d 0d 33 8f 01 00 	lea    rcx,[rip+0x18f33]        # 1f144 <_IO_stdin_used+0x144>
    6211:	48 8d 15 18 16 02 00 	lea    rdx,[rip+0x21618]        # 27830 <__FUNCTION__.76>
    6218:	e9 82 db ff ff       	jmp    3d9f <main+0x53f>
    621d:	4c 63 1d 64 ae 02 00 	movsxd r11,DWORD PTR [rip+0x2ae64]        # 31088 <optind@GLIBC_2.2.5>
    6224:	48 8b 1d 15 58 3d 00 	mov    rbx,QWORD PTR [rip+0x3d5815]        # 3dba40 <sync_id>
    622b:	4f 8b 2c d9          	mov    r13,QWORD PTR [r9+r11*8]
    622f:	48 85 db             	test   rbx,rbx
    6232:	74 38                	je     626c <main+0x2a0c>
    6234:	48 89 1d fd 57 3d 00 	mov    QWORD PTR [rip+0x3d57fd],rbx        # 3dba38 <use_banner>
    623b:	e9 cc e4 ff ff       	jmp    470c <main+0xeac>
    6240:	48 8d 35 91 fe 01 00 	lea    rsi,[rip+0x1fe91]        # 260d8 <_IO_stdin_used+0x70d8>
    6247:	bf 01 00 00 00       	mov    edi,0x1
    624c:	31 c0                	xor    eax,eax
    624e:	e8 3d d3 ff ff       	call   3590 <__printf_chk@plt>
    6253:	41 b8 4a 1d 00 00    	mov    r8d,0x1d4a
    6259:	48 8d 0d e4 8e 01 00 	lea    rcx,[rip+0x18ee4]        # 1f144 <_IO_stdin_used+0x144>
    6260:	48 8d 15 21 16 02 00 	lea    rdx,[rip+0x21621]        # 27888 <__FUNCTION__.80>
    6267:	e9 33 db ff ff       	jmp    3d9f <main+0x53f>
    626c:	be 2f 00 00 00       	mov    esi,0x2f
    6271:	4c 89 ef             	mov    rdi,r13
    6274:	4c 89 eb             	mov    rbx,r13
    6277:	e8 44 d0 ff ff       	call   32c0 <strrchr@plt>
    627c:	48 8d 50 01          	lea    rdx,[rax+0x1]
    6280:	48 85 c0             	test   rax,rax
    6283:	48 0f 45 da          	cmovne rbx,rdx
    6287:	eb ab                	jmp    6234 <main+0x29d4>
    6289:	44 89 ef             	mov    edi,r13d
    628c:	e8 ef 2d 00 00       	call   9080 <DFL_ck_alloc_nozero.part.0>
    6291:	48 8d 35 68 a7 01 00 	lea    rsi,[rip+0x1a768]        # 20a00 <_IO_stdin_used+0x1a00>
    6298:	bf 01 00 00 00       	mov    edi,0x1
    629d:	31 c0                	xor    eax,eax
    629f:	e8 ec d2 ff ff       	call   3590 <__printf_chk@plt>
    62a4:	41 b8 a7 1d 00 00    	mov    r8d,0x1da7
    62aa:	48 8d 0d 93 8e 01 00 	lea    rcx,[rip+0x18e93]        # 1f144 <_IO_stdin_used+0x144>
    62b1:	48 8d 15 e8 13 02 00 	lea    rdx,[rip+0x213e8]        # 276a0 <__FUNCTION__.53>
    62b8:	e9 e2 da ff ff       	jmp    3d9f <main+0x53f>
    62bd:	0f 1f 00             	nop    DWORD PTR [rax]

00000000000062c0 <_start>:
    62c0:	f3 0f 1e fa          	endbr64 
    62c4:	31 ed                	xor    ebp,ebp
    62c6:	49 89 d1             	mov    r9,rdx
    62c9:	5e                   	pop    rsi
    62ca:	48 89 e2             	mov    rdx,rsp
    62cd:	48 83 e4 f0          	and    rsp,0xfffffffffffffff0
    62d1:	50                   	push   rax
    62d2:	54                   	push   rsp
    62d3:	45 31 c0             	xor    r8d,r8d
    62d6:	31 c9                	xor    ecx,ecx
    62d8:	48 8d 3d 81 d5 ff ff 	lea    rdi,[rip+0xffffffffffffd581]        # 3860 <main>
    62df:	ff 15 e3 ac 02 00    	call   QWORD PTR [rip+0x2ace3]        # 30fc8 <__libc_start_main@GLIBC_2.34>
    62e5:	f4                   	hlt    
    62e6:	66 2e 0f 1f 84 00 00 	cs nop WORD PTR [rax+rax*1+0x0]
    62ed:	00 00 00 

00000000000062f0 <__gmon_start__>:
    62f0:	f3 0f 1e fa          	endbr64 
    62f4:	8b 05 ae ad 02 00    	mov    eax,DWORD PTR [rip+0x2adae]        # 310a8 <called.0>
    62fa:	85 c0                	test   eax,eax
    62fc:	74 02                	je     6300 <__gmon_start__+0x10>
    62fe:	c3                   	ret    
    62ff:	90                   	nop
    6300:	48 83 ec 08          	sub    rsp,0x8
    6304:	48 8d 35 62 8a 01 00 	lea    rsi,[rip+0x18a62]        # 1ed6d <etext>
    630b:	48 8d 3d ee 9c ff ff 	lea    rdi,[rip+0xffffffffffff9cee]        # 0 <__executable_start>
    6312:	c7 05 8c ad 02 00 01 	mov    DWORD PTR [rip+0x2ad8c],0x1        # 310a8 <called.0>
    6319:	00 00 00 
    631c:	e8 cf d0 ff ff       	call   33f0 <__monstartup@plt>
    6321:	48 8b 3d b0 ac 02 00 	mov    rdi,QWORD PTR [rip+0x2acb0]        # 30fd8 <_mcleanup@GLIBC_2.2.5>
    6328:	48 83 c4 08          	add    rsp,0x8
    632c:	e9 ff 89 01 00       	jmp    1ed30 <atexit>
    6331:	66 2e 0f 1f 84 00 00 	cs nop WORD PTR [rax+rax*1+0x0]
    6338:	00 00 00 
    633b:	0f 1f 44 00 00       	nop    DWORD PTR [rax+rax*1+0x0]

0000000000006340 <_dl_relocate_static_pie>:
    6340:	f3 0f 1e fa          	endbr64 
    6344:	c3                   	ret    
    6345:	66 2e 0f 1f 84 00 00 	cs nop WORD PTR [rax+rax*1+0x0]
    634c:	00 00 00 
    634f:	90                   	nop

0000000000006350 <deregister_tm_clones>:
    6350:	48 8d 3d f9 ac 02 00 	lea    rdi,[rip+0x2acf9]        # 31050 <__TMC_END__>
    6357:	48 8d 05 f2 ac 02 00 	lea    rax,[rip+0x2acf2]        # 31050 <__TMC_END__>
    635e:	48 39 f8             	cmp    rax,rdi
    6361:	74 15                	je     6378 <deregister_tm_clones+0x28>
    6363:	48 8b 05 66 ac 02 00 	mov    rax,QWORD PTR [rip+0x2ac66]        # 30fd0 <_ITM_deregisterTMCloneTable@Base>
    636a:	48 85 c0             	test   rax,rax
    636d:	74 09                	je     6378 <deregister_tm_clones+0x28>
    636f:	ff e0                	jmp    rax
    6371:	0f 1f 80 00 00 00 00 	nop    DWORD PTR [rax+0x0]
    6378:	c3                   	ret    
    6379:	0f 1f 80 00 00 00 00 	nop    DWORD PTR [rax+0x0]

0000000000006380 <register_tm_clones>:
    6380:	48 8d 3d c9 ac 02 00 	lea    rdi,[rip+0x2acc9]        # 31050 <__TMC_END__>
    6387:	48 8d 35 c2 ac 02 00 	lea    rsi,[rip+0x2acc2]        # 31050 <__TMC_END__>
    638e:	48 29 fe             	sub    rsi,rdi
    6391:	48 89 f0             	mov    rax,rsi
    6394:	48 c1 ee 3f          	shr    rsi,0x3f
    6398:	48 c1 f8 03          	sar    rax,0x3
    639c:	48 01 c6             	add    rsi,rax
    639f:	48 d1 fe             	sar    rsi,1
    63a2:	74 14                	je     63b8 <register_tm_clones+0x38>
    63a4:	48 8b 05 45 ac 02 00 	mov    rax,QWORD PTR [rip+0x2ac45]        # 30ff0 <_ITM_registerTMCloneTable@Base>
    63ab:	48 85 c0             	test   rax,rax
    63ae:	74 08                	je     63b8 <register_tm_clones+0x38>
    63b0:	ff e0                	jmp    rax
    63b2:	66 0f 1f 44 00 00    	nop    WORD PTR [rax+rax*1+0x0]
    63b8:	c3                   	ret    
    63b9:	0f 1f 80 00 00 00 00 	nop    DWORD PTR [rax+0x0]

00000000000063c0 <__do_global_dtors_aux>:
    63c0:	f3 0f 1e fa          	endbr64 
    63c4:	80 3d e1 ac 02 00 00 	cmp    BYTE PTR [rip+0x2ace1],0x0        # 310ac <completed.0>
    63cb:	75 2b                	jne    63f8 <__do_global_dtors_aux+0x38>
    63cd:	55                   	push   rbp
    63ce:	48 83 3d 22 ac 02 00 	cmp    QWORD PTR [rip+0x2ac22],0x0        # 30ff8 <__cxa_finalize@GLIBC_2.2.5>
    63d5:	00 
    63d6:	48 89 e5             	mov    rbp,rsp
    63d9:	74 0c                	je     63e7 <__do_global_dtors_aux+0x27>
    63db:	48 8b 3d 26 ac 02 00 	mov    rdi,QWORD PTR [rip+0x2ac26]        # 31008 <__dso_handle>
    63e2:	e8 69 d4 ff ff       	call   3850 <__cxa_finalize@plt>
    63e7:	e8 64 ff ff ff       	call   6350 <deregister_tm_clones>
    63ec:	c6 05 b9 ac 02 00 01 	mov    BYTE PTR [rip+0x2acb9],0x1        # 310ac <completed.0>
    63f3:	5d                   	pop    rbp
    63f4:	c3                   	ret    
    63f5:	0f 1f 00             	nop    DWORD PTR [rax]
    63f8:	c3                   	ret    
    63f9:	0f 1f 80 00 00 00 00 	nop    DWORD PTR [rax+0x0]

0000000000006400 <frame_dummy>:
    6400:	f3 0f 1e fa          	endbr64 
    6404:	e9 77 ff ff ff       	jmp    6380 <register_tm_clones>
    6409:	0f 1f 80 00 00 00 00 	nop    DWORD PTR [rax+0x0]

0000000000006410 <compare_extras_len>:
    6410:	f3 0f 1e fa          	endbr64 
    6414:	55                   	push   rbp
    6415:	48 89 e5             	mov    rbp,rsp
    6418:	ff 15 c2 ab 02 00    	call   QWORD PTR [rip+0x2abc2]        # 30fe0 <mcount@GLIBC_2.2.5>
    641e:	8b 47 08             	mov    eax,DWORD PTR [rdi+0x8]
    6421:	5d                   	pop    rbp
    6422:	2b 46 08             	sub    eax,DWORD PTR [rsi+0x8]
    6425:	c3                   	ret    
    6426:	66 2e 0f 1f 84 00 00 	cs nop WORD PTR [rax+rax*1+0x0]
    642d:	00 00 00 

0000000000006430 <compare_extras_use_d>:
    6430:	f3 0f 1e fa          	endbr64 
    6434:	55                   	push   rbp
    6435:	48 89 e5             	mov    rbp,rsp
    6438:	ff 15 a2 ab 02 00    	call   QWORD PTR [rip+0x2aba2]        # 30fe0 <mcount@GLIBC_2.2.5>
    643e:	8b 46 0c             	mov    eax,DWORD PTR [rsi+0xc]
    6441:	5d                   	pop    rbp
    6442:	2b 47 0c             	sub    eax,DWORD PTR [rdi+0xc]
    6445:	c3                   	ret    
    6446:	66 2e 0f 1f 84 00 00 	cs nop WORD PTR [rax+rax*1+0x0]
    644d:	00 00 00 

0000000000006450 <handle_skipreq>:
    6450:	f3 0f 1e fa          	endbr64 
    6454:	55                   	push   rbp
    6455:	48 89 e5             	mov    rbp,rsp
    6458:	ff 15 82 ab 02 00    	call   QWORD PTR [rip+0x2ab82]        # 30fe0 <mcount@GLIBC_2.2.5>
    645e:	c6 05 97 55 3d 00 01 	mov    BYTE PTR [rip+0x3d5597],0x1        # 3db9fc <skip_requested>
    6465:	5d                   	pop    rbp
    6466:	c3                   	ret    
    6467:	66 0f 1f 84 00 00 00 	nop    WORD PTR [rax+rax*1+0x0]
    646e:	00 00 

0000000000006470 <handle_resize>:
    6470:	f3 0f 1e fa          	endbr64 
    6474:	55                   	push   rbp
    6475:	48 89 e5             	mov    rbp,rsp
    6478:	ff 15 62 ab 02 00    	call   QWORD PTR [rip+0x2ab62]        # 30fe0 <mcount@GLIBC_2.2.5>
    647e:	c6 05 97 ab 02 00 01 	mov    BYTE PTR [rip+0x2ab97],0x1        # 3101c <clear_screen>
    6485:	5d                   	pop    rbp
    6486:	c3                   	ret    
    6487:	66 0f 1f 84 00 00 00 	nop    WORD PTR [rax+rax*1+0x0]
    648e:	00 00 

0000000000006490 <handle_stop_sig>:
    6490:	f3 0f 1e fa          	endbr64 
    6494:	55                   	push   rbp
    6495:	48 89 e5             	mov    rbp,rsp
    6498:	ff 15 42 ab 02 00    	call   QWORD PTR [rip+0x2ab42]        # 30fe0 <mcount@GLIBC_2.2.5>
    649e:	8b 3d 80 ab 02 00    	mov    edi,DWORD PTR [rip+0x2ab80]        # 31024 <child_pid>
    64a4:	c6 05 1e 55 2d 00 01 	mov    BYTE PTR [rip+0x2d551e],0x1        # 2db9c9 <stop_soon>
    64ab:	85 ff                	test   edi,edi
    64ad:	7e 0a                	jle    64b9 <handle_stop_sig+0x29>
    64af:	be 09 00 00 00       	mov    esi,0x9
    64b4:	e8 b7 cf ff ff       	call   3470 <kill@plt>
    64b9:	8b 3d 29 55 3d 00    	mov    edi,DWORD PTR [rip+0x3d5529]        # 3db9e8 <forksrv_pid>
    64bf:	85 ff                	test   edi,edi
    64c1:	7f 05                	jg     64c8 <handle_stop_sig+0x38>
    64c3:	5d                   	pop    rbp
    64c4:	c3                   	ret    
    64c5:	0f 1f 00             	nop    DWORD PTR [rax]
    64c8:	be 09 00 00 00       	mov    esi,0x9
    64cd:	5d                   	pop    rbp
    64ce:	e9 9d cf ff ff       	jmp    3470 <kill@plt>
    64d3:	66 66 2e 0f 1f 84 00 	data16 cs nop WORD PTR [rax+rax*1+0x0]
    64da:	00 00 00 00 
    64de:	66 90                	xchg   ax,ax

00000000000064e0 <get_runnable_processes>:
    64e0:	55                   	push   rbp
    64e1:	48 89 e5             	mov    rbp,rsp
    64e4:	41 57                	push   r15
    64e6:	41 56                	push   r14
    64e8:	41 55                	push   r13
    64ea:	41 54                	push   r12
    64ec:	53                   	push   rbx
    64ed:	48 81 ec 18 04 00 00 	sub    rsp,0x418
    64f4:	ff 15 e6 aa 02 00    	call   QWORD PTR [rip+0x2aae6]        # 30fe0 <mcount@GLIBC_2.2.5>
    64fa:	48 8d 35 0f 93 01 00 	lea    rsi,[rip+0x1930f]        # 1f810 <_IO_stdin_used+0x810>
    6501:	48 8d 3d fc 8a 01 00 	lea    rdi,[rip+0x18afc]        # 1f004 <_IO_stdin_used+0x4>
    6508:	64 48 8b 04 25 28 00 	mov    rax,QWORD PTR fs:0x28
    650f:	00 00 
    6511:	48 89 45 c8          	mov    QWORD PTR [rbp-0x38],rax
    6515:	31 c0                	xor    eax,eax
    6517:	e8 14 cf ff ff       	call   3430 <fopen64@plt>
    651c:	49 89 c4             	mov    r12,rax
    651f:	48 85 c0             	test   rax,rax
    6522:	0f 84 fe 00 00 00    	je     6626 <get_runnable_processes+0x146>
    6528:	31 db                	xor    ebx,ebx
    652a:	4c 8d b5 c0 fb ff ff 	lea    r14,[rbp-0x440]
    6531:	49 bd 70 72 6f 63 73 	movabs r13,0x75725f73636f7270
    6538:	5f 72 75 
    653b:	4c 8d bd ce fb ff ff 	lea    r15,[rbp-0x432]
    6542:	66 0f 1f 44 00 00    	nop    WORD PTR [rax+rax*1+0x0]
    6548:	4c 89 e2             	mov    rdx,r12
    654b:	be 00 04 00 00       	mov    esi,0x400
    6550:	4c 89 f7             	mov    rdi,r14
    6553:	e8 58 ce ff ff       	call   33b0 <fgets@plt>
    6558:	48 85 c0             	test   rax,rax
    655b:	74 5b                	je     65b8 <get_runnable_processes+0xd8>
    655d:	4d 39 2e             	cmp    QWORD PTR [r14],r13
    6560:	74 3e                	je     65a0 <get_runnable_processes+0xc0>
    6562:	48 b8 70 72 6f 63 73 	movabs rax,0x6c625f73636f7270
    6569:	5f 62 6c 
    656c:	49 39 06             	cmp    QWORD PTR [r14],rax
    656f:	75 d7                	jne    6548 <get_runnable_processes+0x68>
    6571:	41 81 7e 08 6f 63 6b 	cmp    DWORD PTR [r14+0x8],0x656b636f
    6578:	65 
    6579:	75 cd                	jne    6548 <get_runnable_processes+0x68>
    657b:	66 41 81 7e 0c 64 20 	cmp    WORD PTR [r14+0xc],0x2064
    6582:	75 c4                	jne    6548 <get_runnable_processes+0x68>
    6584:	ba 0a 00 00 00       	mov    edx,0xa
    6589:	31 f6                	xor    esi,esi
    658b:	4c 89 ff             	mov    rdi,r15
    658e:	e8 ad ce ff ff       	call   3440 <strtol@plt>
    6593:	01 c3                	add    ebx,eax
    6595:	eb b1                	jmp    6548 <get_runnable_processes+0x68>
    6597:	66 0f 1f 84 00 00 00 	nop    WORD PTR [rax+rax*1+0x0]
    659e:	00 00 
    65a0:	41 81 7e 08 6e 6e 69 	cmp    DWORD PTR [r14+0x8],0x6e696e6e
    65a7:	6e 
    65a8:	75 b8                	jne    6562 <get_runnable_processes+0x82>
    65aa:	66 41 81 7e 0c 67 20 	cmp    WORD PTR [r14+0xc],0x2067
    65b1:	75 af                	jne    6562 <get_runnable_processes+0x82>
    65b3:	eb cf                	jmp    6584 <get_runnable_processes+0xa4>
    65b5:	0f 1f 00             	nop    DWORD PTR [rax]
    65b8:	4c 89 e7             	mov    rdi,r12
    65bb:	e8 40 cc ff ff       	call   3200 <fclose@plt>
    65c0:	f2 0f 10 0d 40 50 0b 	movsd  xmm1,QWORD PTR [rip+0xb5040]        # bb608 <res.78>
    65c7:	00 
    65c8:	66 0f ef c0          	pxor   xmm0,xmm0
    65cc:	66 0f 2e 0d c4 15 02 	ucomisd xmm1,QWORD PTR [rip+0x215c4]        # 27b98 <interesting_8+0x10>
    65d3:	00 
    65d4:	f2 48 0f 2a c3       	cvtsi2sd xmm0,rbx
    65d9:	7a 35                	jp     6610 <get_runnable_processes+0x130>
    65db:	75 33                	jne    6610 <get_runnable_processes+0x130>
    65dd:	f2 0f 11 05 23 50 0b 	movsd  QWORD PTR [rip+0xb5023],xmm0        # bb608 <res.78>
    65e4:	00 
    65e5:	48 8b 45 c8          	mov    rax,QWORD PTR [rbp-0x38]
    65e9:	64 48 2b 04 25 28 00 	sub    rax,QWORD PTR fs:0x28
    65f0:	00 00 
    65f2:	75 38                	jne    662c <get_runnable_processes+0x14c>
    65f4:	48 81 c4 18 04 00 00 	add    rsp,0x418
    65fb:	5b                   	pop    rbx
    65fc:	41 5c                	pop    r12
    65fe:	41 5d                	pop    r13
    6600:	41 5e                	pop    r14
    6602:	41 5f                	pop    r15
    6604:	5d                   	pop    rbp
    6605:	c3                   	ret    
    6606:	66 2e 0f 1f 84 00 00 	cs nop WORD PTR [rax+rax*1+0x0]
    660d:	00 00 00 
    6610:	f2 0f 59 05 88 15 02 	mulsd  xmm0,QWORD PTR [rip+0x21588]        # 27ba0 <interesting_8+0x18>
    6617:	00 
    6618:	f2 0f 59 0d 88 15 02 	mulsd  xmm1,QWORD PTR [rip+0x21588]        # 27ba8 <interesting_8+0x20>
    661f:	00 
    6620:	f2 0f 58 c1          	addsd  xmm0,xmm1
    6624:	eb b7                	jmp    65dd <get_runnable_processes+0xfd>
    6626:	66 0f ef c0          	pxor   xmm0,xmm0
    662a:	eb b9                	jmp    65e5 <get_runnable_processes+0x105>
    662c:	e8 0f cc ff ff       	call   3240 <__stack_chk_fail@plt>
    6631:	66 66 2e 0f 1f 84 00 	data16 cs nop WORD PTR [rax+rax*1+0x0]
    6638:	00 00 00 00 
    663c:	0f 1f 40 00          	nop    DWORD PTR [rax+0x0]

0000000000006640 <remove_shm>:
    6640:	f3 0f 1e fa          	endbr64 
    6644:	55                   	push   rbp
    6645:	48 89 e5             	mov    rbp,rsp
    6648:	ff 15 92 a9 02 00    	call   QWORD PTR [rip+0x2a992]        # 30fe0 <mcount@GLIBC_2.2.5>
    664e:	8b 3d 78 53 2d 00    	mov    edi,DWORD PTR [rip+0x2d5378]        # 2db9cc <shm_id>
    6654:	31 d2                	xor    edx,edx
    6656:	31 f6                	xor    esi,esi
    6658:	5d                   	pop    rbp
    6659:	e9 c2 cf ff ff       	jmp    3620 <shmctl@plt>
    665e:	66 90                	xchg   ax,ax

0000000000006660 <has_new_bits>:
    6660:	55                   	push   rbp
    6661:	48 89 e5             	mov    rbp,rsp
    6664:	ff 15 76 a9 02 00    	call   QWORD PTR [rip+0x2a976]        # 30fe0 <mcount@GLIBC_2.2.5>
    666a:	4c 8b 15 6f 53 3d 00 	mov    r10,QWORD PTR [rip+0x3d536f]        # 3db9e0 <trace_bits>
    6671:	45 31 c0             	xor    r8d,r8d
    6674:	49 89 f9             	mov    r9,rdi
    6677:	49 8d ba 00 00 04 00 	lea    rdi,[r10+0x40000]
    667e:	4c 89 ce             	mov    rsi,r9
    6681:	eb 55                	jmp    66d8 <has_new_bits+0x78>
    6683:	0f 1f 44 00 00       	nop    DWORD PTR [rax+rax*1+0x0]
    6688:	49 8b 52 08          	mov    rdx,QWORD PTR [r10+0x8]
    668c:	49 8d 42 08          	lea    rax,[r10+0x8]
    6690:	48 8d 4e 08          	lea    rcx,[rsi+0x8]
    6694:	48 85 d2             	test   rdx,rdx
    6697:	0f 85 a3 02 00 00    	jne    6940 <has_new_bits+0x2e0>
    669d:	48 8b 50 08          	mov    rdx,QWORD PTR [rax+0x8]
    66a1:	48 8d 70 08          	lea    rsi,[rax+0x8]
    66a5:	4c 8d 51 08          	lea    r10,[rcx+0x8]
    66a9:	48 85 d2             	test   rdx,rdx
    66ac:	0f 85 ce 01 00 00    	jne    6880 <has_new_bits+0x220>
    66b2:	48 8b 50 10          	mov    rdx,QWORD PTR [rax+0x10]
    66b6:	48 8d 70 10          	lea    rsi,[rax+0x10]
    66ba:	4c 8d 51 10          	lea    r10,[rcx+0x10]
    66be:	48 85 d2             	test   rdx,rdx
    66c1:	0f 85 d1 00 00 00    	jne    6798 <has_new_bits+0x138>
    66c7:	4c 8d 50 18          	lea    r10,[rax+0x18]
    66cb:	48 8d 71 18          	lea    rsi,[rcx+0x18]
    66cf:	49 39 fa             	cmp    r10,rdi
    66d2:	0f 84 87 01 00 00    	je     685f <has_new_bits+0x1ff>
    66d8:	49 8b 02             	mov    rax,QWORD PTR [r10]
    66db:	48 85 c0             	test   rax,rax
    66de:	74 a8                	je     6688 <has_new_bits+0x28>
    66e0:	48 8b 0e             	mov    rcx,QWORD PTR [rsi]
    66e3:	48 85 c8             	test   rax,rcx
    66e6:	74 a0                	je     6688 <has_new_bits+0x28>
    66e8:	41 80 f8 02          	cmp    r8b,0x2
    66ec:	0f 84 95 00 00 00    	je     6787 <has_new_bits+0x127>
    66f2:	41 80 3a 00          	cmp    BYTE PTR [r10],0x0
    66f6:	0f 85 17 03 00 00    	jne    6a13 <has_new_bits+0x3b3>
    66fc:	41 80 7a 01 00       	cmp    BYTE PTR [r10+0x1],0x0
    6701:	74 0c                	je     670f <has_new_bits+0xaf>
    6703:	80 7e 01 ff          	cmp    BYTE PTR [rsi+0x1],0xff
    6707:	41 b8 02 00 00 00    	mov    r8d,0x2
    670d:	74 78                	je     6787 <has_new_bits+0x127>
    670f:	41 80 7a 02 00       	cmp    BYTE PTR [r10+0x2],0x0
    6714:	74 0c                	je     6722 <has_new_bits+0xc2>
    6716:	80 7e 02 ff          	cmp    BYTE PTR [rsi+0x2],0xff
    671a:	41 b8 02 00 00 00    	mov    r8d,0x2
    6720:	74 65                	je     6787 <has_new_bits+0x127>
    6722:	41 80 7a 03 00       	cmp    BYTE PTR [r10+0x3],0x0
    6727:	74 0c                	je     6735 <has_new_bits+0xd5>
    6729:	80 7e 03 ff          	cmp    BYTE PTR [rsi+0x3],0xff
    672d:	41 b8 02 00 00 00    	mov    r8d,0x2
    6733:	74 52                	je     6787 <has_new_bits+0x127>
    6735:	41 80 7a 04 00       	cmp    BYTE PTR [r10+0x4],0x0
    673a:	74 0c                	je     6748 <has_new_bits+0xe8>
    673c:	80 7e 04 ff          	cmp    BYTE PTR [rsi+0x4],0xff
    6740:	41 b8 02 00 00 00    	mov    r8d,0x2
    6746:	74 3f                	je     6787 <has_new_bits+0x127>
    6748:	41 80 7a 05 00       	cmp    BYTE PTR [r10+0x5],0x0
    674d:	74 0c                	je     675b <has_new_bits+0xfb>
    674f:	80 7e 05 ff          	cmp    BYTE PTR [rsi+0x5],0xff
    6753:	41 b8 02 00 00 00    	mov    r8d,0x2
    6759:	74 2c                	je     6787 <has_new_bits+0x127>
    675b:	41 80 7a 06 00       	cmp    BYTE PTR [r10+0x6],0x0
    6760:	74 0c                	je     676e <has_new_bits+0x10e>
    6762:	80 7e 06 ff          	cmp    BYTE PTR [rsi+0x6],0xff
    6766:	41 b8 02 00 00 00    	mov    r8d,0x2
    676c:	74 19                	je     6787 <has_new_bits+0x127>
    676e:	41 80 7a 07 00       	cmp    BYTE PTR [r10+0x7],0x0
    6773:	41 b8 01 00 00 00    	mov    r8d,0x1
    6779:	74 0c                	je     6787 <has_new_bits+0x127>
    677b:	80 7e 07 ff          	cmp    BYTE PTR [rsi+0x7],0xff
    677f:	41 0f 94 c0          	sete   r8b
    6783:	41 83 c0 01          	add    r8d,0x1
    6787:	48 f7 d0             	not    rax
    678a:	48 21 c8             	and    rax,rcx
    678d:	48 89 06             	mov    QWORD PTR [rsi],rax
    6790:	e9 f3 fe ff ff       	jmp    6688 <has_new_bits+0x28>
    6795:	0f 1f 00             	nop    DWORD PTR [rax]
    6798:	4c 8b 59 10          	mov    r11,QWORD PTR [rcx+0x10]
    679c:	4c 85 da             	test   rdx,r11
    679f:	0f 84 22 ff ff ff    	je     66c7 <has_new_bits+0x67>
    67a5:	41 80 f8 02          	cmp    r8b,0x2
    67a9:	0f 84 95 00 00 00    	je     6844 <has_new_bits+0x1e4>
    67af:	80 78 10 00          	cmp    BYTE PTR [rax+0x10],0x0
    67b3:	0f 85 45 02 00 00    	jne    69fe <has_new_bits+0x39e>
    67b9:	80 7e 01 00          	cmp    BYTE PTR [rsi+0x1],0x0
    67bd:	74 0d                	je     67cc <has_new_bits+0x16c>
    67bf:	41 80 7a 01 ff       	cmp    BYTE PTR [r10+0x1],0xff
    67c4:	41 b8 02 00 00 00    	mov    r8d,0x2
    67ca:	74 78                	je     6844 <has_new_bits+0x1e4>
    67cc:	80 7e 02 00          	cmp    BYTE PTR [rsi+0x2],0x0
    67d0:	74 0d                	je     67df <has_new_bits+0x17f>
    67d2:	41 80 7a 02 ff       	cmp    BYTE PTR [r10+0x2],0xff
    67d7:	41 b8 02 00 00 00    	mov    r8d,0x2
    67dd:	74 65                	je     6844 <has_new_bits+0x1e4>
    67df:	80 7e 03 00          	cmp    BYTE PTR [rsi+0x3],0x0
    67e3:	74 0d                	je     67f2 <has_new_bits+0x192>
    67e5:	41 80 7a 03 ff       	cmp    BYTE PTR [r10+0x3],0xff
    67ea:	41 b8 02 00 00 00    	mov    r8d,0x2
    67f0:	74 52                	je     6844 <has_new_bits+0x1e4>
    67f2:	80 7e 04 00          	cmp    BYTE PTR [rsi+0x4],0x0
    67f6:	74 0d                	je     6805 <has_new_bits+0x1a5>
    67f8:	41 80 7a 04 ff       	cmp    BYTE PTR [r10+0x4],0xff
    67fd:	41 b8 02 00 00 00    	mov    r8d,0x2
    6803:	74 3f                	je     6844 <has_new_bits+0x1e4>
    6805:	80 7e 05 00          	cmp    BYTE PTR [rsi+0x5],0x0
    6809:	74 0d                	je     6818 <has_new_bits+0x1b8>
    680b:	41 80 7a 05 ff       	cmp    BYTE PTR [r10+0x5],0xff
    6810:	41 b8 02 00 00 00    	mov    r8d,0x2
    6816:	74 2c                	je     6844 <has_new_bits+0x1e4>
    6818:	80 7e 06 00          	cmp    BYTE PTR [rsi+0x6],0x0
    681c:	74 0d                	je     682b <has_new_bits+0x1cb>
    681e:	41 80 7a 06 ff       	cmp    BYTE PTR [r10+0x6],0xff
    6823:	41 b8 02 00 00 00    	mov    r8d,0x2
    6829:	74 19                	je     6844 <has_new_bits+0x1e4>
    682b:	80 7e 07 00          	cmp    BYTE PTR [rsi+0x7],0x0
    682f:	41 b8 01 00 00 00    	mov    r8d,0x1
    6835:	74 0d                	je     6844 <has_new_bits+0x1e4>
    6837:	41 80 7a 07 ff       	cmp    BYTE PTR [r10+0x7],0xff
    683c:	41 0f 94 c0          	sete   r8b
    6840:	41 83 c0 01          	add    r8d,0x1
    6844:	48 f7 d2             	not    rdx
    6847:	4c 8d 50 18          	lea    r10,[rax+0x18]
    684b:	48 8d 71 18          	lea    rsi,[rcx+0x18]
    684f:	4c 21 da             	and    rdx,r11
    6852:	48 89 51 10          	mov    QWORD PTR [rcx+0x10],rdx
    6856:	49 39 fa             	cmp    r10,rdi
    6859:	0f 85 79 fe ff ff    	jne    66d8 <has_new_bits+0x78>
    685f:	45 84 c0             	test   r8b,r8b
    6862:	74 10                	je     6874 <has_new_bits+0x214>
    6864:	48 8d 3d 75 51 39 00 	lea    rdi,[rip+0x395175]        # 39b9e0 <virgin_bits>
    686b:	49 39 f9             	cmp    r9,rdi
    686e:	0f 84 7e 01 00 00    	je     69f2 <has_new_bits+0x392>
    6874:	44 89 c0             	mov    eax,r8d
    6877:	5d                   	pop    rbp
    6878:	c3                   	ret    
    6879:	0f 1f 80 00 00 00 00 	nop    DWORD PTR [rax+0x0]
    6880:	4c 8b 59 08          	mov    r11,QWORD PTR [rcx+0x8]
    6884:	4c 85 da             	test   rdx,r11
    6887:	0f 84 25 fe ff ff    	je     66b2 <has_new_bits+0x52>
    688d:	41 80 f8 02          	cmp    r8b,0x2
    6891:	0f 84 95 00 00 00    	je     692c <has_new_bits+0x2cc>
    6897:	80 78 08 00          	cmp    BYTE PTR [rax+0x8],0x0
    689b:	0f 85 86 01 00 00    	jne    6a27 <has_new_bits+0x3c7>
    68a1:	80 7e 01 00          	cmp    BYTE PTR [rsi+0x1],0x0
    68a5:	74 0d                	je     68b4 <has_new_bits+0x254>
    68a7:	41 80 7a 01 ff       	cmp    BYTE PTR [r10+0x1],0xff
    68ac:	41 b8 02 00 00 00    	mov    r8d,0x2
    68b2:	74 78                	je     692c <has_new_bits+0x2cc>
    68b4:	80 7e 02 00          	cmp    BYTE PTR [rsi+0x2],0x0
    68b8:	74 0d                	je     68c7 <has_new_bits+0x267>
    68ba:	41 80 7a 02 ff       	cmp    BYTE PTR [r10+0x2],0xff
    68bf:	41 b8 02 00 00 00    	mov    r8d,0x2
    68c5:	74 65                	je     692c <has_new_bits+0x2cc>
    68c7:	80 7e 03 00          	cmp    BYTE PTR [rsi+0x3],0x0
    68cb:	74 0d                	je     68da <has_new_bits+0x27a>
    68cd:	41 80 7a 03 ff       	cmp    BYTE PTR [r10+0x3],0xff
    68d2:	41 b8 02 00 00 00    	mov    r8d,0x2
    68d8:	74 52                	je     692c <has_new_bits+0x2cc>
    68da:	80 7e 04 00          	cmp    BYTE PTR [rsi+0x4],0x0
    68de:	74 0d                	je     68ed <has_new_bits+0x28d>
    68e0:	41 80 7a 04 ff       	cmp    BYTE PTR [r10+0x4],0xff
    68e5:	41 b8 02 00 00 00    	mov    r8d,0x2
    68eb:	74 3f                	je     692c <has_new_bits+0x2cc>
    68ed:	80 7e 05 00          	cmp    BYTE PTR [rsi+0x5],0x0
    68f1:	74 0d                	je     6900 <has_new_bits+0x2a0>
    68f3:	41 80 7a 05 ff       	cmp    BYTE PTR [r10+0x5],0xff
    68f8:	41 b8 02 00 00 00    	mov    r8d,0x2
    68fe:	74 2c                	je     692c <has_new_bits+0x2cc>
    6900:	80 7e 06 00          	cmp    BYTE PTR [rsi+0x6],0x0
    6904:	74 0d                	je     6913 <has_new_bits+0x2b3>
    6906:	41 80 7a 06 ff       	cmp    BYTE PTR [r10+0x6],0xff
    690b:	41 b8 02 00 00 00    	mov    r8d,0x2
    6911:	74 19                	je     692c <has_new_bits+0x2cc>
    6913:	80 7e 07 00          	cmp    BYTE PTR [rsi+0x7],0x0
    6917:	41 b8 01 00 00 00    	mov    r8d,0x1
    691d:	74 0d                	je     692c <has_new_bits+0x2cc>
    691f:	41 80 7a 07 ff       	cmp    BYTE PTR [r10+0x7],0xff
    6924:	41 0f 94 c0          	sete   r8b
    6928:	41 83 c0 01          	add    r8d,0x1
    692c:	48 f7 d2             	not    rdx
    692f:	4c 21 da             	and    rdx,r11
    6932:	48 89 51 08          	mov    QWORD PTR [rcx+0x8],rdx
    6936:	e9 77 fd ff ff       	jmp    66b2 <has_new_bits+0x52>
    693b:	0f 1f 44 00 00       	nop    DWORD PTR [rax+rax*1+0x0]
    6940:	48 8b 76 08          	mov    rsi,QWORD PTR [rsi+0x8]
    6944:	48 85 f2             	test   rdx,rsi
    6947:	0f 84 50 fd ff ff    	je     669d <has_new_bits+0x3d>
    694d:	41 80 f8 02          	cmp    r8b,0x2
    6951:	0f 84 8d 00 00 00    	je     69e4 <has_new_bits+0x384>
    6957:	80 38 00             	cmp    BYTE PTR [rax],0x0
    695a:	0f 85 dc 00 00 00    	jne    6a3c <has_new_bits+0x3dc>
    6960:	80 78 01 00          	cmp    BYTE PTR [rax+0x1],0x0
    6964:	74 0c                	je     6972 <has_new_bits+0x312>
    6966:	80 79 01 ff          	cmp    BYTE PTR [rcx+0x1],0xff
    696a:	41 b8 02 00 00 00    	mov    r8d,0x2
    6970:	74 72                	je     69e4 <has_new_bits+0x384>
    6972:	80 78 02 00          	cmp    BYTE PTR [rax+0x2],0x0
    6976:	74 0c                	je     6984 <has_new_bits+0x324>
    6978:	80 79 02 ff          	cmp    BYTE PTR [rcx+0x2],0xff
    697c:	41 b8 02 00 00 00    	mov    r8d,0x2
    6982:	74 60                	je     69e4 <has_new_bits+0x384>
    6984:	80 78 03 00          	cmp    BYTE PTR [rax+0x3],0x0
    6988:	74 0c                	je     6996 <has_new_bits+0x336>
    698a:	80 79 03 ff          	cmp    BYTE PTR [rcx+0x3],0xff
    698e:	41 b8 02 00 00 00    	mov    r8d,0x2
    6994:	74 4e                	je     69e4 <has_new_bits+0x384>
    6996:	80 78 04 00          	cmp    BYTE PTR [rax+0x4],0x0
    699a:	74 0c                	je     69a8 <has_new_bits+0x348>
    699c:	80 79 04 ff          	cmp    BYTE PTR [rcx+0x4],0xff
    69a0:	41 b8 02 00 00 00    	mov    r8d,0x2
    69a6:	74 3c                	je     69e4 <has_new_bits+0x384>
    69a8:	80 78 05 00          	cmp    BYTE PTR [rax+0x5],0x0
    69ac:	74 0c                	je     69ba <has_new_bits+0x35a>
    69ae:	80 79 05 ff          	cmp    BYTE PTR [rcx+0x5],0xff
    69b2:	41 b8 02 00 00 00    	mov    r8d,0x2
    69b8:	74 2a                	je     69e4 <has_new_bits+0x384>
    69ba:	80 78 06 00          	cmp    BYTE PTR [rax+0x6],0x0
    69be:	74 0c                	je     69cc <has_new_bits+0x36c>
    69c0:	80 79 06 ff          	cmp    BYTE PTR [rcx+0x6],0xff
    69c4:	41 b8 02 00 00 00    	mov    r8d,0x2
    69ca:	74 18                	je     69e4 <has_new_bits+0x384>
    69cc:	80 78 07 00          	cmp    BYTE PTR [rax+0x7],0x0
    69d0:	41 b8 01 00 00 00    	mov    r8d,0x1
    69d6:	74 0c                	je     69e4 <has_new_bits+0x384>
    69d8:	80 79 07 ff          	cmp    BYTE PTR [rcx+0x7],0xff
    69dc:	41 0f 94 c0          	sete   r8b
    69e0:	41 83 c0 01          	add    r8d,0x1
    69e4:	48 f7 d2             	not    rdx
    69e7:	48 21 f2             	and    rdx,rsi
    69ea:	48 89 11             	mov    QWORD PTR [rcx],rdx
    69ed:	e9 ab fc ff ff       	jmp    669d <has_new_bits+0x3d>
    69f2:	44 89 c0             	mov    eax,r8d
    69f5:	c6 05 35 a6 02 00 01 	mov    BYTE PTR [rip+0x2a635],0x1        # 31031 <bitmap_changed>
    69fc:	5d                   	pop    rbp
    69fd:	c3                   	ret    
    69fe:	80 79 10 ff          	cmp    BYTE PTR [rcx+0x10],0xff
    6a02:	41 b8 02 00 00 00    	mov    r8d,0x2
    6a08:	0f 85 ab fd ff ff    	jne    67b9 <has_new_bits+0x159>
    6a0e:	e9 31 fe ff ff       	jmp    6844 <has_new_bits+0x1e4>
    6a13:	80 3e ff             	cmp    BYTE PTR [rsi],0xff
    6a16:	41 b8 02 00 00 00    	mov    r8d,0x2
    6a1c:	0f 85 da fc ff ff    	jne    66fc <has_new_bits+0x9c>
    6a22:	e9 60 fd ff ff       	jmp    6787 <has_new_bits+0x127>
    6a27:	80 79 08 ff          	cmp    BYTE PTR [rcx+0x8],0xff
    6a2b:	41 b8 02 00 00 00    	mov    r8d,0x2
    6a31:	0f 85 6a fe ff ff    	jne    68a1 <has_new_bits+0x241>
    6a37:	e9 f0 fe ff ff       	jmp    692c <has_new_bits+0x2cc>
    6a3c:	80 39 ff             	cmp    BYTE PTR [rcx],0xff
    6a3f:	41 b8 02 00 00 00    	mov    r8d,0x2
    6a45:	0f 85 15 ff ff ff    	jne    6960 <has_new_bits+0x300>
    6a4b:	eb 97                	jmp    69e4 <has_new_bits+0x384>
    6a4d:	0f 1f 00             	nop    DWORD PTR [rax]

0000000000006a50 <simplify_trace>:
    6a50:	55                   	push   rbp
    6a51:	48 89 e5             	mov    rbp,rsp
    6a54:	41 56                	push   r14
    6a56:	41 55                	push   r13
    6a58:	41 54                	push   r12
    6a5a:	53                   	push   rbx
    6a5b:	ff 15 7f a5 02 00    	call   QWORD PTR [rip+0x2a57f]        # 30fe0 <mcount@GLIBC_2.2.5>
    6a61:	48 8d 35 78 0f 02 00 	lea    rsi,[rip+0x20f78]        # 279e0 <simplify_lookup>
    6a68:	48 b9 01 01 01 01 01 	movabs rcx,0x101010101010101
    6a6f:	01 01 01 
    6a72:	48 89 fa             	mov    rdx,rdi
    6a75:	48 8d bf 00 00 04 00 	lea    rdi,[rdi+0x40000]
    6a7c:	eb 4b                	jmp    6ac9 <simplify_trace+0x79>
    6a7e:	66 90                	xchg   ax,ax
    6a80:	48 83 7a 08 00       	cmp    QWORD PTR [rdx+0x8],0x0
    6a85:	48 89 0a             	mov    QWORD PTR [rdx],rcx
    6a88:	48 8d 42 08          	lea    rax,[rdx+0x8]
    6a8c:	0f 85 ce 00 00 00    	jne    6b60 <simplify_trace+0x110>
    6a92:	48 89 4a 08          	mov    QWORD PTR [rdx+0x8],rcx
    6a96:	48 83 78 08 00       	cmp    QWORD PTR [rax+0x8],0x0
    6a9b:	48 8d 50 08          	lea    rdx,[rax+0x8]
    6a9f:	0f 85 53 01 00 00    	jne    6bf8 <simplify_trace+0x1a8>
    6aa5:	48 83 78 10 00       	cmp    QWORD PTR [rax+0x10],0x0
    6aaa:	48 89 48 08          	mov    QWORD PTR [rax+0x8],rcx
    6aae:	48 8d 50 10          	lea    rdx,[rax+0x10]
    6ab2:	0f 85 d8 01 00 00    	jne    6c90 <simplify_trace+0x240>
    6ab8:	48 8d 50 18          	lea    rdx,[rax+0x18]
    6abc:	48 89 48 10          	mov    QWORD PTR [rax+0x10],rcx
    6ac0:	48 39 d7             	cmp    rdi,rdx
    6ac3:	0f 84 57 02 00 00    	je     6d20 <simplify_trace+0x2d0>
    6ac9:	48 83 3a 00          	cmp    QWORD PTR [rdx],0x0
    6acd:	74 b1                	je     6a80 <simplify_trace+0x30>
    6acf:	0f b6 42 07          	movzx  eax,BYTE PTR [rdx+0x7]
    6ad3:	44 0f b6 6a 06       	movzx  r13d,BYTE PTR [rdx+0x6]
    6ad8:	44 0f b6 62 05       	movzx  r12d,BYTE PTR [rdx+0x5]
    6add:	0f b6 5a 04          	movzx  ebx,BYTE PTR [rdx+0x4]
    6ae1:	44 0f b6 34 06       	movzx  r14d,BYTE PTR [rsi+rax*1]
    6ae6:	46 0f b6 2c 2e       	movzx  r13d,BYTE PTR [rsi+r13*1]
    6aeb:	48 8d 42 08          	lea    rax,[rdx+0x8]
    6aef:	46 0f b6 24 26       	movzx  r12d,BYTE PTR [rsi+r12*1]
    6af4:	44 0f b6 5a 03       	movzx  r11d,BYTE PTR [rdx+0x3]
    6af9:	49 c1 e6 08          	shl    r14,0x8
    6afd:	0f b6 1c 1e          	movzx  ebx,BYTE PTR [rsi+rbx*1]
    6b01:	44 0f b6 52 02       	movzx  r10d,BYTE PTR [rdx+0x2]
    6b06:	4d 09 ee             	or     r14,r13
    6b09:	46 0f b6 1c 1e       	movzx  r11d,BYTE PTR [rsi+r11*1]
    6b0e:	44 0f b6 4a 01       	movzx  r9d,BYTE PTR [rdx+0x1]
    6b13:	49 c1 e6 08          	shl    r14,0x8
    6b17:	46 0f b6 14 16       	movzx  r10d,BYTE PTR [rsi+r10*1]
    6b1c:	44 0f b6 02          	movzx  r8d,BYTE PTR [rdx]
    6b20:	4d 09 e6             	or     r14,r12
    6b23:	46 0f b6 0c 0e       	movzx  r9d,BYTE PTR [rsi+r9*1]
    6b28:	49 c1 e6 08          	shl    r14,0x8
    6b2c:	46 0f b6 04 06       	movzx  r8d,BYTE PTR [rsi+r8*1]
    6b31:	49 09 de             	or     r14,rbx
    6b34:	49 c1 e6 08          	shl    r14,0x8
    6b38:	4d 09 de             	or     r14,r11
    6b3b:	49 c1 e6 08          	shl    r14,0x8
    6b3f:	4d 09 d6             	or     r14,r10
    6b42:	49 c1 e6 08          	shl    r14,0x8
    6b46:	4d 09 ce             	or     r14,r9
    6b49:	49 c1 e6 08          	shl    r14,0x8
    6b4d:	4d 09 c6             	or     r14,r8
    6b50:	48 83 7a 08 00       	cmp    QWORD PTR [rdx+0x8],0x0
    6b55:	4c 89 32             	mov    QWORD PTR [rdx],r14
    6b58:	0f 84 34 ff ff ff    	je     6a92 <simplify_trace+0x42>
    6b5e:	66 90                	xchg   ax,ax
    6b60:	44 0f b6 40 07       	movzx  r8d,BYTE PTR [rax+0x7]
    6b65:	44 0f b6 70 06       	movzx  r14d,BYTE PTR [rax+0x6]
    6b6a:	44 0f b6 68 05       	movzx  r13d,BYTE PTR [rax+0x5]
    6b6f:	44 0f b6 60 04       	movzx  r12d,BYTE PTR [rax+0x4]
    6b74:	46 0f b6 04 06       	movzx  r8d,BYTE PTR [rsi+r8*1]
    6b79:	46 0f b6 34 36       	movzx  r14d,BYTE PTR [rsi+r14*1]
    6b7e:	46 0f b6 2c 2e       	movzx  r13d,BYTE PTR [rsi+r13*1]
    6b83:	0f b6 58 03          	movzx  ebx,BYTE PTR [rax+0x3]
    6b87:	49 c1 e0 08          	shl    r8,0x8
    6b8b:	46 0f b6 24 26       	movzx  r12d,BYTE PTR [rsi+r12*1]
    6b90:	44 0f b6 58 02       	movzx  r11d,BYTE PTR [rax+0x2]
    6b95:	4d 09 f0             	or     r8,r14
    6b98:	0f b6 1c 1e          	movzx  ebx,BYTE PTR [rsi+rbx*1]
    6b9c:	44 0f b6 50 01       	movzx  r10d,BYTE PTR [rax+0x1]
    6ba1:	49 c1 e0 08          	shl    r8,0x8
    6ba5:	46 0f b6 1c 1e       	movzx  r11d,BYTE PTR [rsi+r11*1]
    6baa:	44 0f b6 4a 08       	movzx  r9d,BYTE PTR [rdx+0x8]
    6baf:	4d 09 e8             	or     r8,r13
    6bb2:	46 0f b6 14 16       	movzx  r10d,BYTE PTR [rsi+r10*1]
    6bb7:	49 c1 e0 08          	shl    r8,0x8
    6bbb:	46 0f b6 0c 0e       	movzx  r9d,BYTE PTR [rsi+r9*1]
    6bc0:	4d 09 e0             	or     r8,r12
    6bc3:	49 c1 e0 08          	shl    r8,0x8
    6bc7:	49 09 d8             	or     r8,rbx
    6bca:	49 c1 e0 08          	shl    r8,0x8
    6bce:	4d 09 d8             	or     r8,r11
    6bd1:	49 c1 e0 08          	shl    r8,0x8
    6bd5:	4d 09 d0             	or     r8,r10
    6bd8:	49 c1 e0 08          	shl    r8,0x8
    6bdc:	4d 09 c8             	or     r8,r9
    6bdf:	4c 89 42 08          	mov    QWORD PTR [rdx+0x8],r8
    6be3:	48 83 78 08 00       	cmp    QWORD PTR [rax+0x8],0x0
    6be8:	48 8d 50 08          	lea    rdx,[rax+0x8]
    6bec:	0f 84 b3 fe ff ff    	je     6aa5 <simplify_trace+0x55>
    6bf2:	66 0f 1f 44 00 00    	nop    WORD PTR [rax+rax*1+0x0]
    6bf8:	44 0f b6 4a 07       	movzx  r9d,BYTE PTR [rdx+0x7]
    6bfd:	44 0f b6 6a 06       	movzx  r13d,BYTE PTR [rdx+0x6]
    6c02:	44 0f b6 72 01       	movzx  r14d,BYTE PTR [rdx+0x1]
    6c07:	44 0f b6 52 02       	movzx  r10d,BYTE PTR [rdx+0x2]
    6c0c:	44 0f b6 5a 03       	movzx  r11d,BYTE PTR [rdx+0x3]
    6c11:	0f b6 5a 04          	movzx  ebx,BYTE PTR [rdx+0x4]
    6c15:	44 0f b6 62 05       	movzx  r12d,BYTE PTR [rdx+0x5]
    6c1a:	42 0f b6 14 0e       	movzx  edx,BYTE PTR [rsi+r9*1]
    6c1f:	46 0f b6 2c 2e       	movzx  r13d,BYTE PTR [rsi+r13*1]
    6c24:	0f b6 1c 1e          	movzx  ebx,BYTE PTR [rsi+rbx*1]
    6c28:	48 c1 e2 08          	shl    rdx,0x8
    6c2c:	46 0f b6 24 26       	movzx  r12d,BYTE PTR [rsi+r12*1]
    6c31:	46 0f b6 1c 1e       	movzx  r11d,BYTE PTR [rsi+r11*1]
    6c36:	4c 09 ea             	or     rdx,r13
    6c39:	46 0f b6 14 16       	movzx  r10d,BYTE PTR [rsi+r10*1]
    6c3e:	44 0f b6 40 08       	movzx  r8d,BYTE PTR [rax+0x8]
    6c43:	48 c1 e2 08          	shl    rdx,0x8
    6c47:	46 0f b6 34 36       	movzx  r14d,BYTE PTR [rsi+r14*1]
    6c4c:	4c 09 e2             	or     rdx,r12
    6c4f:	46 0f b6 04 06       	movzx  r8d,BYTE PTR [rsi+r8*1]
    6c54:	48 c1 e2 08          	shl    rdx,0x8
    6c58:	48 09 da             	or     rdx,rbx
    6c5b:	48 c1 e2 08          	shl    rdx,0x8
    6c5f:	4c 09 da             	or     rdx,r11
    6c62:	48 c1 e2 08          	shl    rdx,0x8
    6c66:	4c 09 d2             	or     rdx,r10
    6c69:	48 c1 e2 08          	shl    rdx,0x8
    6c6d:	4c 09 f2             	or     rdx,r14
    6c70:	48 c1 e2 08          	shl    rdx,0x8
    6c74:	4c 09 c2             	or     rdx,r8
    6c77:	48 83 78 10 00       	cmp    QWORD PTR [rax+0x10],0x0
    6c7c:	48 89 50 08          	mov    QWORD PTR [rax+0x8],rdx
    6c80:	48 8d 50 10          	lea    rdx,[rax+0x10]
    6c84:	0f 84 2e fe ff ff    	je     6ab8 <simplify_trace+0x68>
    6c8a:	66 0f 1f 44 00 00    	nop    WORD PTR [rax+rax*1+0x0]
    6c90:	44 0f b6 42 07       	movzx  r8d,BYTE PTR [rdx+0x7]
    6c95:	44 0f b6 6a 06       	movzx  r13d,BYTE PTR [rdx+0x6]
    6c9a:	44 0f b6 4a 01       	movzx  r9d,BYTE PTR [rdx+0x1]
    6c9f:	44 0f b6 52 02       	movzx  r10d,BYTE PTR [rdx+0x2]
    6ca4:	44 0f b6 5a 03       	movzx  r11d,BYTE PTR [rdx+0x3]
    6ca9:	0f b6 5a 04          	movzx  ebx,BYTE PTR [rdx+0x4]
    6cad:	44 0f b6 62 05       	movzx  r12d,BYTE PTR [rdx+0x5]
    6cb2:	42 0f b6 14 06       	movzx  edx,BYTE PTR [rsi+r8*1]
    6cb7:	46 0f b6 2c 2e       	movzx  r13d,BYTE PTR [rsi+r13*1]
    6cbc:	0f b6 1c 1e          	movzx  ebx,BYTE PTR [rsi+rbx*1]
    6cc0:	48 c1 e2 08          	shl    rdx,0x8
    6cc4:	46 0f b6 24 26       	movzx  r12d,BYTE PTR [rsi+r12*1]
    6cc9:	46 0f b6 1c 1e       	movzx  r11d,BYTE PTR [rsi+r11*1]
    6cce:	4c 09 ea             	or     rdx,r13
    6cd1:	46 0f b6 14 16       	movzx  r10d,BYTE PTR [rsi+r10*1]
    6cd6:	44 0f b6 70 10       	movzx  r14d,BYTE PTR [rax+0x10]
    6cdb:	48 c1 e2 08          	shl    rdx,0x8
    6cdf:	46 0f b6 0c 0e       	movzx  r9d,BYTE PTR [rsi+r9*1]
    6ce4:	4c 09 e2             	or     rdx,r12
    6ce7:	46 0f b6 34 36       	movzx  r14d,BYTE PTR [rsi+r14*1]
    6cec:	48 c1 e2 08          	shl    rdx,0x8
    6cf0:	48 09 da             	or     rdx,rbx
    6cf3:	48 c1 e2 08          	shl    rdx,0x8
    6cf7:	4c 09 da             	or     rdx,r11
    6cfa:	48 c1 e2 08          	shl    rdx,0x8
    6cfe:	4c 09 d2             	or     rdx,r10
    6d01:	48 c1 e2 08          	shl    rdx,0x8
    6d05:	4c 09 ca             	or     rdx,r9
    6d08:	48 c1 e2 08          	shl    rdx,0x8
    6d0c:	4c 09 f2             	or     rdx,r14
    6d0f:	48 89 50 10          	mov    QWORD PTR [rax+0x10],rdx
    6d13:	48 8d 50 18          	lea    rdx,[rax+0x18]
    6d17:	48 39 d7             	cmp    rdi,rdx
    6d1a:	0f 85 a9 fd ff ff    	jne    6ac9 <simplify_trace+0x79>
    6d20:	5b                   	pop    rbx
    6d21:	41 5c                	pop    r12
    6d23:	41 5d                	pop    r13
    6d25:	41 5e                	pop    r14
    6d27:	5d                   	pop    rbp
    6d28:	c3                   	ret    
    6d29:	0f 1f 80 00 00 00 00 	nop    DWORD PTR [rax+0x0]

0000000000006d30 <DI>:
    6d30:	55                   	push   rbp
    6d31:	48 89 e5             	mov    rbp,rsp
    6d34:	53                   	push   rbx
    6d35:	48 83 ec 08          	sub    rsp,0x8
    6d39:	ff 15 a1 a2 02 00    	call   QWORD PTR [rip+0x2a2a1]        # 30fe0 <mcount@GLIBC_2.2.5>
    6d3f:	ba ab aa aa aa       	mov    edx,0xaaaaaaab
    6d44:	49 89 f8             	mov    r8,rdi
    6d47:	0f b6 3d 72 37 07 00 	movzx  edi,BYTE PTR [rip+0x73772]        # 7a4c0 <cur.39>
    6d4e:	8d 47 01             	lea    eax,[rdi+0x1]
    6d51:	48 89 c1             	mov    rcx,rax
    6d54:	48 0f af c2          	imul   rax,rdx
    6d58:	48 c1 e8 23          	shr    rax,0x23
    6d5c:	8d 1c 40             	lea    ebx,[rax+rax*2]
    6d5f:	c1 e3 02             	shl    ebx,0x2
    6d62:	29 d9                	sub    ecx,ebx
    6d64:	48 8d 1d 95 36 07 00 	lea    rbx,[rip+0x73695]        # 7a400 <tmp.38>
    6d6b:	48 63 f9             	movsxd rdi,ecx
    6d6e:	88 0d 4c 37 07 00    	mov    BYTE PTR [rip+0x7374c],cl        # 7a4c0 <cur.39>
    6d74:	48 8d 0d b2 82 01 00 	lea    rcx,[rip+0x182b2]        # 1f02d <_IO_stdin_used+0x2d>
    6d7b:	48 c1 e7 04          	shl    rdi,0x4
    6d7f:	48 01 df             	add    rdi,rbx
    6d82:	49 81 f8 0f 27 00 00 	cmp    r8,0x270f
    6d89:	0f 86 6b 01 00 00    	jbe    6efa <DI+0x1ca>
    6d8f:	4d 85 c0             	test   r8,r8
    6d92:	0f 88 d0 00 00 00    	js     6e68 <DI+0x138>
    6d98:	66 0f ef c0          	pxor   xmm0,xmm0
    6d9c:	f2 0f 10 0d 0c 0e 02 	movsd  xmm1,QWORD PTR [rip+0x20e0c]        # 27bb0 <interesting_8+0x28>
    6da3:	00 
    6da4:	f2 49 0f 2a c0       	cvtsi2sd xmm0,r8
    6da9:	66 0f 2f c8          	comisd xmm1,xmm0
    6dad:	0f 87 e4 00 00 00    	ja     6e97 <DI+0x167>
    6db3:	49 81 f8 3f 42 0f 00 	cmp    r8,0xf423f
    6dba:	0f 86 18 01 00 00    	jbe    6ed8 <DI+0x1a8>
    6dc0:	f2 0f 10 15 f8 0d 02 	movsd  xmm2,QWORD PTR [rip+0x20df8]        # 27bc0 <interesting_8+0x38>
    6dc7:	00 
    6dc8:	66 0f 2f d0          	comisd xmm2,xmm0
    6dcc:	0f 87 56 01 00 00    	ja     6f28 <DI+0x1f8>
    6dd2:	f2 0f 10 1d f6 0d 02 	movsd  xmm3,QWORD PTR [rip+0x20df6]        # 27bd0 <interesting_8+0x48>
    6dd9:	00 
    6dda:	66 0f 2f d8          	comisd xmm3,xmm0
    6dde:	0f 87 5c 01 00 00    	ja     6f40 <DI+0x210>
    6de4:	49 81 f8 ff c9 9a 3b 	cmp    r8,0x3b9ac9ff
    6deb:	0f 86 67 01 00 00    	jbe    6f58 <DI+0x228>
    6df1:	f2 0f 10 25 df 0d 02 	movsd  xmm4,QWORD PTR [rip+0x20ddf]        # 27bd8 <interesting_8+0x50>
    6df8:	00 
    6df9:	66 0f 2f e0          	comisd xmm4,xmm0
    6dfd:	0f 87 7d 01 00 00    	ja     6f80 <DI+0x250>
    6e03:	f2 0f 10 2d dd 0d 02 	movsd  xmm5,QWORD PTR [rip+0x20ddd]        # 27be8 <interesting_8+0x60>
    6e0a:	00 
    6e0b:	66 0f 2f e8          	comisd xmm5,xmm0
    6e0f:	0f 87 83 01 00 00    	ja     6f98 <DI+0x268>
    6e15:	49 ba ff 0f a5 d4 e8 	movabs r10,0xe8d4a50fff
    6e1c:	00 00 00 
    6e1f:	4d 39 d0             	cmp    r8,r10
    6e22:	0f 86 a0 01 00 00    	jbe    6fc8 <DI+0x298>
    6e28:	f2 0f 10 35 c0 0d 02 	movsd  xmm6,QWORD PTR [rip+0x20dc0]        # 27bf0 <interesting_8+0x68>
    6e2f:	00 
    6e30:	66 0f 2f f0          	comisd xmm6,xmm0
    6e34:	0f 87 b6 01 00 00    	ja     6ff0 <DI+0x2c0>
    6e3a:	f2 0f 10 3d be 0d 02 	movsd  xmm7,QWORD PTR [rip+0x20dbe]        # 27c00 <interesting_8+0x78>
    6e41:	00 
    6e42:	66 0f 2f f8          	comisd xmm7,xmm0
    6e46:	0f 87 64 01 00 00    	ja     6fb0 <DI+0x280>
    6e4c:	41 b8 79 00 00 00    	mov    r8d,0x79
    6e52:	c7 07 69 6e 66 74    	mov    DWORD PTR [rdi],0x74666e69
    6e58:	66 44 89 47 04       	mov    WORD PTR [rdi+0x4],r8w
    6e5d:	e9 b9 00 00 00       	jmp    6f1b <DI+0x1eb>
    6e62:	66 0f 1f 44 00 00    	nop    WORD PTR [rax+rax*1+0x0]
    6e68:	4c 89 c6             	mov    rsi,r8
    6e6b:	4d 89 c1             	mov    r9,r8
    6e6e:	66 0f ef c0          	pxor   xmm0,xmm0
    6e72:	f2 0f 10 0d 36 0d 02 	movsd  xmm1,QWORD PTR [rip+0x20d36]        # 27bb0 <interesting_8+0x28>
    6e79:	00 
    6e7a:	48 d1 ee             	shr    rsi,1
    6e7d:	41 83 e1 01          	and    r9d,0x1
    6e81:	4c 09 ce             	or     rsi,r9
    6e84:	f2 48 0f 2a c6       	cvtsi2sd xmm0,rsi
    6e89:	f2 0f 58 c0          	addsd  xmm0,xmm0
    6e8d:	66 0f 2f c8          	comisd xmm1,xmm0
    6e91:	0f 86 1c ff ff ff    	jbe    6db3 <DI+0x83>
    6e97:	48 8d 0d 94 81 01 00 	lea    rcx,[rip+0x18194]        # 1f032 <_IO_stdin_used+0x32>
    6e9e:	f2 0f 5e 05 12 0d 02 	divsd  xmm0,QWORD PTR [rip+0x20d12]        # 27bb8 <interesting_8+0x30>
    6ea5:	00 
    6ea6:	48 c7 c2 ff ff ff ff 	mov    rdx,0xffffffffffffffff
    6ead:	be 01 00 00 00       	mov    esi,0x1
    6eb2:	b8 01 00 00 00       	mov    eax,0x1
    6eb7:	e8 84 c9 ff ff       	call   3840 <__sprintf_chk@plt>
    6ebc:	0f b6 3d fd 35 07 00 	movzx  edi,BYTE PTR [rip+0x735fd]        # 7a4c0 <cur.39>
    6ec3:	48 c1 e7 04          	shl    rdi,0x4
    6ec7:	48 01 df             	add    rdi,rbx
    6eca:	48 8b 5d f8          	mov    rbx,QWORD PTR [rbp-0x8]
    6ece:	c9                   	leave  
    6ecf:	48 89 f8             	mov    rax,rdi
    6ed2:	c3                   	ret    
    6ed3:	0f 1f 44 00 00       	nop    DWORD PTR [rax+rax*1+0x0]
    6ed8:	49 c1 e8 03          	shr    r8,0x3
    6edc:	48 8d 0d 57 81 01 00 	lea    rcx,[rip+0x18157]        # 1f03a <_IO_stdin_used+0x3a>
    6ee3:	48 be cf f7 53 e3 a5 	movabs rsi,0x20c49ba5e353f7cf
    6eea:	9b c4 20 
    6eed:	4c 89 c0             	mov    rax,r8
    6ef0:	48 f7 e6             	mul    rsi
    6ef3:	49 89 d0             	mov    r8,rdx
    6ef6:	49 c1 e8 04          	shr    r8,0x4
    6efa:	48 c7 c2 ff ff ff ff 	mov    rdx,0xffffffffffffffff
    6f01:	be 01 00 00 00       	mov    esi,0x1
    6f06:	31 c0                	xor    eax,eax
    6f08:	e8 33 c9 ff ff       	call   3840 <__sprintf_chk@plt>
    6f0d:	0f b6 3d ac 35 07 00 	movzx  edi,BYTE PTR [rip+0x735ac]        # 7a4c0 <cur.39>
    6f14:	48 c1 e7 04          	shl    rdi,0x4
    6f18:	48 01 df             	add    rdi,rbx
    6f1b:	48 8b 5d f8          	mov    rbx,QWORD PTR [rbp-0x8]
    6f1f:	48 89 f8             	mov    rax,rdi
    6f22:	c9                   	leave  
    6f23:	c3                   	ret    
    6f24:	0f 1f 40 00          	nop    DWORD PTR [rax+0x0]
    6f28:	48 8d 0d 11 81 01 00 	lea    rcx,[rip+0x18111]        # 1f040 <_IO_stdin_used+0x40>
    6f2f:	f2 0f 5e 05 91 0c 02 	divsd  xmm0,QWORD PTR [rip+0x20c91]        # 27bc8 <interesting_8+0x40>
    6f36:	00 
    6f37:	e9 6a ff ff ff       	jmp    6ea6 <DI+0x176>
    6f3c:	0f 1f 40 00          	nop    DWORD PTR [rax+0x0]
    6f40:	48 8d 0d 01 81 01 00 	lea    rcx,[rip+0x18101]        # 1f048 <_IO_stdin_used+0x48>
    6f47:	f2 0f 5e 05 79 0c 02 	divsd  xmm0,QWORD PTR [rip+0x20c79]        # 27bc8 <interesting_8+0x40>
    6f4e:	00 
    6f4f:	e9 52 ff ff ff       	jmp    6ea6 <DI+0x176>
    6f54:	0f 1f 40 00          	nop    DWORD PTR [rax+0x0]
    6f58:	48 b9 db 34 b6 d7 82 	movabs rcx,0x431bde82d7b634db
    6f5f:	de 1b 43 
    6f62:	4c 89 c0             	mov    rax,r8
    6f65:	48 f7 e1             	mul    rcx
    6f68:	48 8d 0d e1 80 01 00 	lea    rcx,[rip+0x180e1]        # 1f050 <_IO_stdin_used+0x50>
    6f6f:	48 c1 ea 12          	shr    rdx,0x12
    6f73:	49 89 d0             	mov    r8,rdx
    6f76:	eb 82                	jmp    6efa <DI+0x1ca>
    6f78:	0f 1f 84 00 00 00 00 	nop    DWORD PTR [rax+rax*1+0x0]
    6f7f:	00 
    6f80:	48 8d 0d cf 80 01 00 	lea    rcx,[rip+0x180cf]        # 1f056 <_IO_stdin_used+0x56>
    6f87:	f2 0f 5e 05 51 0c 02 	divsd  xmm0,QWORD PTR [rip+0x20c51]        # 27be0 <interesting_8+0x58>
    6f8e:	00 
    6f8f:	e9 12 ff ff ff       	jmp    6ea6 <DI+0x176>
    6f94:	0f 1f 40 00          	nop    DWORD PTR [rax+0x0]
    6f98:	48 8d 0d bf 80 01 00 	lea    rcx,[rip+0x180bf]        # 1f05e <_IO_stdin_used+0x5e>
    6f9f:	f2 0f 5e 05 39 0c 02 	divsd  xmm0,QWORD PTR [rip+0x20c39]        # 27be0 <interesting_8+0x58>
    6fa6:	00 
    6fa7:	e9 fa fe ff ff       	jmp    6ea6 <DI+0x176>
    6fac:	0f 1f 40 00          	nop    DWORD PTR [rax+0x0]
    6fb0:	48 8d 0d bd 80 01 00 	lea    rcx,[rip+0x180bd]        # 1f074 <_IO_stdin_used+0x74>
    6fb7:	f2 0f 5e 05 39 0c 02 	divsd  xmm0,QWORD PTR [rip+0x20c39]        # 27bf8 <interesting_8+0x70>
    6fbe:	00 
    6fbf:	e9 e2 fe ff ff       	jmp    6ea6 <DI+0x176>
    6fc4:	0f 1f 40 00          	nop    DWORD PTR [rax+0x0]
    6fc8:	49 c1 e8 09          	shr    r8,0x9
    6fcc:	48 8d 0d 93 80 01 00 	lea    rcx,[rip+0x18093]        # 1f066 <_IO_stdin_used+0x66>
    6fd3:	49 bb 53 5a 9b a0 2f 	movabs r11,0x44b82fa09b5a53
    6fda:	b8 44 00 
    6fdd:	4c 89 c0             	mov    rax,r8
    6fe0:	49 f7 e3             	mul    r11
    6fe3:	49 89 d0             	mov    r8,rdx
    6fe6:	49 c1 e8 0b          	shr    r8,0xb
    6fea:	e9 0b ff ff ff       	jmp    6efa <DI+0x1ca>
    6fef:	90                   	nop
    6ff0:	48 8d 0d 75 80 01 00 	lea    rcx,[rip+0x18075]        # 1f06c <_IO_stdin_used+0x6c>
    6ff7:	f2 0f 5e 05 f9 0b 02 	divsd  xmm0,QWORD PTR [rip+0x20bf9]        # 27bf8 <interesting_8+0x70>
    6ffe:	00 
    6fff:	e9 a2 fe ff ff       	jmp    6ea6 <DI+0x176>
    7004:	66 66 2e 0f 1f 84 00 	data16 cs nop WORD PTR [rax+rax*1+0x0]
    700b:	00 00 00 00 
    700f:	90                   	nop

0000000000007010 <DMS>:
    7010:	55                   	push   rbp
    7011:	48 89 e5             	mov    rbp,rsp
    7014:	53                   	push   rbx
    7015:	48 83 ec 08          	sub    rsp,0x8
    7019:	ff 15 c1 9f 02 00    	call   QWORD PTR [rip+0x29fc1]        # 30fe0 <mcount@GLIBC_2.2.5>
    701f:	0f b6 05 da 45 0b 00 	movzx  eax,BYTE PTR [rip+0xb45da]        # bb600 <cur.67>
    7026:	b9 ab aa aa aa       	mov    ecx,0xaaaaaaab
    702b:	8d 50 01             	lea    edx,[rax+0x1]
    702e:	48 89 d0             	mov    rax,rdx
    7031:	48 0f af d1          	imul   rdx,rcx
    7035:	48 8d 0d 40 80 01 00 	lea    rcx,[rip+0x18040]        # 1f07c <_IO_stdin_used+0x7c>
    703c:	48 c1 ea 23          	shr    rdx,0x23
    7040:	49 89 f8             	mov    r8,rdi
    7043:	8d 1c 52             	lea    ebx,[rdx+rdx*2]
    7046:	c1 e3 02             	shl    ebx,0x2
    7049:	29 d8                	sub    eax,ebx
    704b:	48 8d 1d ee 44 0b 00 	lea    rbx,[rip+0xb44ee]        # bb540 <tmp.66>
    7052:	88 05 a8 45 0b 00    	mov    BYTE PTR [rip+0xb45a8],al        # bb600 <cur.67>
    7058:	48 98                	cdqe   
    705a:	48 c1 e0 04          	shl    rax,0x4
    705e:	48 01 d8             	add    rax,rbx
    7061:	48 81 ff 0f 27 00 00 	cmp    rdi,0x270f
    7068:	0f 86 50 01 00 00    	jbe    71be <DMS+0x1ae>
    706e:	48 85 ff             	test   rdi,rdi
    7071:	0f 88 c9 00 00 00    	js     7140 <DMS+0x130>
    7077:	66 0f ef c0          	pxor   xmm0,xmm0
    707b:	f2 0f 10 0d 85 0b 02 	movsd  xmm1,QWORD PTR [rip+0x20b85]        # 27c08 <interesting_8+0x80>
    7082:	00 
    7083:	f2 48 0f 2a c7       	cvtsi2sd xmm0,rdi
    7088:	66 0f 2f c8          	comisd xmm1,xmm0
    708c:	0f 87 da 00 00 00    	ja     716c <DMS+0x15c>
    7092:	48 81 ff ff 9f 0f 00 	cmp    rdi,0xf9fff
    7099:	0f 86 11 01 00 00    	jbe    71b0 <DMS+0x1a0>
    709f:	f2 0f 10 15 71 0b 02 	movsd  xmm2,QWORD PTR [rip+0x20b71]        # 27c18 <interesting_8+0x90>
    70a6:	00 
    70a7:	66 0f 2f d0          	comisd xmm2,xmm0
    70ab:	0f 87 3f 01 00 00    	ja     71f0 <DMS+0x1e0>
    70b1:	f2 0f 10 1d 6f 0b 02 	movsd  xmm3,QWORD PTR [rip+0x20b6f]        # 27c28 <interesting_8+0xa0>
    70b8:	00 
    70b9:	66 0f 2f d8          	comisd xmm3,xmm0
    70bd:	0f 87 45 01 00 00    	ja     7208 <DMS+0x1f8>
    70c3:	48 81 ff ff ff 7f 3e 	cmp    rdi,0x3e7fffff
    70ca:	0f 86 50 01 00 00    	jbe    7220 <DMS+0x210>
    70d0:	f2 0f 10 25 58 0b 02 	movsd  xmm4,QWORD PTR [rip+0x20b58]        # 27c30 <interesting_8+0xa8>
    70d7:	00 
    70d8:	66 0f 2f e0          	comisd xmm4,xmm0
    70dc:	0f 87 4e 01 00 00    	ja     7230 <DMS+0x220>
    70e2:	f2 0f 10 2d 56 0b 02 	movsd  xmm5,QWORD PTR [rip+0x20b56]        # 27c40 <interesting_8+0xb8>
    70e9:	00 
    70ea:	66 0f 2f e8          	comisd xmm5,xmm0
    70ee:	0f 87 54 01 00 00    	ja     7248 <DMS+0x238>
    70f4:	49 b9 ff ff ff ff f9 	movabs r9,0xf9ffffffff
    70fb:	00 00 00 
    70fe:	4c 39 cf             	cmp    rdi,r9
    7101:	0f 86 71 01 00 00    	jbe    7278 <DMS+0x268>
    7107:	f2 0f 10 35 39 0b 02 	movsd  xmm6,QWORD PTR [rip+0x20b39]        # 27c48 <interesting_8+0xc0>
    710e:	00 
    710f:	66 0f 2f f0          	comisd xmm6,xmm0
    7113:	0f 87 77 01 00 00    	ja     7290 <DMS+0x280>
    7119:	f2 0f 10 3d 37 0b 02 	movsd  xmm7,QWORD PTR [rip+0x20b37]        # 27c58 <interesting_8+0xd0>
    7120:	00 
    7121:	66 0f 2f f8          	comisd xmm7,xmm0
    7125:	0f 87 35 01 00 00    	ja     7260 <DMS+0x250>
    712b:	bf 79 00 00 00       	mov    edi,0x79
    7130:	c7 00 69 6e 66 74    	mov    DWORD PTR [rax],0x74666e69
    7136:	66 89 78 04          	mov    WORD PTR [rax+0x4],di
    713a:	e9 a3 00 00 00       	jmp    71e2 <DMS+0x1d2>
    713f:	90                   	nop
    7140:	48 89 fe             	mov    rsi,rdi
    7143:	41 83 e0 01          	and    r8d,0x1
    7147:	66 0f ef c0          	pxor   xmm0,xmm0
    714b:	f2 0f 10 0d b5 0a 02 	movsd  xmm1,QWORD PTR [rip+0x20ab5]        # 27c08 <interesting_8+0x80>
    7152:	00 
    7153:	48 d1 ee             	shr    rsi,1
    7156:	4c 09 c6             	or     rsi,r8
    7159:	f2 48 0f 2a c6       	cvtsi2sd xmm0,rsi
    715e:	f2 0f 58 c0          	addsd  xmm0,xmm0
    7162:	66 0f 2f c8          	comisd xmm1,xmm0
    7166:	0f 86 26 ff ff ff    	jbe    7092 <DMS+0x82>
    716c:	f2 0f 59 05 9c 0a 02 	mulsd  xmm0,QWORD PTR [rip+0x20a9c]        # 27c10 <interesting_8+0x88>
    7173:	00 
    7174:	48 8d 0d 08 7f 01 00 	lea    rcx,[rip+0x17f08]        # 1f083 <_IO_stdin_used+0x83>
    717b:	48 89 c7             	mov    rdi,rax
    717e:	48 c7 c2 ff ff ff ff 	mov    rdx,0xffffffffffffffff
    7185:	be 01 00 00 00       	mov    esi,0x1
    718a:	b8 01 00 00 00       	mov    eax,0x1
    718f:	e8 ac c6 ff ff       	call   3840 <__sprintf_chk@plt>
    7194:	0f b6 05 65 44 0b 00 	movzx  eax,BYTE PTR [rip+0xb4465]        # bb600 <cur.67>
    719b:	48 c1 e0 04          	shl    rax,0x4
    719f:	48 01 d8             	add    rax,rbx
    71a2:	48 8b 5d f8          	mov    rbx,QWORD PTR [rbp-0x8]
    71a6:	c9                   	leave  
    71a7:	c3                   	ret    
    71a8:	0f 1f 84 00 00 00 00 	nop    DWORD PTR [rax+rax*1+0x0]
    71af:	00 
    71b0:	48 c1 ef 0a          	shr    rdi,0xa
    71b4:	48 8d 0d d2 7e 01 00 	lea    rcx,[rip+0x17ed2]        # 1f08d <_IO_stdin_used+0x8d>
    71bb:	49 89 f8             	mov    r8,rdi
    71be:	48 89 c7             	mov    rdi,rax
    71c1:	48 c7 c2 ff ff ff ff 	mov    rdx,0xffffffffffffffff
    71c8:	be 01 00 00 00       	mov    esi,0x1
    71cd:	31 c0                	xor    eax,eax
    71cf:	e8 6c c6 ff ff       	call   3840 <__sprintf_chk@plt>
    71d4:	0f b6 05 25 44 0b 00 	movzx  eax,BYTE PTR [rip+0xb4425]        # bb600 <cur.67>
    71db:	48 c1 e0 04          	shl    rax,0x4
    71df:	48 01 d8             	add    rax,rbx
    71e2:	48 8b 5d f8          	mov    rbx,QWORD PTR [rbp-0x8]
    71e6:	c9                   	leave  
    71e7:	c3                   	ret    
    71e8:	0f 1f 84 00 00 00 00 	nop    DWORD PTR [rax+rax*1+0x0]
    71ef:	00 
    71f0:	f2 0f 59 05 28 0a 02 	mulsd  xmm0,QWORD PTR [rip+0x20a28]        # 27c20 <interesting_8+0x98>
    71f7:	00 
    71f8:	48 8d 0d 96 7e 01 00 	lea    rcx,[rip+0x17e96]        # 1f095 <_IO_stdin_used+0x95>
    71ff:	e9 77 ff ff ff       	jmp    717b <DMS+0x16b>
    7204:	0f 1f 40 00          	nop    DWORD PTR [rax+0x0]
    7208:	f2 0f 59 05 10 0a 02 	mulsd  xmm0,QWORD PTR [rip+0x20a10]        # 27c20 <interesting_8+0x98>
    720f:	00 
    7210:	48 8d 0d 88 7e 01 00 	lea    rcx,[rip+0x17e88]        # 1f09f <_IO_stdin_used+0x9f>
    7217:	e9 5f ff ff ff       	jmp    717b <DMS+0x16b>
    721c:	0f 1f 40 00          	nop    DWORD PTR [rax+0x0]
    7220:	48 c1 ef 14          	shr    rdi,0x14
    7224:	48 8d 0d 7e 7e 01 00 	lea    rcx,[rip+0x17e7e]        # 1f0a9 <_IO_stdin_used+0xa9>
    722b:	49 89 f8             	mov    r8,rdi
    722e:	eb 8e                	jmp    71be <DMS+0x1ae>
    7230:	f2 0f 59 05 00 0a 02 	mulsd  xmm0,QWORD PTR [rip+0x20a00]        # 27c38 <interesting_8+0xb0>
    7237:	00 
    7238:	48 8d 0d 72 7e 01 00 	lea    rcx,[rip+0x17e72]        # 1f0b1 <_IO_stdin_used+0xb1>
    723f:	e9 37 ff ff ff       	jmp    717b <DMS+0x16b>
    7244:	0f 1f 40 00          	nop    DWORD PTR [rax+0x0]
    7248:	f2 0f 59 05 e8 09 02 	mulsd  xmm0,QWORD PTR [rip+0x209e8]        # 27c38 <interesting_8+0xb0>
    724f:	00 
    7250:	48 8d 0d 64 7e 01 00 	lea    rcx,[rip+0x17e64]        # 1f0bb <_IO_stdin_used+0xbb>
    7257:	e9 1f ff ff ff       	jmp    717b <DMS+0x16b>
    725c:	0f 1f 40 00          	nop    DWORD PTR [rax+0x0]
    7260:	f2 0f 59 05 e8 09 02 	mulsd  xmm0,QWORD PTR [rip+0x209e8]        # 27c50 <interesting_8+0xc8>
    7267:	00 
    7268:	48 8d 0d 68 7e 01 00 	lea    rcx,[rip+0x17e68]        # 1f0d7 <_IO_stdin_used+0xd7>
    726f:	e9 07 ff ff ff       	jmp    717b <DMS+0x16b>
    7274:	0f 1f 40 00          	nop    DWORD PTR [rax+0x0]
    7278:	48 c1 ef 1e          	shr    rdi,0x1e
    727c:	48 8d 0d 42 7e 01 00 	lea    rcx,[rip+0x17e42]        # 1f0c5 <_IO_stdin_used+0xc5>
    7283:	49 89 f8             	mov    r8,rdi
    7286:	e9 33 ff ff ff       	jmp    71be <DMS+0x1ae>
    728b:	0f 1f 44 00 00       	nop    DWORD PTR [rax+rax*1+0x0]
    7290:	f2 0f 59 05 b8 09 02 	mulsd  xmm0,QWORD PTR [rip+0x209b8]        # 27c50 <interesting_8+0xc8>
    7297:	00 
    7298:	48 8d 0d 2e 7e 01 00 	lea    rcx,[rip+0x17e2e]        # 1f0cd <_IO_stdin_used+0xcd>
    729f:	e9 d7 fe ff ff       	jmp    717b <DMS+0x16b>
    72a4:	66 66 2e 0f 1f 84 00 	data16 cs nop WORD PTR [rax+rax*1+0x0]
    72ab:	00 00 00 00 
    72af:	90                   	nop

00000000000072b0 <describe_op>:
    72b0:	55                   	push   rbp
    72b1:	48 89 e5             	mov    rbp,rsp
    72b4:	41 55                	push   r13
    72b6:	41 54                	push   r12
    72b8:	53                   	push   rbx
    72b9:	48 83 ec 08          	sub    rsp,0x8
    72bd:	ff 15 1d 9d 02 00    	call   QWORD PTR [rip+0x29d1d]        # 30fe0 <mcount@GLIBC_2.2.5>
    72c3:	4c 8b 05 16 46 2d 00 	mov    r8,QWORD PTR [rip+0x2d4616]        # 2db8e0 <syncing_party>
    72ca:	89 fb                	mov    ebx,edi
    72cc:	4d 85 c0             	test   r8,r8
    72cf:	74 47                	je     7318 <describe_op+0x68>
    72d1:	4c 8d 25 c8 9f 02 00 	lea    r12,[rip+0x29fc8]        # 312a0 <ret.25>
    72d8:	44 8b 0d ed 45 2d 00 	mov    r9d,DWORD PTR [rip+0x2d45ed]        # 2db8cc <syncing_case>
    72df:	ba 00 01 00 00       	mov    edx,0x100
    72e4:	31 c0                	xor    eax,eax
    72e6:	48 8d 0d f8 7d 01 00 	lea    rcx,[rip+0x17df8]        # 1f0e5 <_IO_stdin_used+0xe5>
    72ed:	be 01 00 00 00       	mov    esi,0x1
    72f2:	4c 89 e7             	mov    rdi,r12
    72f5:	e8 46 c5 ff ff       	call   3840 <__sprintf_chk@plt>
    72fa:	80 fb 02             	cmp    bl,0x2
    72fd:	0f 84 0d 01 00 00    	je     7410 <describe_op+0x160>
    7303:	48 83 c4 08          	add    rsp,0x8
    7307:	4c 89 e0             	mov    rax,r12
    730a:	5b                   	pop    rbx
    730b:	41 5c                	pop    r12
    730d:	41 5d                	pop    r13
    730f:	5d                   	pop    rbp
    7310:	c3                   	ret    
    7311:	0f 1f 80 00 00 00 00 	nop    DWORD PTR [rax+0x0]
    7318:	44 8b 05 71 46 2d 00 	mov    r8d,DWORD PTR [rip+0x2d4671]        # 2db990 <current_entry>
    731f:	4c 8d 25 7a 9f 02 00 	lea    r12,[rip+0x29f7a]        # 312a0 <ret.25>
    7326:	ba 00 01 00 00       	mov    edx,0x100
    732b:	31 c0                	xor    eax,eax
    732d:	48 8d 0d b9 7d 01 00 	lea    rcx,[rip+0x17db9]        # 1f0ed <_IO_stdin_used+0xed>
    7334:	be 01 00 00 00       	mov    esi,0x1
    7339:	4c 89 e7             	mov    rdi,r12
    733c:	e8 ff c4 ff ff       	call   3840 <__sprintf_chk@plt>
    7341:	44 8b 2d cc 9c 02 00 	mov    r13d,DWORD PTR [rip+0x29ccc]        # 31014 <splicing_with>
    7348:	45 85 ed             	test   r13d,r13d
    734b:	0f 89 e7 00 00 00    	jns    7438 <describe_op+0x188>
    7351:	4c 89 e7             	mov    rdi,r12
    7354:	e8 d7 be ff ff       	call   3230 <strlen@plt>
    7359:	4c 8b 05 88 45 2d 00 	mov    r8,QWORD PTR [rip+0x2d4588]        # 2db8e8 <stage_short>
    7360:	be 01 00 00 00       	mov    esi,0x1
    7365:	48 8d 0d 90 7d 01 00 	lea    rcx,[rip+0x17d90]        # 1f0fc <_IO_stdin_used+0xfc>
    736c:	49 8d 3c 04          	lea    rdi,[r12+rax*1]
    7370:	48 c7 c2 ff ff ff ff 	mov    rdx,0xffffffffffffffff
    7377:	31 c0                	xor    eax,eax
    7379:	e8 c2 c4 ff ff       	call   3840 <__sprintf_chk@plt>
    737e:	44 8b 2d 43 45 2d 00 	mov    r13d,DWORD PTR [rip+0x2d4543]        # 2db8c8 <stage_cur_byte>
    7385:	4c 89 e7             	mov    rdi,r12
    7388:	45 85 ed             	test   r13d,r13d
    738b:	0f 88 df 00 00 00    	js     7470 <describe_op+0x1c0>
    7391:	e8 9a be ff ff       	call   3230 <strlen@plt>
    7396:	45 89 e8             	mov    r8d,r13d
    7399:	be 01 00 00 00       	mov    esi,0x1
    739e:	48 8d 0d 5e 7d 01 00 	lea    rcx,[rip+0x17d5e]        # 1f103 <_IO_stdin_used+0x103>
    73a5:	49 8d 3c 04          	lea    rdi,[r12+rax*1]
    73a9:	48 c7 c2 ff ff ff ff 	mov    rdx,0xffffffffffffffff
    73b0:	31 c0                	xor    eax,eax
    73b2:	e8 89 c4 ff ff       	call   3840 <__sprintf_chk@plt>
    73b7:	0f b6 05 02 45 2d 00 	movzx  eax,BYTE PTR [rip+0x2d4502]        # 2db8c0 <stage_val_type>
    73be:	84 c0                	test   al,al
    73c0:	0f 84 34 ff ff ff    	je     72fa <describe_op+0x4a>
    73c6:	3c 02                	cmp    al,0x2
    73c8:	48 8d 15 41 7f 01 00 	lea    rdx,[rip+0x17f41]        # 1f310 <_IO_stdin_used+0x310>
    73cf:	4c 8d 2d 0b 7d 01 00 	lea    r13,[rip+0x17d0b]        # 1f0e1 <_IO_stdin_used+0xe1>
    73d6:	4c 89 e7             	mov    rdi,r12
    73d9:	4c 0f 45 ea          	cmovne r13,rdx
    73dd:	e8 4e be ff ff       	call   3230 <strlen@plt>
    73e2:	44 8b 0d db 44 2d 00 	mov    r9d,DWORD PTR [rip+0x2d44db]        # 2db8c4 <stage_cur_val>
    73e9:	be 01 00 00 00       	mov    esi,0x1
    73ee:	48 8d 0d 16 7d 01 00 	lea    rcx,[rip+0x17d16]        # 1f10b <_IO_stdin_used+0x10b>
    73f5:	49 8d 3c 04          	lea    rdi,[r12+rax*1]
    73f9:	4d 89 e8             	mov    r8,r13
    73fc:	48 c7 c2 ff ff ff ff 	mov    rdx,0xffffffffffffffff
    7403:	31 c0                	xor    eax,eax
    7405:	e8 36 c4 ff ff       	call   3840 <__sprintf_chk@plt>
    740a:	e9 eb fe ff ff       	jmp    72fa <describe_op+0x4a>
    740f:	90                   	nop
    7410:	4c 89 e7             	mov    rdi,r12
    7413:	ba 00 01 00 00       	mov    edx,0x100
    7418:	48 8d 35 ff 7c 01 00 	lea    rsi,[rip+0x17cff]        # 1f11e <_IO_stdin_used+0x11e>
    741f:	e8 0c bc ff ff       	call   3030 <__strcat_chk@plt>
    7424:	48 83 c4 08          	add    rsp,0x8
    7428:	4c 89 e0             	mov    rax,r12
    742b:	5b                   	pop    rbx
    742c:	41 5c                	pop    r12
    742e:	41 5d                	pop    r13
    7430:	5d                   	pop    rbp
    7431:	c3                   	ret    
    7432:	66 0f 1f 44 00 00    	nop    WORD PTR [rax+rax*1+0x0]
    7438:	4c 89 e7             	mov    rdi,r12
    743b:	e8 f0 bd ff ff       	call   3230 <strlen@plt>
    7440:	45 89 e8             	mov    r8d,r13d
    7443:	be 01 00 00 00       	mov    esi,0x1
    7448:	48 8d 0d a7 7c 01 00 	lea    rcx,[rip+0x17ca7]        # 1f0f6 <_IO_stdin_used+0xf6>
    744f:	49 8d 3c 04          	lea    rdi,[r12+rax*1]
    7453:	48 c7 c2 ff ff ff ff 	mov    rdx,0xffffffffffffffff
    745a:	31 c0                	xor    eax,eax
    745c:	e8 df c3 ff ff       	call   3840 <__sprintf_chk@plt>
    7461:	e9 eb fe ff ff       	jmp    7351 <describe_op+0xa1>
    7466:	66 2e 0f 1f 84 00 00 	cs nop WORD PTR [rax+rax*1+0x0]
    746d:	00 00 00 
    7470:	e8 bb bd ff ff       	call   3230 <strlen@plt>
    7475:	44 8b 05 48 44 2d 00 	mov    r8d,DWORD PTR [rip+0x2d4448]        # 2db8c4 <stage_cur_val>
    747c:	be 01 00 00 00       	mov    esi,0x1
    7481:	48 8d 0d 8e 7c 01 00 	lea    rcx,[rip+0x17c8e]        # 1f116 <_IO_stdin_used+0x116>
    7488:	49 8d 3c 04          	lea    rdi,[r12+rax*1]
    748c:	48 c7 c2 ff ff ff ff 	mov    rdx,0xffffffffffffffff
    7493:	31 c0                	xor    eax,eax
    7495:	e8 a6 c3 ff ff       	call   3840 <__sprintf_chk@plt>
    749a:	e9 5b fe ff ff       	jmp    72fa <describe_op+0x4a>
    749f:	90                   	nop

00000000000074a0 <show_init_stats>:
    74a0:	55                   	push   rbp
    74a1:	48 89 e5             	mov    rbp,rsp
    74a4:	41 57                	push   r15
    74a6:	41 56                	push   r14
    74a8:	41 55                	push   r13
    74aa:	41 54                	push   r12
    74ac:	53                   	push   rbx
    74ad:	48 83 ec 28          	sub    rsp,0x28
    74b1:	ff 15 29 9b 02 00    	call   QWORD PTR [rip+0x29b29]        # 30fe0 <mcount@GLIBC_2.2.5>
    74b7:	4c 8b 2d e2 41 2d 00 	mov    r13,QWORD PTR [rip+0x2d41e2]        # 2db6a0 <total_cal_cycles>
    74be:	48 8b 0d b3 41 2d 00 	mov    rcx,QWORD PTR [rip+0x2d41b3]        # 2db678 <queue>
    74c5:	4d 85 ed             	test   r13,r13
    74c8:	74 0f                	je     74d9 <show_init_stats+0x39>
    74ca:	48 8b 05 d7 41 2d 00 	mov    rax,QWORD PTR [rip+0x2d41d7]        # 2db6a8 <total_cal_us>
    74d1:	31 d2                	xor    edx,edx
    74d3:	49 f7 f5             	div    r13
    74d6:	49 89 c5             	mov    r13,rax
    74d9:	45 31 c9             	xor    r9d,r9d
    74dc:	45 31 e4             	xor    r12d,r12d
    74df:	45 31 f6             	xor    r14d,r14d
    74e2:	45 31 c0             	xor    r8d,r8d
    74e5:	31 db                	xor    ebx,ebx
    74e7:	48 85 c9             	test   rcx,rcx
    74ea:	74 55                	je     7541 <show_init_stats+0xa1>
    74ec:	0f 1f 40 00          	nop    DWORD PTR [rax+0x0]
    74f0:	48 8b 71 20          	mov    rsi,QWORD PTR [rcx+0x20]
    74f4:	44 8b 51 14          	mov    r10d,DWORD PTR [rcx+0x14]
    74f8:	44 8b 79 08          	mov    r15d,DWORD PTR [rcx+0x8]
    74fc:	48 8b 49 48          	mov    rcx,QWORD PTR [rcx+0x48]
    7500:	49 39 f6             	cmp    r14,rsi
    7503:	48 89 f7             	mov    rdi,rsi
    7506:	45 89 d3             	mov    r11d,r10d
    7509:	49 0f 46 fe          	cmovbe rdi,r14
    750d:	4d 85 f6             	test   r14,r14
    7510:	48 0f 44 fe          	cmove  rdi,rsi
    7514:	49 39 f4             	cmp    r12,rsi
    7517:	4c 0f 42 e6          	cmovb  r12,rsi
    751b:	44 39 d3             	cmp    ebx,r10d
    751e:	44 0f 46 db          	cmovbe r11d,ebx
    7522:	85 db                	test   ebx,ebx
    7524:	49 89 fe             	mov    r14,rdi
    7527:	45 0f 44 da          	cmove  r11d,r10d
    752b:	45 39 d0             	cmp    r8d,r10d
    752e:	45 0f 42 c2          	cmovb  r8d,r10d
    7532:	45 39 f9             	cmp    r9d,r15d
    7535:	45 0f 42 cf          	cmovb  r9d,r15d
    7539:	44 89 db             	mov    ebx,r11d
    753c:	48 85 c9             	test   rcx,rcx
    753f:	75 af                	jne    74f0 <show_init_stats+0x50>
    7541:	bf 0a 00 00 00       	mov    edi,0xa
    7546:	44 89 45 c0          	mov    DWORD PTR [rbp-0x40],r8d
    754a:	44 89 4d c8          	mov    DWORD PTR [rbp-0x38],r9d
    754e:	e8 3d bb ff ff       	call   3090 <putchar@plt>
    7553:	80 3d a3 44 3d 00 01 	cmp    BYTE PTR [rip+0x3d44a3],0x1        # 3db9fd <qemu_mode>
    755a:	8b 45 c8             	mov    eax,DWORD PTR [rbp-0x38]
    755d:	48 19 c9             	sbb    rcx,rcx
    7560:	44 8b 45 c0          	mov    r8d,DWORD PTR [rbp-0x40]
    7564:	48 81 e1 c0 63 ff ff 	and    rcx,0xffffffffffff63c0
    756b:	48 81 c1 50 c3 00 00 	add    rcx,0xc350
    7572:	4c 39 e9             	cmp    rcx,r13
    7575:	72 20                	jb     7597 <show_init_stats+0xf7>
    7577:	4c 8d 3d a6 7b 01 00 	lea    r15,[rip+0x17ba6]        # 1f124 <_IO_stdin_used+0x124>
    757e:	49 81 fd 20 4e 00 00 	cmp    r13,0x4e20
    7585:	0f 86 40 02 00 00    	jbe    77cb <show_init_stats+0x32b>
    758b:	c7 05 83 9a 02 00 05 	mov    DWORD PTR [rip+0x29a83],0x5        # 31018 <havoc_div>
    7592:	00 00 00 
    7595:	eb 47                	jmp    75de <show_init_stats+0x13e>
    7597:	48 8b 15 8a 44 3d 00 	mov    rdx,QWORD PTR [rip+0x3d448a]        # 3dba28 <doc_path>
    759e:	48 8d 35 43 85 01 00 	lea    rsi,[rip+0x18543]        # 1fae8 <_IO_stdin_used+0xae8>
    75a5:	bf 01 00 00 00       	mov    edi,0x1
    75aa:	31 c0                	xor    eax,eax
    75ac:	4c 8d 3d 71 7b 01 00 	lea    r15,[rip+0x17b71]        # 1f124 <_IO_stdin_used+0x124>
    75b3:	e8 d8 bf ff ff       	call   3590 <__printf_chk@plt>
    75b8:	4c 89 ff             	mov    rdi,r15
    75bb:	e8 90 bb ff ff       	call   3150 <puts@plt>
    75c0:	49 81 fd 50 c3 00 00 	cmp    r13,0xc350
    75c7:	8b 45 c8             	mov    eax,DWORD PTR [rbp-0x38]
    75ca:	44 8b 45 c0          	mov    r8d,DWORD PTR [rbp-0x40]
    75ce:	0f 86 70 03 00 00    	jbe    7944 <show_init_stats+0x4a4>
    75d4:	c7 05 3a 9a 02 00 0a 	mov    DWORD PTR [rip+0x29a3a],0xa        # 31018 <havoc_div>
    75db:	00 00 00 
    75de:	80 3d 25 44 3d 00 00 	cmp    BYTE PTR [rip+0x3d4425],0x0        # 3dba0a <resuming_fuzz>
    75e5:	75 45                	jne    762c <show_init_stats+0x18c>
    75e7:	3d 00 c8 00 00       	cmp    eax,0xc800
    75ec:	0f 87 81 02 00 00    	ja     7873 <show_init_stats+0x3d3>
    75f2:	3d 00 28 00 00       	cmp    eax,0x2800
    75f7:	0f 87 f6 02 00 00    	ja     78f3 <show_init_stats+0x453>
    75fd:	83 3d 94 43 2d 00 00 	cmp    DWORD PTR [rip+0x2d4394],0x0        # 2db998 <useless_at_start>
    7604:	74 0e                	je     7614 <show_init_stats+0x174>
    7606:	48 83 3d 22 44 3d 00 	cmp    QWORD PTR [rip+0x3d4422],0x0        # 3dba30 <in_bitmap>
    760d:	00 
    760e:	0f 84 08 03 00 00    	je     791c <show_init_stats+0x47c>
    7614:	8b 35 aa 43 2d 00    	mov    esi,DWORD PTR [rip+0x2d43aa]        # 2db9c4 <queued_paths>
    761a:	83 fe 64             	cmp    esi,0x64
    761d:	0f 87 c3 02 00 00    	ja     78e6 <show_init_stats+0x446>
    7623:	83 fe 14             	cmp    esi,0x14
    7626:	0f 87 92 02 00 00    	ja     78be <show_init_stats+0x41e>
    762c:	4c 89 ef             	mov    rdi,r13
    762f:	44 89 45 bc          	mov    DWORD PTR [rbp-0x44],r8d
    7633:	e8 f8 f6 ff ff       	call   6d30 <DI>
    7638:	4c 89 e7             	mov    rdi,r12
    763b:	48 89 45 c0          	mov    QWORD PTR [rbp-0x40],rax
    763f:	e8 ec f6 ff ff       	call   6d30 <DI>
    7644:	4c 89 f7             	mov    rdi,r14
    7647:	48 89 45 c8          	mov    QWORD PTR [rbp-0x38],rax
    764b:	e8 e0 f6 ff ff       	call   6d30 <DI>
    7650:	4c 8b 1d 41 40 2d 00 	mov    r11,QWORD PTR [rip+0x2d4041]        # 2db698 <total_bitmap_size>
    7657:	48 8b 55 c8          	mov    rdx,QWORD PTR [rbp-0x38]
    765b:	48 8b 4d c0          	mov    rcx,QWORD PTR [rbp-0x40]
    765f:	44 8b 4d bc          	mov    r9d,DWORD PTR [rbp-0x44]
    7663:	49 89 c6             	mov    r14,rax
    7666:	4d 85 db             	test   r11,r11
    7669:	0f 88 ad 01 00 00    	js     781c <show_init_stats+0x37c>
    766f:	66 0f ef c0          	pxor   xmm0,xmm0
    7673:	f2 49 0f 2a c3       	cvtsi2sd xmm0,r11
    7678:	48 8b 35 11 40 2d 00 	mov    rsi,QWORD PTR [rip+0x2d4011]        # 2db690 <total_bitmap_entries>
    767f:	f2 0f 10 0d d9 05 02 	movsd  xmm1,QWORD PTR [rip+0x205d9]        # 27c60 <interesting_8+0xd8>
    7686:	00 
    7687:	48 85 f6             	test   rsi,rsi
    768a:	74 0f                	je     769b <show_init_stats+0x1fb>
    768c:	0f 88 6c 01 00 00    	js     77fe <show_init_stats+0x35e>
    7692:	66 0f ef c9          	pxor   xmm1,xmm1
    7696:	f2 48 0f 2a ce       	cvtsi2sd xmm1,rsi
    769b:	f2 0f 5e c1          	divsd  xmm0,xmm1
    769f:	51                   	push   rcx
    76a0:	8b 0d 1a 43 2d 00    	mov    ecx,DWORD PTR [rip+0x2d431a]        # 2db9c0 <queued_variable>
    76a6:	bf 01 00 00 00       	mov    edi,0x1
    76ab:	52                   	push   rdx
    76ac:	8b 15 02 43 2d 00    	mov    edx,DWORD PTR [rip+0x2d4302]        # 2db9b4 <queued_favored>
    76b2:	b8 01 00 00 00       	mov    eax,0x1
    76b7:	48 8d 35 72 86 01 00 	lea    rsi,[rip+0x18672]        # 1fd30 <_IO_stdin_used+0xd30>
    76be:	41 56                	push   r14
    76c0:	44 8b 05 fd 42 2d 00 	mov    r8d,DWORD PTR [rip+0x2d42fd]        # 2db9c4 <queued_paths>
    76c7:	41 51                	push   r9
    76c9:	41 89 d9             	mov    r9d,ebx
    76cc:	e8 bf be ff ff       	call   3590 <__printf_chk@plt>
    76d1:	48 83 c4 20          	add    rsp,0x20
    76d5:	4c 89 ff             	mov    rdi,r15
    76d8:	e8 73 ba ff ff       	call   3150 <puts@plt>
    76dd:	0f b6 1d 25 43 3d 00 	movzx  ebx,BYTE PTR [rip+0x3d4325]        # 3dba09 <timeout_given>
    76e4:	84 db                	test   bl,bl
    76e6:	0f 85 b7 00 00 00    	jne    77a3 <show_init_stats+0x303>
    76ec:	49 81 fd 50 c3 00 00 	cmp    r13,0xc350
    76f3:	0f 86 ee 00 00 00    	jbe    77e7 <show_init_stats+0x347>
    76f9:	4d 01 ed             	add    r13,r13
    76fc:	bf e8 03 00 00       	mov    edi,0x3e8
    7701:	31 d2                	xor    edx,edx
    7703:	4c 89 e8             	mov    rax,r13
    7706:	41 be e8 03 00 00    	mov    r14d,0x3e8
    770c:	48 f7 f7             	div    rdi
    770f:	31 d2                	xor    edx,edx
    7711:	b9 14 00 00 00       	mov    ecx,0x14
    7716:	41 b9 e8 03 00 00    	mov    r9d,0x3e8
    771c:	bf 01 00 00 00       	mov    edi,0x1
    7721:	48 8d 35 00 87 01 00 	lea    rsi,[rip+0x18700]        # 1fe28 <_IO_stdin_used+0xe28>
    7728:	49 89 c2             	mov    r10,rax
    772b:	4c 89 e0             	mov    rax,r12
    772e:	49 f7 f6             	div    r14
    7731:	45 89 d3             	mov    r11d,r10d
    7734:	4c 39 d8             	cmp    rax,r11
    7737:	49 89 c4             	mov    r12,rax
    773a:	4d 0f 42 e3          	cmovb  r12,r11
    773e:	31 d2                	xor    edx,edx
    7740:	41 8d 44 24 14       	lea    eax,[r12+0x14]
    7745:	f7 f1                	div    ecx
    7747:	6b d0 14             	imul   edx,eax,0x14
    774a:	44 39 ca             	cmp    edx,r9d
    774d:	41 0f 47 d1          	cmova  edx,r9d
    7751:	31 c0                	xor    eax,eax
    7753:	89 15 eb 98 02 00    	mov    DWORD PTR [rip+0x298eb],edx        # 31044 <exec_tmout>
    7759:	e8 32 be ff ff       	call   3590 <__printf_chk@plt>
    775e:	4c 89 ff             	mov    rdi,r15
    7761:	e8 ea b9 ff ff       	call   3150 <puts@plt>
    7766:	c6 05 9c 42 3d 00 01 	mov    BYTE PTR [rip+0x3d429c],0x1        # 3dba09 <timeout_given>
    776d:	80 3d 99 42 3d 00 00 	cmp    BYTE PTR [rip+0x3d4299],0x0        # 3dba0d <dumb_mode>
    7774:	0f 85 c1 00 00 00    	jne    783b <show_init_stats+0x39b>
    777a:	bf 01 00 00 00       	mov    edi,0x1
    777f:	48 8d 35 3a 87 01 00 	lea    rsi,[rip+0x1873a]        # 1fec0 <_IO_stdin_used+0xec0>
    7786:	31 c0                	xor    eax,eax
    7788:	e8 03 be ff ff       	call   3590 <__printf_chk@plt>
    778d:	48 8d 65 d8          	lea    rsp,[rbp-0x28]
    7791:	4c 89 ff             	mov    rdi,r15
    7794:	5b                   	pop    rbx
    7795:	41 5c                	pop    r12
    7797:	41 5d                	pop    r13
    7799:	41 5e                	pop    r14
    779b:	41 5f                	pop    r15
    779d:	5d                   	pop    rbp
    779e:	e9 ad b9 ff ff       	jmp    3150 <puts@plt>
    77a3:	80 fb 03             	cmp    bl,0x3
    77a6:	75 c5                	jne    776d <show_init_stats+0x2cd>
    77a8:	8b 15 96 98 02 00    	mov    edx,DWORD PTR [rip+0x29896]        # 31044 <exec_tmout>
    77ae:	48 8d 35 c3 86 01 00 	lea    rsi,[rip+0x186c3]        # 1fe78 <_IO_stdin_used+0xe78>
    77b5:	bf 01 00 00 00       	mov    edi,0x1
    77ba:	31 c0                	xor    eax,eax
    77bc:	e8 cf bd ff ff       	call   3590 <__printf_chk@plt>
    77c1:	4c 89 ff             	mov    rdi,r15
    77c4:	e8 87 b9 ff ff       	call   3150 <puts@plt>
    77c9:	eb a2                	jmp    776d <show_init_stats+0x2cd>
    77cb:	49 81 fd 10 27 00 00 	cmp    r13,0x2710
    77d2:	0f 86 06 fe ff ff    	jbe    75de <show_init_stats+0x13e>
    77d8:	c7 05 36 98 02 00 02 	mov    DWORD PTR [rip+0x29836],0x2        # 31018 <havoc_div>
    77df:	00 00 00 
    77e2:	e9 f7 fd ff ff       	jmp    75de <show_init_stats+0x13e>
    77e7:	49 81 fd 10 27 00 00 	cmp    r13,0x2710
    77ee:	0f 86 c0 00 00 00    	jbe    78b4 <show_init_stats+0x414>
    77f4:	4f 8d 6c 6d 00       	lea    r13,[r13+r13*2+0x0]
    77f9:	e9 fe fe ff ff       	jmp    76fc <show_init_stats+0x25c>
    77fe:	49 89 f0             	mov    r8,rsi
    7801:	83 e6 01             	and    esi,0x1
    7804:	66 0f ef c9          	pxor   xmm1,xmm1
    7808:	49 d1 e8             	shr    r8,1
    780b:	4c 09 c6             	or     rsi,r8
    780e:	f2 48 0f 2a ce       	cvtsi2sd xmm1,rsi
    7813:	f2 0f 58 c9          	addsd  xmm1,xmm1
    7817:	e9 7f fe ff ff       	jmp    769b <show_init_stats+0x1fb>
    781c:	4c 89 d8             	mov    rax,r11
    781f:	41 83 e3 01          	and    r11d,0x1
    7823:	66 0f ef c0          	pxor   xmm0,xmm0
    7827:	48 d1 e8             	shr    rax,1
    782a:	49 09 c3             	or     r11,rax
    782d:	f2 49 0f 2a c3       	cvtsi2sd xmm0,r11
    7832:	f2 0f 58 c0          	addsd  xmm0,xmm0
    7836:	e9 3d fe ff ff       	jmp    7678 <show_init_stats+0x1d8>
    783b:	48 8d 3d e7 78 01 00 	lea    rdi,[rip+0x178e7]        # 1f129 <_IO_stdin_used+0x129>
    7842:	e8 f9 b7 ff ff       	call   3040 <getenv@plt>
    7847:	48 85 c0             	test   rax,rax
    784a:	0f 85 2a ff ff ff    	jne    777a <show_init_stats+0x2da>
    7850:	8b 35 ee 97 02 00    	mov    esi,DWORD PTR [rip+0x297ee]        # 31044 <exec_tmout>
    7856:	bb e8 03 00 00       	mov    ebx,0x3e8
    785b:	44 8d 44 36 64       	lea    r8d,[rsi+rsi*1+0x64]
    7860:	41 39 d8             	cmp    r8d,ebx
    7863:	44 0f 47 c3          	cmova  r8d,ebx
    7867:	44 89 05 d2 97 02 00 	mov    DWORD PTR [rip+0x297d2],r8d        # 31040 <hang_tmout>
    786e:	e9 07 ff ff ff       	jmp    777a <show_init_stats+0x2da>
    7873:	4c 8b 0d ae 41 3d 00 	mov    r9,QWORD PTR [rip+0x3d41ae]        # 3dba28 <doc_path>
    787a:	89 c7                	mov    edi,eax
    787c:	44 89 45 c0          	mov    DWORD PTR [rbp-0x40],r8d
    7880:	4c 89 4d c8          	mov    QWORD PTR [rbp-0x38],r9
    7884:	e8 87 f7 ff ff       	call   7010 <DMS>
    7889:	48 8b 4d c8          	mov    rcx,QWORD PTR [rbp-0x38]
    788d:	48 8d 35 b4 82 01 00 	lea    rsi,[rip+0x182b4]        # 1fb48 <_IO_stdin_used+0xb48>
    7894:	48 89 c2             	mov    rdx,rax
    7897:	bf 01 00 00 00       	mov    edi,0x1
    789c:	31 c0                	xor    eax,eax
    789e:	e8 ed bc ff ff       	call   3590 <__printf_chk@plt>
    78a3:	4c 89 ff             	mov    rdi,r15
    78a6:	e8 a5 b8 ff ff       	call   3150 <puts@plt>
    78ab:	44 8b 45 c0          	mov    r8d,DWORD PTR [rbp-0x40]
    78af:	e9 49 fd ff ff       	jmp    75fd <show_init_stats+0x15d>
    78b4:	4f 8d 6c ad 00       	lea    r13,[r13+r13*4+0x0]
    78b9:	e9 3e fe ff ff       	jmp    76fc <show_init_stats+0x25c>
    78be:	44 89 45 c8          	mov    DWORD PTR [rbp-0x38],r8d
    78c2:	48 8d 35 0f 84 01 00 	lea    rsi,[rip+0x1840f]        # 1fcd8 <_IO_stdin_used+0xcd8>
    78c9:	bf 01 00 00 00       	mov    edi,0x1
    78ce:	31 c0                	xor    eax,eax
    78d0:	e8 bb bc ff ff       	call   3590 <__printf_chk@plt>
    78d5:	4c 89 ff             	mov    rdi,r15
    78d8:	e8 73 b8 ff ff       	call   3150 <puts@plt>
    78dd:	44 8b 45 c8          	mov    r8d,DWORD PTR [rbp-0x38]
    78e1:	e9 46 fd ff ff       	jmp    762c <show_init_stats+0x18c>
    78e6:	44 89 45 c8          	mov    DWORD PTR [rbp-0x38],r8d
    78ea:	48 8d 35 77 83 01 00 	lea    rsi,[rip+0x18377]        # 1fc68 <_IO_stdin_used+0xc68>
    78f1:	eb d6                	jmp    78c9 <show_init_stats+0x429>
    78f3:	48 8b 15 2e 41 3d 00 	mov    rdx,QWORD PTR [rip+0x3d412e]        # 3dba28 <doc_path>
    78fa:	89 c7                	mov    edi,eax
    78fc:	44 89 45 c0          	mov    DWORD PTR [rbp-0x40],r8d
    7900:	48 89 55 c8          	mov    QWORD PTR [rbp-0x38],rdx
    7904:	e8 07 f7 ff ff       	call   7010 <DMS>
    7909:	48 8b 4d c8          	mov    rcx,QWORD PTR [rbp-0x38]
    790d:	48 8d 35 94 82 01 00 	lea    rsi,[rip+0x18294]        # 1fba8 <_IO_stdin_used+0xba8>
    7914:	48 89 c2             	mov    rdx,rax
    7917:	e9 7b ff ff ff       	jmp    7897 <show_init_stats+0x3f7>
    791c:	48 8d 35 dd 82 01 00 	lea    rsi,[rip+0x182dd]        # 1fc00 <_IO_stdin_used+0xc00>
    7923:	bf 01 00 00 00       	mov    edi,0x1
    7928:	31 c0                	xor    eax,eax
    792a:	44 89 45 c8          	mov    DWORD PTR [rbp-0x38],r8d
    792e:	e8 5d bc ff ff       	call   3590 <__printf_chk@plt>
    7933:	4c 89 ff             	mov    rdi,r15
    7936:	e8 15 b8 ff ff       	call   3150 <puts@plt>
    793b:	44 8b 45 c8          	mov    r8d,DWORD PTR [rbp-0x38]
    793f:	e9 d0 fc ff ff       	jmp    7614 <show_init_stats+0x174>
    7944:	49 81 fd 20 4e 00 00 	cmp    r13,0x4e20
    794b:	0f 87 3a fc ff ff    	ja     758b <show_init_stats+0xeb>
    7951:	e9 82 fe ff ff       	jmp    77d8 <show_init_stats+0x338>
    7956:	66 2e 0f 1f 84 00 00 	cs nop WORD PTR [rax+rax*1+0x0]
    795d:	00 00 00 

0000000000007960 <usage>:
    7960:	55                   	push   rbp
    7961:	48 89 e5             	mov    rbp,rsp
    7964:	ff 15 76 96 02 00    	call   QWORD PTR [rip+0x29676]        # 30fe0 <mcount@GLIBC_2.2.5>
    796a:	4c 8b 0d b7 40 3d 00 	mov    r9,QWORD PTR [rip+0x3d40b7]        # 3dba28 <doc_path>
    7971:	41 b8 32 00 00 00    	mov    r8d,0x32
    7977:	31 c0                	xor    eax,eax
    7979:	b9 e8 03 00 00       	mov    ecx,0x3e8
    797e:	48 8d 35 6b 85 01 00 	lea    rsi,[rip+0x1856b]        # 1fef0 <_IO_stdin_used+0xef0>
    7985:	48 89 fa             	mov    rdx,rdi
    7988:	bf 01 00 00 00       	mov    edi,0x1
    798d:	e8 fe bb ff ff       	call   3590 <__printf_chk@plt>
    7992:	bf 01 00 00 00       	mov    edi,0x1
    7997:	e8 64 bd ff ff       	call   3700 <exit@plt>
    799c:	0f 1f 40 00          	nop    DWORD PTR [rax+0x0]

00000000000079a0 <DFL_ck_strdup>:
    79a0:	55                   	push   rbp
    79a1:	48 89 e5             	mov    rbp,rsp
    79a4:	41 55                	push   r13
    79a6:	41 54                	push   r12
    79a8:	ff 15 32 96 02 00    	call   QWORD PTR [rip+0x29632]        # 30fe0 <mcount@GLIBC_2.2.5>
    79ae:	49 89 fd             	mov    r13,rdi
    79b1:	48 85 ff             	test   rdi,rdi
    79b4:	74 4a                	je     7a00 <DFL_ck_strdup+0x60>
    79b6:	e8 75 b8 ff ff       	call   3230 <strlen@plt>
    79bb:	44 8d 60 01          	lea    r12d,[rax+0x1]
    79bf:	41 81 fc 00 00 00 40 	cmp    r12d,0x40000000
    79c6:	77 40                	ja     7a08 <DFL_ck_strdup+0x68>
    79c8:	8d 78 0a             	lea    edi,[rax+0xa]
    79cb:	e8 30 bb ff ff       	call   3500 <malloc@plt>
    79d0:	48 85 c0             	test   rax,rax
    79d3:	74 75                	je     7a4a <DFL_ck_strdup+0xaa>
    79d5:	44 89 e2             	mov    edx,r12d
    79d8:	c7 00 00 ff 00 ff    	mov    DWORD PTR [rax],0xff00ff00
    79de:	4c 89 ee             	mov    rsi,r13
    79e1:	48 8d 78 08          	lea    rdi,[rax+0x8]
    79e5:	44 89 60 04          	mov    DWORD PTR [rax+0x4],r12d
    79e9:	c6 44 10 08 f0       	mov    BYTE PTR [rax+rdx*1+0x8],0xf0
    79ee:	41 5c                	pop    r12
    79f0:	41 5d                	pop    r13
    79f2:	5d                   	pop    rbp
    79f3:	e9 68 ba ff ff       	jmp    3460 <memcpy@plt>
    79f8:	0f 1f 84 00 00 00 00 	nop    DWORD PTR [rax+rax*1+0x0]
    79ff:	00 
    7a00:	41 5c                	pop    r12
    7a02:	31 c0                	xor    eax,eax
    7a04:	41 5d                	pop    r13
    7a06:	5d                   	pop    rbp
    7a07:	c3                   	ret    
    7a08:	44 89 e2             	mov    edx,r12d
    7a0b:	48 8d 35 e6 88 01 00 	lea    rsi,[rip+0x188e6]        # 202f8 <_IO_stdin_used+0x12f8>
    7a12:	bf 01 00 00 00       	mov    edi,0x1
    7a17:	31 c0                	xor    eax,eax
    7a19:	e8 72 bb ff ff       	call   3590 <__printf_chk@plt>
    7a1e:	41 b8 12 01 00 00    	mov    r8d,0x112
    7a24:	48 8d 0d 0d 77 01 00 	lea    rcx,[rip+0x1770d]        # 1f138 <_IO_stdin_used+0x138>
    7a2b:	48 8d 15 8e fe 01 00 	lea    rdx,[rip+0x1fe8e]        # 278c0 <__FUNCTION__.83>
    7a32:	bf 01 00 00 00       	mov    edi,0x1
    7a37:	31 c0                	xor    eax,eax
    7a39:	48 8d 35 08 89 01 00 	lea    rsi,[rip+0x18908]        # 20348 <_IO_stdin_used+0x1348>
    7a40:	e8 4b bb ff ff       	call   3590 <__printf_chk@plt>
    7a45:	e8 66 b6 ff ff       	call   30b0 <abort@plt>
    7a4a:	44 89 e2             	mov    edx,r12d
    7a4d:	48 8d 35 24 89 01 00 	lea    rsi,[rip+0x18924]        # 20378 <_IO_stdin_used+0x1378>
    7a54:	bf 01 00 00 00       	mov    edi,0x1
    7a59:	e8 32 bb ff ff       	call   3590 <__printf_chk@plt>
    7a5e:	41 b8 14 01 00 00    	mov    r8d,0x114
    7a64:	eb be                	jmp    7a24 <DFL_ck_strdup+0x84>
    7a66:	66 2e 0f 1f 84 00 00 	cs nop WORD PTR [rax+rax*1+0x0]
    7a6d:	00 00 00 

0000000000007a70 <write_to_testcase>:
    7a70:	55                   	push   rbp
    7a71:	48 89 e5             	mov    rbp,rsp
    7a74:	41 56                	push   r14
    7a76:	41 55                	push   r13
    7a78:	41 54                	push   r12
    7a7a:	53                   	push   rbx
    7a7b:	ff 15 5f 95 02 00    	call   QWORD PTR [rip+0x2955f]        # 30fe0 <mcount@GLIBC_2.2.5>
    7a81:	4c 8b 35 d0 3f 3d 00 	mov    r14,QWORD PTR [rip+0x3d3fd0]        # 3dba58 <out_file>
    7a88:	44 8b 25 65 3f 3d 00 	mov    r12d,DWORD PTR [rip+0x3d3f65]        # 3db9f4 <out_fd>
    7a8f:	49 89 fd             	mov    r13,rdi
    7a92:	89 f3                	mov    ebx,esi
    7a94:	4d 85 f6             	test   r14,r14
    7a97:	0f 84 33 01 00 00    	je     7bd0 <write_to_testcase+0x160>
    7a9d:	4c 89 f7             	mov    rdi,r14
    7aa0:	e8 3b b6 ff ff       	call   30e0 <unlink@plt>
    7aa5:	ba 80 01 00 00       	mov    edx,0x180
    7aaa:	4c 89 f7             	mov    rdi,r14
    7aad:	31 c0                	xor    eax,eax
    7aaf:	be c1 00 00 00       	mov    esi,0xc1
    7ab4:	e8 f7 ba ff ff       	call   35b0 <open64@plt>
    7ab9:	41 89 c4             	mov    r12d,eax
    7abc:	85 c0                	test   eax,eax
    7abe:	0f 88 47 01 00 00    	js     7c0b <write_to_testcase+0x19b>
    7ac4:	41 89 de             	mov    r14d,ebx
    7ac7:	4c 89 ee             	mov    rsi,r13
    7aca:	44 89 e7             	mov    edi,r12d
    7acd:	4c 89 f2             	mov    rdx,r14
    7ad0:	e8 db b6 ff ff       	call   31b0 <write@plt>
    7ad5:	39 c3                	cmp    ebx,eax
    7ad7:	0f 84 d3 00 00 00    	je     7bb0 <write_to_testcase+0x140>
    7add:	85 c0                	test   eax,eax
    7adf:	78 4f                	js     7b30 <write_to_testcase+0xc0>
    7ae1:	48 8b 15 70 3f 3d 00 	mov    rdx,QWORD PTR [rip+0x3d3f70]        # 3dba58 <out_file>
    7ae8:	48 8d 35 c9 89 01 00 	lea    rsi,[rip+0x189c9]        # 204b8 <_IO_stdin_used+0x14b8>
    7aef:	bf 01 00 00 00       	mov    edi,0x1
    7af4:	31 c0                	xor    eax,eax
    7af6:	e8 95 ba ff ff       	call   3590 <__printf_chk@plt>
    7afb:	bf 01 00 00 00       	mov    edi,0x1
    7b00:	31 c0                	xor    eax,eax
    7b02:	41 b8 ce 09 00 00    	mov    r8d,0x9ce
    7b08:	48 8d 0d 35 76 01 00 	lea    rcx,[rip+0x17635]        # 1f144 <_IO_stdin_used+0x144>
    7b0f:	48 8d 15 0a fb 01 00 	lea    rdx,[rip+0x1fb0a]        # 27620 <__FUNCTION__.45>
    7b16:	48 8d 35 e3 89 01 00 	lea    rsi,[rip+0x189e3]        # 20500 <_IO_stdin_used+0x1500>
    7b1d:	e8 6e ba ff ff       	call   3590 <__printf_chk@plt>
    7b22:	bf 01 00 00 00       	mov    edi,0x1
    7b27:	e8 d4 bb ff ff       	call   3700 <exit@plt>
    7b2c:	0f 1f 40 00          	nop    DWORD PTR [rax+0x0]
    7b30:	48 8b 3d 49 95 02 00 	mov    rdi,QWORD PTR [rip+0x29549]        # 31080 <stdout@GLIBC_2.2.5>
    7b37:	e8 d4 b9 ff ff       	call   3510 <fflush@plt>
    7b3c:	48 8b 15 15 3f 3d 00 	mov    rdx,QWORD PTR [rip+0x3d3f15]        # 3dba58 <out_file>
    7b43:	48 8d 35 26 89 01 00 	lea    rsi,[rip+0x18926]        # 20470 <_IO_stdin_used+0x1470>
    7b4a:	31 c0                	xor    eax,eax
    7b4c:	bf 01 00 00 00       	mov    edi,0x1
    7b51:	e8 3a ba ff ff       	call   3590 <__printf_chk@plt>
    7b56:	41 b8 ce 09 00 00    	mov    r8d,0x9ce
    7b5c:	48 8d 0d e1 75 01 00 	lea    rcx,[rip+0x175e1]        # 1f144 <_IO_stdin_used+0x144>
    7b63:	48 8d 15 b6 fa 01 00 	lea    rdx,[rip+0x1fab6]        # 27620 <__FUNCTION__.45>
    7b6a:	bf 01 00 00 00       	mov    edi,0x1
    7b6f:	31 c0                	xor    eax,eax
    7b71:	48 8d 35 a0 88 01 00 	lea    rsi,[rip+0x188a0]        # 20418 <_IO_stdin_used+0x1418>
    7b78:	e8 13 ba ff ff       	call   3590 <__printf_chk@plt>
    7b7d:	e8 3e b5 ff ff       	call   30c0 <__errno_location@plt>
    7b82:	8b 38                	mov    edi,DWORD PTR [rax]
    7b84:	e8 e7 bb ff ff       	call   3770 <strerror@plt>
    7b89:	bf 01 00 00 00       	mov    edi,0x1
    7b8e:	48 8d 35 b3 88 01 00 	lea    rsi,[rip+0x188b3]        # 20448 <_IO_stdin_used+0x1448>
    7b95:	48 89 c2             	mov    rdx,rax
    7b98:	31 c0                	xor    eax,eax
    7b9a:	e8 f1 b9 ff ff       	call   3590 <__printf_chk@plt>
    7b9f:	bf 01 00 00 00       	mov    edi,0x1
    7ba4:	e8 57 bb ff ff       	call   3700 <exit@plt>
    7ba9:	0f 1f 80 00 00 00 00 	nop    DWORD PTR [rax+0x0]
    7bb0:	48 83 3d a0 3e 3d 00 	cmp    QWORD PTR [rip+0x3d3ea0],0x0        # 3dba58 <out_file>
    7bb7:	00 
    7bb8:	74 2e                	je     7be8 <write_to_testcase+0x178>
    7bba:	5b                   	pop    rbx
    7bbb:	44 89 e7             	mov    edi,r12d
    7bbe:	41 5c                	pop    r12
    7bc0:	41 5d                	pop    r13
    7bc2:	41 5e                	pop    r14
    7bc4:	5d                   	pop    rbp
    7bc5:	e9 66 b7 ff ff       	jmp    3330 <close@plt>
    7bca:	66 0f 1f 44 00 00    	nop    WORD PTR [rax+rax*1+0x0]
    7bd0:	31 d2                	xor    edx,edx
    7bd2:	31 f6                	xor    esi,esi
    7bd4:	44 89 e7             	mov    edi,r12d
    7bd7:	e8 44 bb ff ff       	call   3720 <lseek64@plt>
    7bdc:	e9 e3 fe ff ff       	jmp    7ac4 <write_to_testcase+0x54>
    7be1:	0f 1f 80 00 00 00 00 	nop    DWORD PTR [rax+0x0]
    7be8:	4c 89 f6             	mov    rsi,r14
    7beb:	44 89 e7             	mov    edi,r12d
    7bee:	e8 8d b9 ff ff       	call   3580 <ftruncate64@plt>
    7bf3:	85 c0                	test   eax,eax
    7bf5:	75 45                	jne    7c3c <write_to_testcase+0x1cc>
    7bf7:	5b                   	pop    rbx
    7bf8:	44 89 e7             	mov    edi,r12d
    7bfb:	31 d2                	xor    edx,edx
    7bfd:	41 5c                	pop    r12
    7bff:	31 f6                	xor    esi,esi
    7c01:	41 5d                	pop    r13
    7c03:	41 5e                	pop    r14
    7c05:	5d                   	pop    rbp
    7c06:	e9 15 bb ff ff       	jmp    3720 <lseek64@plt>
    7c0b:	48 8b 3d 6e 94 02 00 	mov    rdi,QWORD PTR [rip+0x2946e]        # 31080 <stdout@GLIBC_2.2.5>
    7c12:	e8 f9 b8 ff ff       	call   3510 <fflush@plt>
    7c17:	48 8b 15 3a 3e 3d 00 	mov    rdx,QWORD PTR [rip+0x3d3e3a]        # 3dba58 <out_file>
    7c1e:	48 8d 35 ab 87 01 00 	lea    rsi,[rip+0x187ab]        # 203d0 <_IO_stdin_used+0x13d0>
    7c25:	31 c0                	xor    eax,eax
    7c27:	bf 01 00 00 00       	mov    edi,0x1
    7c2c:	e8 5f b9 ff ff       	call   3590 <__printf_chk@plt>
    7c31:	41 b8 ca 09 00 00    	mov    r8d,0x9ca
    7c37:	e9 20 ff ff ff       	jmp    7b5c <write_to_testcase+0xec>
    7c3c:	48 8b 3d 3d 94 02 00 	mov    rdi,QWORD PTR [rip+0x2943d]        # 31080 <stdout@GLIBC_2.2.5>
    7c43:	e8 c8 b8 ff ff       	call   3510 <fflush@plt>
    7c48:	48 8d 35 e1 88 01 00 	lea    rsi,[rip+0x188e1]        # 20530 <_IO_stdin_used+0x1530>
    7c4f:	bf 01 00 00 00       	mov    edi,0x1
    7c54:	31 c0                	xor    eax,eax
    7c56:	e8 35 b9 ff ff       	call   3590 <__printf_chk@plt>
    7c5b:	41 b8 d2 09 00 00    	mov    r8d,0x9d2
    7c61:	e9 f6 fe ff ff       	jmp    7b5c <write_to_testcase+0xec>
    7c66:	66 2e 0f 1f 84 00 00 	cs nop WORD PTR [rax+rax*1+0x0]
    7c6d:	00 00 00 

0000000000007c70 <run_target>:
    7c70:	55                   	push   rbp
    7c71:	48 89 e5             	mov    rbp,rsp
    7c74:	41 55                	push   r13
    7c76:	41 54                	push   r12
    7c78:	53                   	push   rbx
    7c79:	48 83 ec 38          	sub    rsp,0x38
    7c7d:	ff 15 5d 93 02 00    	call   QWORD PTR [rip+0x2935d]        # 30fe0 <mcount@GLIBC_2.2.5>
    7c83:	ba 00 00 04 00       	mov    edx,0x40000
    7c88:	64 48 8b 04 25 28 00 	mov    rax,QWORD PTR fs:0x28
    7c8f:	00 00 
    7c91:	48 89 45 d8          	mov    QWORD PTR [rbp-0x28],rax
    7c95:	31 c0                	xor    eax,eax
    7c97:	49 89 fc             	mov    r12,rdi
    7c9a:	48 8b 3d 3f 3d 3d 00 	mov    rdi,QWORD PTR [rip+0x3d3d3f]        # 3db9e0 <trace_bits>
    7ca1:	89 f3                	mov    ebx,esi
    7ca3:	31 f6                	xor    esi,esi
    7ca5:	c7 45 bc 00 00 00 00 	mov    DWORD PTR [rbp-0x44],0x0
    7cac:	c6 05 15 3d 2d 00 00 	mov    BYTE PTR [rip+0x2d3d15],0x0        # 2db9c8 <child_timed_out>
    7cb3:	e8 48 b6 ff ff       	call   3300 <memset@plt>
    7cb8:	80 3d 4e 3d 3d 00 01 	cmp    BYTE PTR [rip+0x3d3d4e],0x1        # 3dba0d <dumb_mode>
    7cbf:	74 0d                	je     7cce <run_target+0x5e>
    7cc1:	80 3d 3c 3d 3d 00 00 	cmp    BYTE PTR [rip+0x3d3d3c],0x0        # 3dba04 <no_forkserver>
    7cc8:	0f 84 9f 05 00 00    	je     826d <run_target+0x5fd>
    7cce:	e8 dd ba ff ff       	call   37b0 <fork@plt>
    7cd3:	89 05 4b 93 02 00    	mov    DWORD PTR [rip+0x2934b],eax        # 31024 <child_pid>
    7cd9:	85 c0                	test   eax,eax
    7cdb:	0f 88 13 08 00 00    	js     84f4 <run_target+0x884>
    7ce1:	0f 84 e1 03 00 00    	je     80c8 <run_target+0x458>
    7ce7:	41 89 dc             	mov    r12d,ebx
    7cea:	41 89 d8             	mov    r8d,ebx
    7ced:	4c 8d 2d ec 27 07 00 	lea    r13,[rip+0x727ec]        # 7a4e0 <it.42>
    7cf4:	31 d2                	xor    edx,edx
    7cf6:	49 69 f4 d3 4d 62 10 	imul   rsi,r12,0x10624dd3
    7cfd:	48 c1 ee 26          	shr    rsi,0x26
    7d01:	69 fe e8 03 00 00    	imul   edi,esi,0x3e8
    7d07:	66 0f 6e ce          	movd   xmm1,esi
    7d0b:	4c 89 ee             	mov    rsi,r13
    7d0e:	41 29 f8             	sub    r8d,edi
    7d11:	31 ff                	xor    edi,edi
    7d13:	45 69 c8 e8 03 00 00 	imul   r9d,r8d,0x3e8
    7d1a:	66 41 0f 6e c1       	movd   xmm0,r9d
    7d1f:	66 0f 6c c8          	punpcklqdq xmm1,xmm0
    7d23:	0f 29 0d c6 27 07 00 	movaps XMMWORD PTR [rip+0x727c6],xmm1        # 7a4f0 <it.42+0x10>
    7d2a:	e8 31 b8 ff ff       	call   3560 <setitimer@plt>
    7d2f:	80 3d d7 3c 3d 00 01 	cmp    BYTE PTR [rip+0x3d3cd7],0x1        # 3dba0d <dumb_mode>
    7d36:	48 8d 75 bc          	lea    rsi,[rbp-0x44]
    7d3a:	74 0d                	je     7d49 <run_target+0xd9>
    7d3c:	80 3d c1 3c 3d 00 00 	cmp    BYTE PTR [rip+0x3d3cc1],0x0        # 3dba04 <no_forkserver>
    7d43:	0f 84 e2 05 00 00    	je     832b <run_target+0x6bb>
    7d49:	8b 3d d5 92 02 00    	mov    edi,DWORD PTR [rip+0x292d5]        # 31024 <child_pid>
    7d4f:	31 d2                	xor    edx,edx
    7d51:	e8 9a b8 ff ff       	call   35f0 <waitpid@plt>
    7d56:	85 c0                	test   eax,eax
    7d58:	0f 8e c0 07 00 00    	jle    851e <run_target+0x8ae>
    7d5e:	80 7d bc 7f          	cmp    BYTE PTR [rbp-0x44],0x7f
    7d62:	74 0a                	je     7d6e <run_target+0xfe>
    7d64:	c7 05 b6 92 02 00 00 	mov    DWORD PTR [rip+0x292b6],0x0        # 31024 <child_pid>
    7d6b:	00 00 00 
    7d6e:	4c 89 ee             	mov    rsi,r13
    7d71:	31 ff                	xor    edi,edi
    7d73:	e8 e8 b8 ff ff       	call   3660 <getitimer@plt>
    7d78:	66 0f ef d2          	pxor   xmm2,xmm2
    7d7c:	4c 89 ee             	mov    rsi,r13
    7d7f:	31 ff                	xor    edi,edi
    7d81:	48 8b 0d 70 27 07 00 	mov    rcx,QWORD PTR [rip+0x72770]        # 7a4f8 <it.42+0x18>
    7d88:	48 ba cf f7 53 e3 a5 	movabs rdx,0x20c49ba5e353f7cf
    7d8f:	9b c4 20 
    7d92:	4c 69 1d 53 27 07 00 	imul   r11,QWORD PTR [rip+0x72753],0x3e8        # 7a4f0 <it.42+0x10>
    7d99:	e8 03 00 00 
    7d9d:	0f 29 15 4c 27 07 00 	movaps XMMWORD PTR [rip+0x7274c],xmm2        # 7a4f0 <it.42+0x10>
    7da4:	48 89 c8             	mov    rax,rcx
    7da7:	48 c1 f9 3f          	sar    rcx,0x3f
    7dab:	48 f7 ea             	imul   rdx
    7dae:	48 c1 fa 07          	sar    rdx,0x7
    7db2:	48 29 ca             	sub    rdx,rcx
    7db5:	49 01 d3             	add    r11,rdx
    7db8:	31 d2                	xor    edx,edx
    7dba:	4d 29 dc             	sub    r12,r11
    7dbd:	4c 89 25 04 27 07 00 	mov    QWORD PTR [rip+0x72704],r12        # 7a4c8 <exec_ms.41>
    7dc4:	e8 97 b7 ff ff       	call   3560 <setitimer@plt>
    7dc9:	48 83 05 8f 3b 2d 00 	add    QWORD PTR [rip+0x2d3b8f],0x1        # 2db960 <total_execs>
    7dd0:	01 
    7dd1:	48 8b 15 08 3c 3d 00 	mov    rdx,QWORD PTR [rip+0x3d3c08]        # 3db9e0 <trace_bits>
    7dd8:	48 8d 35 41 38 0b 00 	lea    rsi,[rip+0xb3841]        # bb620 <count_class_lookup16>
    7ddf:	44 8b 2a             	mov    r13d,DWORD PTR [rdx]
    7de2:	4c 8d a2 00 00 04 00 	lea    r12,[rdx+0x40000]
    7de9:	eb 63                	jmp    7e4e <run_target+0x1de>
    7deb:	0f 1f 44 00 00       	nop    DWORD PTR [rax+rax*1+0x0]
    7df0:	48 83 7a 08 00       	cmp    QWORD PTR [rdx+0x8],0x0
    7df5:	48 8d 4a 08          	lea    rcx,[rdx+0x8]
    7df9:	0f 85 a1 00 00 00    	jne    7ea0 <run_target+0x230>
    7dff:	48 83 79 08 00       	cmp    QWORD PTR [rcx+0x8],0x0
    7e04:	0f 85 e6 00 00 00    	jne    7ef0 <run_target+0x280>
    7e0a:	48 83 79 10 00       	cmp    QWORD PTR [rcx+0x10],0x0
    7e0f:	0f 85 2b 01 00 00    	jne    7f40 <run_target+0x2d0>
    7e15:	48 83 79 18 00       	cmp    QWORD PTR [rcx+0x18],0x0
    7e1a:	0f 85 70 01 00 00    	jne    7f90 <run_target+0x320>
    7e20:	48 83 79 20 00       	cmp    QWORD PTR [rcx+0x20],0x0
    7e25:	0f 85 b5 01 00 00    	jne    7fe0 <run_target+0x370>
    7e2b:	48 83 79 28 00       	cmp    QWORD PTR [rcx+0x28],0x0
    7e30:	0f 85 fa 01 00 00    	jne    8030 <run_target+0x3c0>
    7e36:	48 83 79 30 00       	cmp    QWORD PTR [rcx+0x30],0x0
    7e3b:	0f 85 3f 02 00 00    	jne    8080 <run_target+0x410>
    7e41:	48 8d 51 38          	lea    rdx,[rcx+0x38]
    7e45:	4c 39 e2             	cmp    rdx,r12
    7e48:	0f 84 5b 03 00 00    	je     81a9 <run_target+0x539>
    7e4e:	48 83 3a 00          	cmp    QWORD PTR [rdx],0x0
    7e52:	74 9c                	je     7df0 <run_target+0x180>
    7e54:	44 0f b7 52 06       	movzx  r10d,WORD PTR [rdx+0x6]
    7e59:	44 0f b7 4a 04       	movzx  r9d,WORD PTR [rdx+0x4]
    7e5e:	44 0f b7 42 02       	movzx  r8d,WORD PTR [rdx+0x2]
    7e63:	0f b7 3a             	movzx  edi,WORD PTR [rdx]
    7e66:	46 0f b7 1c 56       	movzx  r11d,WORD PTR [rsi+r10*2]
    7e6b:	42 0f b7 0c 4e       	movzx  ecx,WORD PTR [rsi+r9*2]
    7e70:	42 0f b7 04 46       	movzx  eax,WORD PTR [rsi+r8*2]
    7e75:	0f b7 3c 7e          	movzx  edi,WORD PTR [rsi+rdi*2]
    7e79:	49 c1 e3 10          	shl    r11,0x10
    7e7d:	49 09 cb             	or     r11,rcx
    7e80:	48 8d 4a 08          	lea    rcx,[rdx+0x8]
    7e84:	49 c1 e3 10          	shl    r11,0x10
    7e88:	49 09 c3             	or     r11,rax
    7e8b:	49 c1 e3 10          	shl    r11,0x10
    7e8f:	49 09 fb             	or     r11,rdi
    7e92:	48 83 7a 08 00       	cmp    QWORD PTR [rdx+0x8],0x0
    7e97:	4c 89 1a             	mov    QWORD PTR [rdx],r11
    7e9a:	0f 84 5f ff ff ff    	je     7dff <run_target+0x18f>
    7ea0:	44 0f b7 41 06       	movzx  r8d,WORD PTR [rcx+0x6]
    7ea5:	44 0f b7 59 04       	movzx  r11d,WORD PTR [rcx+0x4]
    7eaa:	44 0f b7 51 02       	movzx  r10d,WORD PTR [rcx+0x2]
    7eaf:	44 0f b7 4a 08       	movzx  r9d,WORD PTR [rdx+0x8]
    7eb4:	42 0f b7 04 46       	movzx  eax,WORD PTR [rsi+r8*2]
    7eb9:	42 0f b7 3c 5e       	movzx  edi,WORD PTR [rsi+r11*2]
    7ebe:	46 0f b7 14 56       	movzx  r10d,WORD PTR [rsi+r10*2]
    7ec3:	46 0f b7 0c 4e       	movzx  r9d,WORD PTR [rsi+r9*2]
    7ec8:	48 c1 e0 10          	shl    rax,0x10
    7ecc:	48 09 f8             	or     rax,rdi
    7ecf:	48 c1 e0 10          	shl    rax,0x10
    7ed3:	4c 09 d0             	or     rax,r10
    7ed6:	48 c1 e0 10          	shl    rax,0x10
    7eda:	4c 09 c8             	or     rax,r9
    7edd:	48 83 79 08 00       	cmp    QWORD PTR [rcx+0x8],0x0
    7ee2:	48 89 42 08          	mov    QWORD PTR [rdx+0x8],rax
    7ee6:	0f 84 1e ff ff ff    	je     7e0a <run_target+0x19a>
    7eec:	0f 1f 40 00          	nop    DWORD PTR [rax+0x0]
    7ef0:	0f b7 51 0e          	movzx  edx,WORD PTR [rcx+0xe]
    7ef4:	0f b7 41 0c          	movzx  eax,WORD PTR [rcx+0xc]
    7ef8:	44 0f b7 41 0a       	movzx  r8d,WORD PTR [rcx+0xa]
    7efd:	44 0f b7 59 08       	movzx  r11d,WORD PTR [rcx+0x8]
    7f02:	0f b7 3c 56          	movzx  edi,WORD PTR [rsi+rdx*2]
    7f06:	44 0f b7 14 46       	movzx  r10d,WORD PTR [rsi+rax*2]
    7f0b:	46 0f b7 0c 46       	movzx  r9d,WORD PTR [rsi+r8*2]
    7f10:	46 0f b7 1c 5e       	movzx  r11d,WORD PTR [rsi+r11*2]
    7f15:	48 c1 e7 10          	shl    rdi,0x10
    7f19:	4c 09 d7             	or     rdi,r10
    7f1c:	48 c1 e7 10          	shl    rdi,0x10
    7f20:	4c 09 cf             	or     rdi,r9
    7f23:	48 c1 e7 10          	shl    rdi,0x10
    7f27:	4c 09 df             	or     rdi,r11
    7f2a:	48 83 79 10 00       	cmp    QWORD PTR [rcx+0x10],0x0
    7f2f:	48 89 79 08          	mov    QWORD PTR [rcx+0x8],rdi
    7f33:	0f 84 dc fe ff ff    	je     7e15 <run_target+0x1a5>
    7f39:	0f 1f 80 00 00 00 00 	nop    DWORD PTR [rax+0x0]
    7f40:	0f b7 51 16          	movzx  edx,WORD PTR [rcx+0x16]
    7f44:	0f b7 79 14          	movzx  edi,WORD PTR [rcx+0x14]
    7f48:	0f b7 41 12          	movzx  eax,WORD PTR [rcx+0x12]
    7f4c:	44 0f b7 41 10       	movzx  r8d,WORD PTR [rcx+0x10]
    7f51:	44 0f b7 1c 56       	movzx  r11d,WORD PTR [rsi+rdx*2]
    7f56:	44 0f b7 14 7e       	movzx  r10d,WORD PTR [rsi+rdi*2]
    7f5b:	44 0f b7 0c 46       	movzx  r9d,WORD PTR [rsi+rax*2]
    7f60:	46 0f b7 04 46       	movzx  r8d,WORD PTR [rsi+r8*2]
    7f65:	49 c1 e3 10          	shl    r11,0x10
    7f69:	4d 09 d3             	or     r11,r10
    7f6c:	49 c1 e3 10          	shl    r11,0x10
    7f70:	4d 09 cb             	or     r11,r9
    7f73:	49 c1 e3 10          	shl    r11,0x10
    7f77:	4d 09 c3             	or     r11,r8
    7f7a:	48 83 79 18 00       	cmp    QWORD PTR [rcx+0x18],0x0
    7f7f:	4c 89 59 10          	mov    QWORD PTR [rcx+0x10],r11
    7f83:	0f 84 97 fe ff ff    	je     7e20 <run_target+0x1b0>
    7f89:	0f 1f 80 00 00 00 00 	nop    DWORD PTR [rax+0x0]
    7f90:	0f b7 51 1e          	movzx  edx,WORD PTR [rcx+0x1e]
    7f94:	44 0f b7 59 1c       	movzx  r11d,WORD PTR [rcx+0x1c]
    7f99:	0f b7 79 1a          	movzx  edi,WORD PTR [rcx+0x1a]
    7f9d:	0f b7 41 18          	movzx  eax,WORD PTR [rcx+0x18]
    7fa1:	0f b7 14 56          	movzx  edx,WORD PTR [rsi+rdx*2]
    7fa5:	46 0f b7 14 5e       	movzx  r10d,WORD PTR [rsi+r11*2]
    7faa:	44 0f b7 0c 7e       	movzx  r9d,WORD PTR [rsi+rdi*2]
    7faf:	44 0f b7 04 46       	movzx  r8d,WORD PTR [rsi+rax*2]
    7fb4:	48 c1 e2 10          	shl    rdx,0x10
    7fb8:	4c 09 d2             	or     rdx,r10
    7fbb:	48 c1 e2 10          	shl    rdx,0x10
    7fbf:	4c 09 ca             	or     rdx,r9
    7fc2:	48 c1 e2 10          	shl    rdx,0x10
    7fc6:	4c 09 c2             	or     rdx,r8
    7fc9:	48 83 79 20 00       	cmp    QWORD PTR [rcx+0x20],0x0
    7fce:	48 89 51 18          	mov    QWORD PTR [rcx+0x18],rdx
    7fd2:	0f 84 53 fe ff ff    	je     7e2b <run_target+0x1bb>
    7fd8:	0f 1f 84 00 00 00 00 	nop    DWORD PTR [rax+rax*1+0x0]
    7fdf:	00 
    7fe0:	0f b7 51 26          	movzx  edx,WORD PTR [rcx+0x26]
    7fe4:	44 0f b7 59 24       	movzx  r11d,WORD PTR [rcx+0x24]
    7fe9:	0f b7 79 22          	movzx  edi,WORD PTR [rcx+0x22]
    7fed:	0f b7 41 20          	movzx  eax,WORD PTR [rcx+0x20]
    7ff1:	0f b7 14 56          	movzx  edx,WORD PTR [rsi+rdx*2]
    7ff5:	46 0f b7 14 5e       	movzx  r10d,WORD PTR [rsi+r11*2]
    7ffa:	44 0f b7 0c 7e       	movzx  r9d,WORD PTR [rsi+rdi*2]
    7fff:	44 0f b7 04 46       	movzx  r8d,WORD PTR [rsi+rax*2]
    8004:	48 c1 e2 10          	shl    rdx,0x10
    8008:	4c 09 d2             	or     rdx,r10
    800b:	48 c1 e2 10          	shl    rdx,0x10
    800f:	4c 09 ca             	or     rdx,r9
    8012:	48 c1 e2 10          	shl    rdx,0x10
    8016:	4c 09 c2             	or     rdx,r8
    8019:	48 83 79 28 00       	cmp    QWORD PTR [rcx+0x28],0x0
    801e:	48 89 51 20          	mov    QWORD PTR [rcx+0x20],rdx
    8022:	0f 84 0e fe ff ff    	je     7e36 <run_target+0x1c6>
    8028:	0f 1f 84 00 00 00 00 	nop    DWORD PTR [rax+rax*1+0x0]
    802f:	00 
    8030:	0f b7 51 2e          	movzx  edx,WORD PTR [rcx+0x2e]
    8034:	44 0f b7 59 2c       	movzx  r11d,WORD PTR [rcx+0x2c]
    8039:	0f b7 79 2a          	movzx  edi,WORD PTR [rcx+0x2a]
    803d:	0f b7 41 28          	movzx  eax,WORD PTR [rcx+0x28]
    8041:	0f b7 14 56          	movzx  edx,WORD PTR [rsi+rdx*2]
    8045:	46 0f b7 14 5e       	movzx  r10d,WORD PTR [rsi+r11*2]
    804a:	44 0f b7 0c 7e       	movzx  r9d,WORD PTR [rsi+rdi*2]
    804f:	44 0f b7 04 46       	movzx  r8d,WORD PTR [rsi+rax*2]
    8054:	48 c1 e2 10          	shl    rdx,0x10
    8058:	4c 09 d2             	or     rdx,r10
    805b:	48 c1 e2 10          	shl    rdx,0x10
    805f:	4c 09 ca             	or     rdx,r9
    8062:	48 c1 e2 10          	shl    rdx,0x10
    8066:	4c 09 c2             	or     rdx,r8
    8069:	48 83 79 30 00       	cmp    QWORD PTR [rcx+0x30],0x0
    806e:	48 89 51 28          	mov    QWORD PTR [rcx+0x28],rdx
    8072:	0f 84 c9 fd ff ff    	je     7e41 <run_target+0x1d1>
    8078:	0f 1f 84 00 00 00 00 	nop    DWORD PTR [rax+rax*1+0x0]
    807f:	00 
    8080:	0f b7 51 36          	movzx  edx,WORD PTR [rcx+0x36]
    8084:	44 0f b7 59 34       	movzx  r11d,WORD PTR [rcx+0x34]
    8089:	0f b7 79 32          	movzx  edi,WORD PTR [rcx+0x32]
    808d:	0f b7 41 30          	movzx  eax,WORD PTR [rcx+0x30]
    8091:	0f b7 14 56          	movzx  edx,WORD PTR [rsi+rdx*2]
    8095:	46 0f b7 14 5e       	movzx  r10d,WORD PTR [rsi+r11*2]
    809a:	44 0f b7 0c 7e       	movzx  r9d,WORD PTR [rsi+rdi*2]
    809f:	44 0f b7 04 46       	movzx  r8d,WORD PTR [rsi+rax*2]
    80a4:	48 c1 e2 10          	shl    rdx,0x10
    80a8:	4c 09 d2             	or     rdx,r10
    80ab:	48 c1 e2 10          	shl    rdx,0x10
    80af:	4c 09 ca             	or     rdx,r9
    80b2:	48 c1 e2 10          	shl    rdx,0x10
    80b6:	4c 09 c2             	or     rdx,r8
    80b9:	48 89 51 30          	mov    QWORD PTR [rcx+0x30],rdx
    80bd:	e9 7f fd ff ff       	jmp    7e41 <run_target+0x1d1>
    80c2:	66 0f 1f 44 00 00    	nop    WORD PTR [rax+rax*1+0x0]
    80c8:	4c 8b 0d 69 8f 02 00 	mov    r9,QWORD PTR [rip+0x28f69]        # 31038 <mem_limit>
    80cf:	48 8d 5d c0          	lea    rbx,[rbp-0x40]
    80d3:	4d 85 c9             	test   r9,r9
    80d6:	0f 85 08 02 00 00    	jne    82e4 <run_target+0x674>
    80dc:	66 0f ef e4          	pxor   xmm4,xmm4
    80e0:	48 89 de             	mov    rsi,rbx
    80e3:	bf 04 00 00 00       	mov    edi,0x4
    80e8:	0f 29 65 c0          	movaps XMMWORD PTR [rbp-0x40],xmm4
    80ec:	e8 df b1 ff ff       	call   32d0 <setrlimit64@plt>
    80f1:	e8 5a b2 ff ff       	call   3350 <setsid@plt>
    80f6:	8b 1d 2c 8f 02 00    	mov    ebx,DWORD PTR [rip+0x28f2c]        # 31028 <dev_null_fd>
    80fc:	be 01 00 00 00       	mov    esi,0x1
    8101:	89 df                	mov    edi,ebx
    8103:	e8 48 b1 ff ff       	call   3250 <dup2@plt>
    8108:	be 02 00 00 00       	mov    esi,0x2
    810d:	89 df                	mov    edi,ebx
    810f:	e8 3c b1 ff ff       	call   3250 <dup2@plt>
    8114:	48 83 3d 3c 39 3d 00 	cmp    QWORD PTR [rip+0x3d393c],0x0        # 3dba58 <out_file>
    811b:	00 
    811c:	0f 84 e5 01 00 00    	je     8307 <run_target+0x697>
    8122:	31 f6                	xor    esi,esi
    8124:	89 df                	mov    edi,ebx
    8126:	e8 25 b1 ff ff       	call   3250 <dup2@plt>
    812b:	89 df                	mov    edi,ebx
    812d:	e8 fe b1 ff ff       	call   3330 <close@plt>
    8132:	8b 3d e8 8e 02 00    	mov    edi,DWORD PTR [rip+0x28ee8]        # 31020 <out_dir_fd>
    8138:	e8 f3 b1 ff ff       	call   3330 <close@plt>
    813d:	8b 3d e9 8e 02 00    	mov    edi,DWORD PTR [rip+0x28ee9]        # 3102c <dev_urandom_fd>
    8143:	e8 e8 b1 ff ff       	call   3330 <close@plt>
    8148:	48 8b 3d 31 35 2d 00 	mov    rdi,QWORD PTR [rip+0x2d3531]        # 2db680 <plot_file>
    814f:	e8 3c b3 ff ff       	call   3490 <fileno@plt>
    8154:	89 c7                	mov    edi,eax
    8156:	e8 d5 b1 ff ff       	call   3330 <close@plt>
    815b:	31 d2                	xor    edx,edx
    815d:	48 8d 35 54 84 01 00 	lea    rsi,[rip+0x18454]        # 205b8 <_IO_stdin_used+0x15b8>
    8164:	48 8d 3d e4 6f 01 00 	lea    rdi,[rip+0x16fe4]        # 1f14f <_IO_stdin_used+0x14f>
    816b:	e8 20 b0 ff ff       	call   3190 <setenv@plt>
    8170:	31 d2                	xor    edx,edx
    8172:	48 8d 35 87 84 01 00 	lea    rsi,[rip+0x18487]        # 20600 <_IO_stdin_used+0x1600>
    8179:	48 8d 3d dc 6f 01 00 	lea    rdi,[rip+0x16fdc]        # 1f15c <_IO_stdin_used+0x15c>
    8180:	e8 0b b0 ff ff       	call   3190 <setenv@plt>
    8185:	48 8b 3d 94 38 3d 00 	mov    rdi,QWORD PTR [rip+0x3d3894]        # 3dba20 <target_path>
    818c:	4c 89 e6             	mov    rsi,r12
    818f:	e8 0c b6 ff ff       	call   37a0 <execv@plt>
    8194:	4c 8b 05 45 38 3d 00 	mov    r8,QWORD PTR [rip+0x3d3845]        # 3db9e0 <trace_bits>
    819b:	31 ff                	xor    edi,edi
    819d:	41 c7 00 ad de e1 fe 	mov    DWORD PTR [r8],0xfee1dead
    81a4:	e8 57 b5 ff ff       	call   3700 <exit@plt>
    81a9:	8b 45 bc             	mov    eax,DWORD PTR [rbp-0x44]
    81ac:	44 0f b6 25 14 38 2d 	movzx  r12d,BYTE PTR [rip+0x2d3814]        # 2db9c8 <child_timed_out>
    81b3:	00 
    81b4:	89 c2                	mov    edx,eax
    81b6:	44 89 25 43 23 07 00 	mov    DWORD PTR [rip+0x72343],r12d        # 7a500 <prev_timed_out.43>
